	.text
	.syntax unified
	.eabi_attribute	67, "2.09"	@ Tag_conformance
	.cpu	cortex-m55
	.eabi_attribute	6, 21	@ Tag_CPU_arch
	.eabi_attribute	7, 77	@ Tag_CPU_arch_profile
	.eabi_attribute	8, 0	@ Tag_ARM_ISA_use
	.eabi_attribute	9, 3	@ Tag_THUMB_ISA_use
	.fpu	fpv5-d16
	.arch_extension	mve.fp
	.eabi_attribute	36, 1	@ Tag_FP_HP_extension
	.eabi_attribute	48, 2	@ Tag_MVE_arch
	.eabi_attribute	46, 1	@ Tag_DSP_extension
	.eabi_attribute	34, 1	@ Tag_CPU_unaligned_access
	.eabi_attribute	17, 1	@ Tag_ABI_PCS_GOT_use
	.eabi_attribute	20, 2	@ Tag_ABI_FP_denormal
	.eabi_attribute	21, 0	@ Tag_ABI_FP_exceptions
	.eabi_attribute	23, 1	@ Tag_ABI_FP_number_model
	.eabi_attribute	24, 1	@ Tag_ABI_align_needed
	.eabi_attribute	25, 1	@ Tag_ABI_align_preserved
	.eabi_attribute	28, 1	@ Tag_ABI_VFP_args
	.eabi_attribute	38, 1	@ Tag_ABI_FP_16bit_format
	.eabi_attribute	18, 2	@ Tag_ABI_PCS_wchar_t
	.eabi_attribute	26, 1	@ Tag_ABI_enum_size
	.eabi_attribute	14, 0	@ Tag_ABI_PCS_R9_use
	.file	"clk.c"
	.file	1 "C:\\Keil_v5\\ARM\\ARMCLANG\\bin\\..\\include" "stdint.h"
	.file	2 "D:\\M55M1_NuEdgeWise\\ML_M55M1_SampleCode\\M55M1BSP-3.00.001\\SampleCode\\NuEdgeWise\\ObjectDetection_FreeRTOS_yoloxn\\KEIL" "../../../../Library/Device/Nuvoton/M55M1/Include\\clk_reg.h"
	.file	3 "D:\\M55M1_NuEdgeWise\\ML_M55M1_SampleCode\\M55M1BSP-3.00.001\\SampleCode\\NuEdgeWise\\ObjectDetection_FreeRTOS_yoloxn\\KEIL" "../../../../Library/Device/Nuvoton/M55M1/Include\\pmc_reg.h"
	.file	4 "D:\\M55M1_NuEdgeWise\\ML_M55M1_SampleCode\\M55M1BSP-3.00.001\\SampleCode\\NuEdgeWise\\ObjectDetection_FreeRTOS_yoloxn\\KEIL" "../../../../Library/Device/Nuvoton/M55M1/Include\\fmc_reg.h"
	.file	5 "D:\\M55M1_NuEdgeWise\\ML_M55M1_SampleCode\\M55M1BSP-3.00.001\\SampleCode\\NuEdgeWise\\ObjectDetection_FreeRTOS_yoloxn\\KEIL" "../../../../Library/Device/Nuvoton/M55M1/Include\\rtc_reg.h"
	.file	6 "D:\\M55M1_NuEdgeWise\\ML_M55M1_SampleCode\\M55M1BSP-3.00.001\\SampleCode\\NuEdgeWise\\ObjectDetection_FreeRTOS_yoloxn\\KEIL" "../../../../Library/Device/Nuvoton/M55M1/Include\\M55M1.h"
	.file	7 "D:\\M55M1_NuEdgeWise\\ML_M55M1_SampleCode\\M55M1BSP-3.00.001\\SampleCode\\NuEdgeWise\\ObjectDetection_FreeRTOS_yoloxn\\KEIL" "../../../../Library/CMSIS/Core/Include\\core_cm55.h"
	.file	8 "D:\\M55M1_NuEdgeWise\\ML_M55M1_SampleCode\\M55M1BSP-3.00.001\\SampleCode\\NuEdgeWise\\ObjectDetection_FreeRTOS_yoloxn\\KEIL" "../../../../Library/Device/Nuvoton/M55M1/Include\\ccap_reg.h"
	.section	.text.CLK_DisableCKO,"ax",%progbits
	.hidden	CLK_DisableCKO                  @ -- Begin function CLK_DisableCKO
	.globl	CLK_DisableCKO
	.p2align	2
	.type	CLK_DisableCKO,%function
	.code	16                              @ @CLK_DisableCKO
	.thumb_func
CLK_DisableCKO:
.Lfunc_begin0:
	.file	9 "D:\\M55M1_NuEdgeWise\\ML_M55M1_SampleCode\\M55M1BSP-3.00.001\\SampleCode\\NuEdgeWise\\ObjectDetection_FreeRTOS_yoloxn\\KEIL" "../../../../Library/StdDriver/src/clk.c"
	.loc	9 31 0                          @ ../../../../Library/StdDriver/src/clk.c:31:0
	.fnstart
	.cfi_sections .debug_frame
	.cfi_startproc
@ %bb.0:
	movw	r0, #4136
	movt	r0, #16384
.Ltmp0:
	.loc	9 33 18 prologue_end            @ ../../../../Library/StdDriver/src/clk.c:33:18
	ldr	r1, [r0]
	bic	r1, r1, #16
	str	r1, [r0]
	.loc	9 34 1                          @ ../../../../Library/StdDriver/src/clk.c:34:1
	bx	lr
.Ltmp1:
.Lfunc_end0:
	.size	CLK_DisableCKO, .Lfunc_end0-CLK_DisableCKO
	.cfi_endproc
	.cantunwind
	.fnend
                                        @ -- End function
	.section	.text.CLK_EnableCKO,"ax",%progbits
	.hidden	CLK_EnableCKO                   @ -- Begin function CLK_EnableCKO
	.globl	CLK_EnableCKO
	.p2align	2
	.type	CLK_EnableCKO,%function
	.code	16                              @ @CLK_EnableCKO
	.thumb_func
CLK_EnableCKO:
.Lfunc_begin1:
	.fnstart
	.cfi_startproc
@ %bb.0:
	@DEBUG_VALUE: CLK_EnableCKO:u32ClkSrc <- $r0
	@DEBUG_VALUE: CLK_EnableCKO:u32ClkDiv <- $r1
	@DEBUG_VALUE: CLK_EnableCKO:u32ClkDivBy1En <- $r2
	.loc	9 67 57 prologue_end            @ ../../../../Library/StdDriver/src/clk.c:67:57
	orr.w	r1, r1, r2, lsl #5
.Ltmp2:
	@DEBUG_VALUE: CLK_EnableCKO:u32ClkDiv <- [DW_OP_LLVM_entry_value 1] $r1
	.loc	9 0 57 is_stmt 0                @ ../../../../Library/StdDriver/src/clk.c:0:57
	movw	r2, #64536
.Ltmp3:
	@DEBUG_VALUE: CLK_EnableCKO:u32ClkDivBy1En <- [DW_OP_LLVM_entry_value 1] $r2
	movw	r3, #5136
	.loc	9 67 57                         @ ../../../../Library/StdDriver/src/clk.c:67:57
	orr	r1, r1, #16
	movt	r2, #65535
	movt	r3, #16384
	.loc	9 67 18                         @ ../../../../Library/StdDriver/src/clk.c:67:18
	str	r1, [r3, r2]
	.loc	9 70 26 is_stmt 1               @ ../../../../Library/StdDriver/src/clk.c:70:26
	ldr	r1, [r3]
	.loc	9 70 34 is_stmt 0               @ ../../../../Library/StdDriver/src/clk.c:70:34
	bic	r1, r1, #15
	.loc	9 70 64                         @ ../../../../Library/StdDriver/src/clk.c:70:64
	orrs	r0, r1
.Ltmp4:
	@DEBUG_VALUE: CLK_EnableCKO:u32ClkSrc <- [DW_OP_LLVM_entry_value 1] $r0
	.loc	9 70 18                         @ ../../../../Library/StdDriver/src/clk.c:70:18
	str	r0, [r3]
	.loc	9 71 1 is_stmt 1                @ ../../../../Library/StdDriver/src/clk.c:71:1
	bx	lr
.Ltmp5:
.Lfunc_end1:
	.size	CLK_EnableCKO, .Lfunc_end1-CLK_EnableCKO
	.cfi_endproc
	.cantunwind
	.fnend
                                        @ -- End function
	.section	.text.CLK_GetHXTFreq,"ax",%progbits
	.hidden	CLK_GetHXTFreq                  @ -- Begin function CLK_GetHXTFreq
	.globl	CLK_GetHXTFreq
	.p2align	2
	.type	CLK_GetHXTFreq,%function
	.code	16                              @ @CLK_GetHXTFreq
	.thumb_func
CLK_GetHXTFreq:
.Lfunc_begin2:
	.loc	9 80 0                          @ ../../../../Library/StdDriver/src/clk.c:80:0
	.fnstart
	.cfi_startproc
@ %bb.0:
	movw	r0, #4096
	movw	r1, #13824
	movt	r0, #16384
.Ltmp6:
	.loc	9 83 14 prologue_end            @ ../../../../Library/StdDriver/src/clk.c:83:14
	ldr	r0, [r0]
	movt	r1, #366
	.loc	9 83 21 is_stmt 0               @ ../../../../Library/StdDriver/src/clk.c:83:21
	lsls	r0, r0, #27
	and.w	r0, r1, r0, asr #31
.Ltmp7:
	@DEBUG_VALUE: CLK_GetHXTFreq:u32Freq <- $r0
	.loc	9 92 5 is_stmt 1                @ ../../../../Library/StdDriver/src/clk.c:92:5
	bx	lr
.Ltmp8:
.Lfunc_end2:
	.size	CLK_GetHXTFreq, .Lfunc_end2-CLK_GetHXTFreq
	.cfi_endproc
	.cantunwind
	.fnend
                                        @ -- End function
	.section	.text.CLK_GetLXTFreq,"ax",%progbits
	.hidden	CLK_GetLXTFreq                  @ -- Begin function CLK_GetLXTFreq
	.globl	CLK_GetLXTFreq
	.p2align	2
	.type	CLK_GetLXTFreq,%function
	.code	16                              @ @CLK_GetLXTFreq
	.thumb_func
CLK_GetLXTFreq:
.Lfunc_begin3:
	.loc	9 102 0                         @ ../../../../Library/StdDriver/src/clk.c:102:0
	.fnstart
	.cfi_startproc
@ %bb.0:
	movw	r0, #4096
	mov.w	r1, #32768
	movt	r0, #16384
.Ltmp9:
	.loc	9 105 14 prologue_end           @ ../../../../Library/StdDriver/src/clk.c:105:14
	ldr	r0, [r0]
	and.w	r0, r1, r0, lsl #14
.Ltmp10:
	@DEBUG_VALUE: CLK_GetLXTFreq:u32Freq <- $r0
	.loc	9 114 5                         @ ../../../../Library/StdDriver/src/clk.c:114:5
	bx	lr
.Ltmp11:
.Lfunc_end3:
	.size	CLK_GetLXTFreq, .Lfunc_end3-CLK_GetLXTFreq
	.cfi_endproc
	.cantunwind
	.fnend
                                        @ -- End function
	.section	.text.CLK_GetMIRCFreq,"ax",%progbits
	.hidden	CLK_GetMIRCFreq                 @ -- Begin function CLK_GetMIRCFreq
	.globl	CLK_GetMIRCFreq
	.p2align	2
	.type	CLK_GetMIRCFreq,%function
	.code	16                              @ @CLK_GetMIRCFreq
	.thumb_func
CLK_GetMIRCFreq:
.Lfunc_begin4:
	.loc	9 124 0                         @ ../../../../Library/StdDriver/src/clk.c:124:0
	.fnstart
	.cfi_startproc
@ %bb.0:
	@DEBUG_VALUE: CLK_GetMIRCFreq:u32Freq <- 1000000
	movw	r0, #16960
	movt	r0, #15
.Ltmp12:
	.loc	9 161 5 prologue_end            @ ../../../../Library/StdDriver/src/clk.c:161:5
	bx	lr
.Ltmp13:
.Lfunc_end4:
	.size	CLK_GetMIRCFreq, .Lfunc_end4-CLK_GetMIRCFreq
	.cfi_endproc
	.cantunwind
	.fnend
                                        @ -- End function
	.section	.text.CLK_GetPCLK0Freq,"ax",%progbits
	.hidden	CLK_GetPCLK0Freq                @ -- Begin function CLK_GetPCLK0Freq
	.globl	CLK_GetPCLK0Freq
	.p2align	2
	.type	CLK_GetPCLK0Freq,%function
	.code	16                              @ @CLK_GetPCLK0Freq
	.thumb_func
CLK_GetPCLK0Freq:
.Lfunc_begin5:
	.loc	9 215 0                         @ ../../../../Library/StdDriver/src/clk.c:215:0
	.fnstart
	.cfi_startproc
@ %bb.0:
	.save	{r4, lr}
	push	{r4, lr}
	.cfi_def_cfa_offset 8
	.cfi_offset lr, -4
	.cfi_offset r4, -8
	movw	r1, #4096
	movt	r1, #16384
.Ltmp14:
	@DEBUG_VALUE: CLK_GetAPLL0ClockFreq:u32PllFreq <- 0
	.loc	9 1713 22 prologue_end          @ ../../../../Library/StdDriver/src/clk.c:1713:22
	ldr	r2, [r1, #24]
.Ltmp15:
	@DEBUG_VALUE: CLK_GetAPLL0ClockFreq:u32PllReg <- $r2
	.loc	9 1714 23                       @ ../../../../Library/StdDriver/src/clk.c:1714:23
	ldr	r0, [r1, #28]
.Ltmp16:
	@DEBUG_VALUE: CLK_GetAPLL0ClockFreq:u32PllReg1 <- $r0
	.loc	9 1716 16                       @ ../../../../Library/StdDriver/src/clk.c:1716:16
	ldr	r3, [r1]
.Ltmp17:
	.loc	9 1716 9 is_stmt 0              @ ../../../../Library/StdDriver/src/clk.c:1716:9
	lsls	r3, r3, #25
	bmi	.LBB5_2
.Ltmp18:
@ %bb.1:
	@DEBUG_VALUE: CLK_GetAPLL0ClockFreq:u32PllReg1 <- $r0
	@DEBUG_VALUE: CLK_GetAPLL0ClockFreq:u32PllReg <- $r2
	@DEBUG_VALUE: CLK_GetAPLL0ClockFreq:u32PllFreq <- 0
	.loc	9 0 9                           @ ../../../../Library/StdDriver/src/clk.c:0:9
	movs	r0, #0
.Ltmp19:
	b	.LBB5_4
.Ltmp20:
.LBB5_2:
	@DEBUG_VALUE: CLK_GetAPLL0ClockFreq:u32PllReg1 <- $r0
	@DEBUG_VALUE: CLK_GetAPLL0ClockFreq:u32PllReg <- $r2
	@DEBUG_VALUE: CLK_GetAPLL0ClockFreq:u32PllFreq <- 0
	.loc	9 1723 13 is_stmt 1             @ ../../../../Library/StdDriver/src/clk.c:1723:13
	lsls	r0, r0, #30
.Ltmp21:
	.loc	9 0 13 is_stmt 0                @ ../../../../Library/StdDriver/src/clk.c:0:13
	movw	r0, #6912
	movt	r0, #183
	.loc	9 1723 13                       @ ../../../../Library/StdDriver/src/clk.c:1723:13
	itt	eq
	movweq	r0, #13824
	movteq	r0, #366
.Ltmp22:
	@DEBUG_VALUE: CLK_GetAPLL0ClockFreq:u32FIN <- $r0
	.loc	9 1737 13 is_stmt 1             @ ../../../../Library/StdDriver/src/clk.c:1737:13
	lsls	r3, r2, #1
	bmi	.LBB5_4
.Ltmp23:
@ %bb.3:
	@DEBUG_VALUE: CLK_GetAPLL0ClockFreq:u32FIN <- $r0
	@DEBUG_VALUE: CLK_GetAPLL0ClockFreq:u32PllReg <- $r2
	@DEBUG_VALUE: CLK_GetAPLL0ClockFreq:u32PllFreq <- 0
	.loc	9 0 13 is_stmt 0                @ ../../../../Library/StdDriver/src/clk.c:0:13
	movw	r3, #1022
.Ltmp24:
	.loc	9 1749 36 is_stmt 1             @ ../../../../Library/StdDriver/src/clk.c:1749:36
	lsrs	r0, r0, #2
.Ltmp25:
	.loc	9 1744 69                       @ ../../../../Library/StdDriver/src/clk.c:1744:69
	ubfx	r12, r2, #14, #2
	.loc	9 1749 51                       @ ../../../../Library/StdDriver/src/clk.c:1749:51
	and.w	r4, r3, r2, lsl #1
	.loc	9 1744 21                       @ ../../../../Library/StdDriver/src/clk.c:1744:21
	movw	r3, :lower16:.L__const.CLK_GetAPLL1ClockFreq.au8NoTbl
	.loc	9 1746 59                       @ ../../../../Library/StdDriver/src/clk.c:1746:59
	ubfx	lr, r2, #9, #5
	.loc	9 1744 21                       @ ../../../../Library/StdDriver/src/clk.c:1744:21
	movt	r3, :upper16:.L__const.CLK_GetAPLL1ClockFreq.au8NoTbl
	.loc	9 1749 51                       @ ../../../../Library/StdDriver/src/clk.c:1749:51
	adds	r4, #4
	.loc	9 1744 21                       @ ../../../../Library/StdDriver/src/clk.c:1744:21
	ldrb.w	r3, [r3, r12]
.Ltmp26:
	@DEBUG_VALUE: CLK_GetAPLL0ClockFreq:u32NO <- $r3
	@DEBUG_VALUE: CLK_GetAPLL0ClockFreq:u32NF <- [DW_OP_constu 511, DW_OP_and, DW_OP_plus_uconst 2, DW_OP_stack_value] undef
	.loc	9 1746 86                       @ ../../../../Library/StdDriver/src/clk.c:1746:86
	add.w	r2, lr, #1
.Ltmp27:
	@DEBUG_VALUE: CLK_GetAPLL0ClockFreq:u32NR <- $r2
	.loc	9 1749 42                       @ ../../../../Library/StdDriver/src/clk.c:1749:42
	muls	r0, r4, r0
	.loc	9 1749 67 is_stmt 0             @ ../../../../Library/StdDriver/src/clk.c:1749:67
	muls	r2, r3, r2
.Ltmp28:
	.loc	9 1749 58                       @ ../../../../Library/StdDriver/src/clk.c:1749:58
	udiv	r0, r0, r2
	.loc	9 1749 76                       @ ../../../../Library/StdDriver/src/clk.c:1749:76
	lsls	r0, r0, #2
.Ltmp29:
	@DEBUG_VALUE: CLK_GetAPLL0ClockFreq:u32PllFreq <- $r0
.LBB5_4:
	.loc	9 1823 14 is_stmt 1             @ ../../../../Library/StdDriver/src/clk.c:1823:14
	movw	r2, :lower16:PllClock
	movt	r2, :upper16:PllClock
	str	r0, [r2]
	.loc	9 1825 22                       @ ../../../../Library/StdDriver/src/clk.c:1825:22
	ldr.w	r1, [r1, #1024]
	.loc	9 1825 30 is_stmt 0             @ ../../../../Library/StdDriver/src/clk.c:1825:30
	and	r1, r1, #7
.Ltmp30:
	@DEBUG_VALUE: CLK_SystemClockUpdate:u32ClkSrc <- $r1
	.loc	9 1827 9 is_stmt 1              @ ../../../../Library/StdDriver/src/clk.c:1827:9
	cmp	r1, #4
	beq	.LBB5_8
.Ltmp31:
@ %bb.5:
	@DEBUG_VALUE: CLK_SystemClockUpdate:u32ClkSrc <- $r1
	cmp	r1, #1
	bne	.LBB5_7
.Ltmp32:
@ %bb.6:
	@DEBUG_VALUE: CLK_SystemClockUpdate:u32ClkSrc <- $r1
	.loc	9 0 9 is_stmt 0                 @ ../../../../Library/StdDriver/src/clk.c:0:9
	movw	r0, #16960
	movt	r0, #15
.Ltmp33:
	@DEBUG_VALUE: CLK_SystemClockUpdate:SystemClock <- 1000000
	b	.LBB5_8
.Ltmp34:
.LBB5_7:
	@DEBUG_VALUE: CLK_SystemClockUpdate:u32ClkSrc <- $r1
	.loc	9 1840 23 is_stmt 1             @ ../../../../Library/StdDriver/src/clk.c:1840:23
	movw	r0, :lower16:.L__const.CLK_SystemClockUpdate.gau32ClkSrcTbl
	movt	r0, :upper16:.L__const.CLK_SystemClockUpdate.gau32ClkSrcTbl
	ldr.w	r0, [r0, r1, lsl #2]
.Ltmp35:
	@DEBUG_VALUE: CLK_SystemClockUpdate:SystemClock <- $r0
.LBB5_8:
	@DEBUG_VALUE: CLK_GetHCLK0Freq:u32Hclk0 <- $r0
	@DEBUG_VALUE: CLK_GetPCLK0Freq:u32Hclk0Freq <- $r0
	.loc	9 0 23 is_stmt 0                @ ../../../../Library/StdDriver/src/clk.c:0:23
	movw	r1, #5388
	movt	r1, #16384
	.loc	9 220 38 is_stmt 1              @ ../../../../Library/StdDriver/src/clk.c:220:38
	ldr	r1, [r1]
	.loc	9 220 46 is_stmt 0              @ ../../../../Library/StdDriver/src/clk.c:220:46
	and	r1, r1, #15
	.loc	9 220 103                       @ ../../../../Library/StdDriver/src/clk.c:220:103
	adds	r1, #1
	.loc	9 220 28                        @ ../../../../Library/StdDriver/src/clk.c:220:28
	udiv	r0, r0, r1
.Ltmp36:
	@DEBUG_VALUE: CLK_GetPCLK0Freq:u32Freq <- $r0
	.loc	9 222 5 epilogue_begin is_stmt 1 @ ../../../../Library/StdDriver/src/clk.c:222:5
	pop	{r4, pc}
.Ltmp37:
.Lfunc_end5:
	.size	CLK_GetPCLK0Freq, .Lfunc_end5-CLK_GetPCLK0Freq
	.cfi_endproc
	.cantunwind
	.fnend
                                        @ -- End function
	.section	.text.CLK_GetHCLK0Freq,"ax",%progbits
	.hidden	CLK_GetHCLK0Freq                @ -- Begin function CLK_GetHCLK0Freq
	.globl	CLK_GetHCLK0Freq
	.p2align	2
	.type	CLK_GetHCLK0Freq,%function
	.code	16                              @ @CLK_GetHCLK0Freq
	.thumb_func
CLK_GetHCLK0Freq:
.Lfunc_begin6:
	.loc	9 341 0                         @ ../../../../Library/StdDriver/src/clk.c:341:0
	.fnstart
	.cfi_startproc
@ %bb.0:
	.save	{r4, lr}
	push	{r4, lr}
	.cfi_def_cfa_offset 8
	.cfi_offset lr, -4
	.cfi_offset r4, -8
	movw	r1, #4096
	movt	r1, #16384
.Ltmp38:
	@DEBUG_VALUE: CLK_GetAPLL0ClockFreq:u32PllFreq <- 0
	.loc	9 1713 22 prologue_end          @ ../../../../Library/StdDriver/src/clk.c:1713:22
	ldr	r2, [r1, #24]
.Ltmp39:
	@DEBUG_VALUE: CLK_GetAPLL0ClockFreq:u32PllReg <- $r2
	.loc	9 1714 23                       @ ../../../../Library/StdDriver/src/clk.c:1714:23
	ldr	r0, [r1, #28]
.Ltmp40:
	@DEBUG_VALUE: CLK_GetAPLL0ClockFreq:u32PllReg1 <- $r0
	.loc	9 1716 16                       @ ../../../../Library/StdDriver/src/clk.c:1716:16
	ldr	r3, [r1]
.Ltmp41:
	.loc	9 1716 9 is_stmt 0              @ ../../../../Library/StdDriver/src/clk.c:1716:9
	lsls	r3, r3, #25
	bmi	.LBB6_2
.Ltmp42:
@ %bb.1:
	@DEBUG_VALUE: CLK_GetAPLL0ClockFreq:u32PllReg1 <- $r0
	@DEBUG_VALUE: CLK_GetAPLL0ClockFreq:u32PllReg <- $r2
	@DEBUG_VALUE: CLK_GetAPLL0ClockFreq:u32PllFreq <- 0
	.loc	9 0 9                           @ ../../../../Library/StdDriver/src/clk.c:0:9
	movs	r0, #0
.Ltmp43:
	b	.LBB6_4
.Ltmp44:
.LBB6_2:
	@DEBUG_VALUE: CLK_GetAPLL0ClockFreq:u32PllReg1 <- $r0
	@DEBUG_VALUE: CLK_GetAPLL0ClockFreq:u32PllReg <- $r2
	@DEBUG_VALUE: CLK_GetAPLL0ClockFreq:u32PllFreq <- 0
	.loc	9 1723 13 is_stmt 1             @ ../../../../Library/StdDriver/src/clk.c:1723:13
	lsls	r0, r0, #30
.Ltmp45:
	.loc	9 0 13 is_stmt 0                @ ../../../../Library/StdDriver/src/clk.c:0:13
	movw	r0, #6912
	movt	r0, #183
	.loc	9 1723 13                       @ ../../../../Library/StdDriver/src/clk.c:1723:13
	itt	eq
	movweq	r0, #13824
	movteq	r0, #366
.Ltmp46:
	@DEBUG_VALUE: CLK_GetAPLL0ClockFreq:u32FIN <- $r0
	.loc	9 1737 13 is_stmt 1             @ ../../../../Library/StdDriver/src/clk.c:1737:13
	lsls	r3, r2, #1
	bmi	.LBB6_4
.Ltmp47:
@ %bb.3:
	@DEBUG_VALUE: CLK_GetAPLL0ClockFreq:u32FIN <- $r0
	@DEBUG_VALUE: CLK_GetAPLL0ClockFreq:u32PllReg <- $r2
	@DEBUG_VALUE: CLK_GetAPLL0ClockFreq:u32PllFreq <- 0
	.loc	9 0 13 is_stmt 0                @ ../../../../Library/StdDriver/src/clk.c:0:13
	movw	r3, #1022
.Ltmp48:
	.loc	9 1749 36 is_stmt 1             @ ../../../../Library/StdDriver/src/clk.c:1749:36
	lsrs	r0, r0, #2
.Ltmp49:
	.loc	9 1744 69                       @ ../../../../Library/StdDriver/src/clk.c:1744:69
	ubfx	r12, r2, #14, #2
	.loc	9 1749 51                       @ ../../../../Library/StdDriver/src/clk.c:1749:51
	and.w	r4, r3, r2, lsl #1
	.loc	9 1744 21                       @ ../../../../Library/StdDriver/src/clk.c:1744:21
	movw	r3, :lower16:.L__const.CLK_GetAPLL1ClockFreq.au8NoTbl
	.loc	9 1746 59                       @ ../../../../Library/StdDriver/src/clk.c:1746:59
	ubfx	lr, r2, #9, #5
	.loc	9 1744 21                       @ ../../../../Library/StdDriver/src/clk.c:1744:21
	movt	r3, :upper16:.L__const.CLK_GetAPLL1ClockFreq.au8NoTbl
	.loc	9 1749 51                       @ ../../../../Library/StdDriver/src/clk.c:1749:51
	adds	r4, #4
	.loc	9 1744 21                       @ ../../../../Library/StdDriver/src/clk.c:1744:21
	ldrb.w	r3, [r3, r12]
.Ltmp50:
	@DEBUG_VALUE: CLK_GetAPLL0ClockFreq:u32NO <- $r3
	@DEBUG_VALUE: CLK_GetAPLL0ClockFreq:u32NF <- [DW_OP_constu 511, DW_OP_and, DW_OP_plus_uconst 2, DW_OP_stack_value] undef
	.loc	9 1746 86                       @ ../../../../Library/StdDriver/src/clk.c:1746:86
	add.w	r2, lr, #1
.Ltmp51:
	@DEBUG_VALUE: CLK_GetAPLL0ClockFreq:u32NR <- $r2
	.loc	9 1749 42                       @ ../../../../Library/StdDriver/src/clk.c:1749:42
	muls	r0, r4, r0
	.loc	9 1749 67 is_stmt 0             @ ../../../../Library/StdDriver/src/clk.c:1749:67
	muls	r2, r3, r2
.Ltmp52:
	.loc	9 1749 58                       @ ../../../../Library/StdDriver/src/clk.c:1749:58
	udiv	r0, r0, r2
	.loc	9 1749 76                       @ ../../../../Library/StdDriver/src/clk.c:1749:76
	lsls	r0, r0, #2
.Ltmp53:
	@DEBUG_VALUE: CLK_GetAPLL0ClockFreq:u32PllFreq <- $r0
.LBB6_4:
	.loc	9 1823 14 is_stmt 1             @ ../../../../Library/StdDriver/src/clk.c:1823:14
	movw	r2, :lower16:PllClock
	movt	r2, :upper16:PllClock
	str	r0, [r2]
	.loc	9 1825 22                       @ ../../../../Library/StdDriver/src/clk.c:1825:22
	ldr.w	r1, [r1, #1024]
	.loc	9 1825 30 is_stmt 0             @ ../../../../Library/StdDriver/src/clk.c:1825:30
	and	r1, r1, #7
.Ltmp54:
	@DEBUG_VALUE: CLK_SystemClockUpdate:u32ClkSrc <- $r1
	.loc	9 1827 9 is_stmt 1              @ ../../../../Library/StdDriver/src/clk.c:1827:9
	cmp	r1, #4
.Ltmp55:
	@DEBUG_VALUE: CLK_GetHCLK0Freq:u32Hclk0 <- $r0
	.loc	9 346 5                         @ ../../../../Library/StdDriver/src/clk.c:346:5
	it	eq
	.loc	9 346 5 epilogue_begin is_stmt 0 @ ../../../../Library/StdDriver/src/clk.c:346:5
	popeq	{r4, pc}
.Ltmp56:
.LBB6_5:
	@DEBUG_VALUE: CLK_GetHCLK0Freq:u32Hclk0 <- $r0
	@DEBUG_VALUE: CLK_SystemClockUpdate:u32ClkSrc <- $r1
	.loc	9 1827 9 is_stmt 1              @ ../../../../Library/StdDriver/src/clk.c:1827:9
	cmp	r1, #1
	bne	.LBB6_7
.Ltmp57:
@ %bb.6:
	@DEBUG_VALUE: CLK_GetHCLK0Freq:u32Hclk0 <- $r0
	.loc	9 0 9 is_stmt 0                 @ ../../../../Library/StdDriver/src/clk.c:0:9
	movw	r0, #16960
.Ltmp58:
	movt	r0, #15
	@DEBUG_VALUE: CLK_SystemClockUpdate:SystemClock <- 1000000
.Ltmp59:
	@DEBUG_VALUE: CLK_GetHCLK0Freq:u32Hclk0 <- $r0
	.loc	9 346 5 epilogue_begin is_stmt 1 @ ../../../../Library/StdDriver/src/clk.c:346:5
	pop	{r4, pc}
.Ltmp60:
.LBB6_7:
	@DEBUG_VALUE: CLK_GetHCLK0Freq:u32Hclk0 <- $r0
	@DEBUG_VALUE: CLK_SystemClockUpdate:u32ClkSrc <- $r1
	.loc	9 1840 23                       @ ../../../../Library/StdDriver/src/clk.c:1840:23
	movw	r0, :lower16:.L__const.CLK_SystemClockUpdate.gau32ClkSrcTbl
.Ltmp61:
	movt	r0, :upper16:.L__const.CLK_SystemClockUpdate.gau32ClkSrcTbl
	ldr.w	r0, [r0, r1, lsl #2]
.Ltmp62:
	@DEBUG_VALUE: CLK_SystemClockUpdate:SystemClock <- $r0
	@DEBUG_VALUE: CLK_GetHCLK0Freq:u32Hclk0 <- $r0
	.loc	9 346 5 epilogue_begin          @ ../../../../Library/StdDriver/src/clk.c:346:5
	pop	{r4, pc}
.Ltmp63:
.Lfunc_end6:
	.size	CLK_GetHCLK0Freq, .Lfunc_end6-CLK_GetHCLK0Freq
	.cfi_endproc
	.cantunwind
	.fnend
                                        @ -- End function
	.section	.text.CLK_GetPCLK1Freq,"ax",%progbits
	.hidden	CLK_GetPCLK1Freq                @ -- Begin function CLK_GetPCLK1Freq
	.globl	CLK_GetPCLK1Freq
	.p2align	2
	.type	CLK_GetPCLK1Freq,%function
	.code	16                              @ @CLK_GetPCLK1Freq
	.thumb_func
CLK_GetPCLK1Freq:
.Lfunc_begin7:
	.loc	9 232 0                         @ ../../../../Library/StdDriver/src/clk.c:232:0
	.fnstart
	.cfi_startproc
@ %bb.0:
	.save	{r4, lr}
	push	{r4, lr}
	.cfi_def_cfa_offset 8
	.cfi_offset lr, -4
	.cfi_offset r4, -8
	movw	r1, #4096
	movt	r1, #16384
.Ltmp64:
	@DEBUG_VALUE: CLK_GetAPLL0ClockFreq:u32PllFreq <- 0
	.loc	9 1713 22 prologue_end          @ ../../../../Library/StdDriver/src/clk.c:1713:22
	ldr	r2, [r1, #24]
.Ltmp65:
	@DEBUG_VALUE: CLK_GetAPLL0ClockFreq:u32PllReg <- $r2
	.loc	9 1714 23                       @ ../../../../Library/StdDriver/src/clk.c:1714:23
	ldr	r0, [r1, #28]
.Ltmp66:
	@DEBUG_VALUE: CLK_GetAPLL0ClockFreq:u32PllReg1 <- $r0
	.loc	9 1716 16                       @ ../../../../Library/StdDriver/src/clk.c:1716:16
	ldr	r3, [r1]
.Ltmp67:
	.loc	9 1716 9 is_stmt 0              @ ../../../../Library/StdDriver/src/clk.c:1716:9
	lsls	r3, r3, #25
	bmi	.LBB7_2
.Ltmp68:
@ %bb.1:
	@DEBUG_VALUE: CLK_GetAPLL0ClockFreq:u32PllReg1 <- $r0
	@DEBUG_VALUE: CLK_GetAPLL0ClockFreq:u32PllReg <- $r2
	@DEBUG_VALUE: CLK_GetAPLL0ClockFreq:u32PllFreq <- 0
	.loc	9 0 9                           @ ../../../../Library/StdDriver/src/clk.c:0:9
	movs	r0, #0
.Ltmp69:
	b	.LBB7_4
.Ltmp70:
.LBB7_2:
	@DEBUG_VALUE: CLK_GetAPLL0ClockFreq:u32PllReg1 <- $r0
	@DEBUG_VALUE: CLK_GetAPLL0ClockFreq:u32PllReg <- $r2
	@DEBUG_VALUE: CLK_GetAPLL0ClockFreq:u32PllFreq <- 0
	.loc	9 1723 13 is_stmt 1             @ ../../../../Library/StdDriver/src/clk.c:1723:13
	lsls	r0, r0, #30
.Ltmp71:
	.loc	9 0 13 is_stmt 0                @ ../../../../Library/StdDriver/src/clk.c:0:13
	movw	r0, #6912
	movt	r0, #183
	.loc	9 1723 13                       @ ../../../../Library/StdDriver/src/clk.c:1723:13
	itt	eq
	movweq	r0, #13824
	movteq	r0, #366
.Ltmp72:
	@DEBUG_VALUE: CLK_GetAPLL0ClockFreq:u32FIN <- $r0
	.loc	9 1737 13 is_stmt 1             @ ../../../../Library/StdDriver/src/clk.c:1737:13
	lsls	r3, r2, #1
	bmi	.LBB7_4
.Ltmp73:
@ %bb.3:
	@DEBUG_VALUE: CLK_GetAPLL0ClockFreq:u32FIN <- $r0
	@DEBUG_VALUE: CLK_GetAPLL0ClockFreq:u32PllReg <- $r2
	@DEBUG_VALUE: CLK_GetAPLL0ClockFreq:u32PllFreq <- 0
	.loc	9 0 13 is_stmt 0                @ ../../../../Library/StdDriver/src/clk.c:0:13
	movw	r3, #1022
.Ltmp74:
	.loc	9 1749 36 is_stmt 1             @ ../../../../Library/StdDriver/src/clk.c:1749:36
	lsrs	r0, r0, #2
.Ltmp75:
	.loc	9 1744 69                       @ ../../../../Library/StdDriver/src/clk.c:1744:69
	ubfx	r12, r2, #14, #2
	.loc	9 1749 51                       @ ../../../../Library/StdDriver/src/clk.c:1749:51
	and.w	r4, r3, r2, lsl #1
	.loc	9 1744 21                       @ ../../../../Library/StdDriver/src/clk.c:1744:21
	movw	r3, :lower16:.L__const.CLK_GetAPLL1ClockFreq.au8NoTbl
	.loc	9 1746 59                       @ ../../../../Library/StdDriver/src/clk.c:1746:59
	ubfx	lr, r2, #9, #5
	.loc	9 1744 21                       @ ../../../../Library/StdDriver/src/clk.c:1744:21
	movt	r3, :upper16:.L__const.CLK_GetAPLL1ClockFreq.au8NoTbl
	.loc	9 1749 51                       @ ../../../../Library/StdDriver/src/clk.c:1749:51
	adds	r4, #4
	.loc	9 1744 21                       @ ../../../../Library/StdDriver/src/clk.c:1744:21
	ldrb.w	r3, [r3, r12]
.Ltmp76:
	@DEBUG_VALUE: CLK_GetAPLL0ClockFreq:u32NO <- $r3
	@DEBUG_VALUE: CLK_GetAPLL0ClockFreq:u32NF <- [DW_OP_constu 511, DW_OP_and, DW_OP_plus_uconst 2, DW_OP_stack_value] undef
	.loc	9 1746 86                       @ ../../../../Library/StdDriver/src/clk.c:1746:86
	add.w	r2, lr, #1
.Ltmp77:
	@DEBUG_VALUE: CLK_GetAPLL0ClockFreq:u32NR <- $r2
	.loc	9 1749 42                       @ ../../../../Library/StdDriver/src/clk.c:1749:42
	muls	r0, r4, r0
	.loc	9 1749 67 is_stmt 0             @ ../../../../Library/StdDriver/src/clk.c:1749:67
	muls	r2, r3, r2
.Ltmp78:
	.loc	9 1749 58                       @ ../../../../Library/StdDriver/src/clk.c:1749:58
	udiv	r0, r0, r2
	.loc	9 1749 76                       @ ../../../../Library/StdDriver/src/clk.c:1749:76
	lsls	r0, r0, #2
.Ltmp79:
	@DEBUG_VALUE: CLK_GetAPLL0ClockFreq:u32PllFreq <- $r0
.LBB7_4:
	.loc	9 1823 14 is_stmt 1             @ ../../../../Library/StdDriver/src/clk.c:1823:14
	movw	r2, :lower16:PllClock
	movt	r2, :upper16:PllClock
	str	r0, [r2]
	.loc	9 1825 22                       @ ../../../../Library/StdDriver/src/clk.c:1825:22
	ldr.w	r1, [r1, #1024]
	.loc	9 1825 30 is_stmt 0             @ ../../../../Library/StdDriver/src/clk.c:1825:30
	and	r1, r1, #7
.Ltmp80:
	@DEBUG_VALUE: CLK_SystemClockUpdate:u32ClkSrc <- $r1
	.loc	9 1827 9 is_stmt 1              @ ../../../../Library/StdDriver/src/clk.c:1827:9
	cmp	r1, #4
	beq	.LBB7_8
.Ltmp81:
@ %bb.5:
	@DEBUG_VALUE: CLK_SystemClockUpdate:u32ClkSrc <- $r1
	cmp	r1, #1
	bne	.LBB7_7
.Ltmp82:
@ %bb.6:
	@DEBUG_VALUE: CLK_SystemClockUpdate:u32ClkSrc <- $r1
	.loc	9 0 9 is_stmt 0                 @ ../../../../Library/StdDriver/src/clk.c:0:9
	movw	r0, #16960
	movt	r0, #15
.Ltmp83:
	@DEBUG_VALUE: CLK_SystemClockUpdate:SystemClock <- 1000000
	b	.LBB7_8
.Ltmp84:
.LBB7_7:
	@DEBUG_VALUE: CLK_SystemClockUpdate:u32ClkSrc <- $r1
	.loc	9 1840 23 is_stmt 1             @ ../../../../Library/StdDriver/src/clk.c:1840:23
	movw	r0, :lower16:.L__const.CLK_SystemClockUpdate.gau32ClkSrcTbl
	movt	r0, :upper16:.L__const.CLK_SystemClockUpdate.gau32ClkSrcTbl
	ldr.w	r0, [r0, r1, lsl #2]
.Ltmp85:
	@DEBUG_VALUE: CLK_SystemClockUpdate:SystemClock <- $r0
.LBB7_8:
	@DEBUG_VALUE: CLK_GetHCLK0Freq:u32Hclk0 <- $r0
	@DEBUG_VALUE: CLK_GetPCLK1Freq:u32Hclk1Freq <- $r0
	.loc	9 0 23 is_stmt 0                @ ../../../../Library/StdDriver/src/clk.c:0:23
	movw	r1, #5388
	movt	r1, #16384
	.loc	9 237 38 is_stmt 1              @ ../../../../Library/StdDriver/src/clk.c:237:38
	ldr	r1, [r1]
	.loc	9 237 74 is_stmt 0              @ ../../../../Library/StdDriver/src/clk.c:237:74
	ubfx	r1, r1, #4, #4
	.loc	9 237 103                       @ ../../../../Library/StdDriver/src/clk.c:237:103
	adds	r1, #1
	.loc	9 237 28                        @ ../../../../Library/StdDriver/src/clk.c:237:28
	udiv	r0, r0, r1
.Ltmp86:
	@DEBUG_VALUE: CLK_GetPCLK1Freq:u32Freq <- $r0
	.loc	9 239 5 epilogue_begin is_stmt 1 @ ../../../../Library/StdDriver/src/clk.c:239:5
	pop	{r4, pc}
.Ltmp87:
.Lfunc_end7:
	.size	CLK_GetPCLK1Freq, .Lfunc_end7-CLK_GetPCLK1Freq
	.cfi_endproc
	.cantunwind
	.fnend
                                        @ -- End function
	.section	.text.CLK_GetPCLK2Freq,"ax",%progbits
	.hidden	CLK_GetPCLK2Freq                @ -- Begin function CLK_GetPCLK2Freq
	.globl	CLK_GetPCLK2Freq
	.p2align	2
	.type	CLK_GetPCLK2Freq,%function
	.code	16                              @ @CLK_GetPCLK2Freq
	.thumb_func
CLK_GetPCLK2Freq:
.Lfunc_begin8:
	.loc	9 249 0                         @ ../../../../Library/StdDriver/src/clk.c:249:0
	.fnstart
	.cfi_startproc
@ %bb.0:
	.save	{r4, lr}
	push	{r4, lr}
	.cfi_def_cfa_offset 8
	.cfi_offset lr, -4
	.cfi_offset r4, -8
	movw	r1, #4096
	movt	r1, #16384
.Ltmp88:
	@DEBUG_VALUE: CLK_GetAPLL0ClockFreq:u32PllFreq <- 0
	.loc	9 1713 22 prologue_end          @ ../../../../Library/StdDriver/src/clk.c:1713:22
	ldr	r2, [r1, #24]
.Ltmp89:
	@DEBUG_VALUE: CLK_GetAPLL0ClockFreq:u32PllReg <- $r2
	.loc	9 1714 23                       @ ../../../../Library/StdDriver/src/clk.c:1714:23
	ldr	r0, [r1, #28]
.Ltmp90:
	@DEBUG_VALUE: CLK_GetAPLL0ClockFreq:u32PllReg1 <- $r0
	.loc	9 1716 16                       @ ../../../../Library/StdDriver/src/clk.c:1716:16
	ldr	r3, [r1]
.Ltmp91:
	.loc	9 1716 9 is_stmt 0              @ ../../../../Library/StdDriver/src/clk.c:1716:9
	lsls	r3, r3, #25
	bmi	.LBB8_2
.Ltmp92:
@ %bb.1:
	@DEBUG_VALUE: CLK_GetAPLL0ClockFreq:u32PllReg1 <- $r0
	@DEBUG_VALUE: CLK_GetAPLL0ClockFreq:u32PllReg <- $r2
	@DEBUG_VALUE: CLK_GetAPLL0ClockFreq:u32PllFreq <- 0
	.loc	9 0 9                           @ ../../../../Library/StdDriver/src/clk.c:0:9
	movs	r0, #0
.Ltmp93:
	b	.LBB8_4
.Ltmp94:
.LBB8_2:
	@DEBUG_VALUE: CLK_GetAPLL0ClockFreq:u32PllReg1 <- $r0
	@DEBUG_VALUE: CLK_GetAPLL0ClockFreq:u32PllReg <- $r2
	@DEBUG_VALUE: CLK_GetAPLL0ClockFreq:u32PllFreq <- 0
	.loc	9 1723 13 is_stmt 1             @ ../../../../Library/StdDriver/src/clk.c:1723:13
	lsls	r0, r0, #30
.Ltmp95:
	.loc	9 0 13 is_stmt 0                @ ../../../../Library/StdDriver/src/clk.c:0:13
	movw	r0, #6912
	movt	r0, #183
	.loc	9 1723 13                       @ ../../../../Library/StdDriver/src/clk.c:1723:13
	itt	eq
	movweq	r0, #13824
	movteq	r0, #366
.Ltmp96:
	@DEBUG_VALUE: CLK_GetAPLL0ClockFreq:u32FIN <- $r0
	.loc	9 1737 13 is_stmt 1             @ ../../../../Library/StdDriver/src/clk.c:1737:13
	lsls	r3, r2, #1
	bmi	.LBB8_4
.Ltmp97:
@ %bb.3:
	@DEBUG_VALUE: CLK_GetAPLL0ClockFreq:u32FIN <- $r0
	@DEBUG_VALUE: CLK_GetAPLL0ClockFreq:u32PllReg <- $r2
	@DEBUG_VALUE: CLK_GetAPLL0ClockFreq:u32PllFreq <- 0
	.loc	9 0 13 is_stmt 0                @ ../../../../Library/StdDriver/src/clk.c:0:13
	movw	r3, #1022
.Ltmp98:
	.loc	9 1749 36 is_stmt 1             @ ../../../../Library/StdDriver/src/clk.c:1749:36
	lsrs	r0, r0, #2
.Ltmp99:
	.loc	9 1744 69                       @ ../../../../Library/StdDriver/src/clk.c:1744:69
	ubfx	r12, r2, #14, #2
	.loc	9 1749 51                       @ ../../../../Library/StdDriver/src/clk.c:1749:51
	and.w	r4, r3, r2, lsl #1
	.loc	9 1744 21                       @ ../../../../Library/StdDriver/src/clk.c:1744:21
	movw	r3, :lower16:.L__const.CLK_GetAPLL1ClockFreq.au8NoTbl
	.loc	9 1746 59                       @ ../../../../Library/StdDriver/src/clk.c:1746:59
	ubfx	lr, r2, #9, #5
	.loc	9 1744 21                       @ ../../../../Library/StdDriver/src/clk.c:1744:21
	movt	r3, :upper16:.L__const.CLK_GetAPLL1ClockFreq.au8NoTbl
	.loc	9 1749 51                       @ ../../../../Library/StdDriver/src/clk.c:1749:51
	adds	r4, #4
	.loc	9 1744 21                       @ ../../../../Library/StdDriver/src/clk.c:1744:21
	ldrb.w	r3, [r3, r12]
.Ltmp100:
	@DEBUG_VALUE: CLK_GetAPLL0ClockFreq:u32NO <- $r3
	@DEBUG_VALUE: CLK_GetAPLL0ClockFreq:u32NF <- [DW_OP_constu 511, DW_OP_and, DW_OP_plus_uconst 2, DW_OP_stack_value] undef
	.loc	9 1746 86                       @ ../../../../Library/StdDriver/src/clk.c:1746:86
	add.w	r2, lr, #1
.Ltmp101:
	@DEBUG_VALUE: CLK_GetAPLL0ClockFreq:u32NR <- $r2
	.loc	9 1749 42                       @ ../../../../Library/StdDriver/src/clk.c:1749:42
	muls	r0, r4, r0
	.loc	9 1749 67 is_stmt 0             @ ../../../../Library/StdDriver/src/clk.c:1749:67
	muls	r2, r3, r2
.Ltmp102:
	.loc	9 1749 58                       @ ../../../../Library/StdDriver/src/clk.c:1749:58
	udiv	r0, r0, r2
	.loc	9 1749 76                       @ ../../../../Library/StdDriver/src/clk.c:1749:76
	lsls	r0, r0, #2
.Ltmp103:
	@DEBUG_VALUE: CLK_GetAPLL0ClockFreq:u32PllFreq <- $r0
.LBB8_4:
	.loc	9 1823 14 is_stmt 1             @ ../../../../Library/StdDriver/src/clk.c:1823:14
	movw	r2, :lower16:PllClock
	movt	r2, :upper16:PllClock
	str	r0, [r2]
	.loc	9 1825 22                       @ ../../../../Library/StdDriver/src/clk.c:1825:22
	ldr.w	r1, [r1, #1024]
	.loc	9 1825 30 is_stmt 0             @ ../../../../Library/StdDriver/src/clk.c:1825:30
	and	r1, r1, #7
.Ltmp104:
	@DEBUG_VALUE: CLK_SystemClockUpdate:u32ClkSrc <- $r1
	.loc	9 1827 9 is_stmt 1              @ ../../../../Library/StdDriver/src/clk.c:1827:9
	cmp	r1, #4
	beq	.LBB8_8
.Ltmp105:
@ %bb.5:
	@DEBUG_VALUE: CLK_SystemClockUpdate:u32ClkSrc <- $r1
	cmp	r1, #1
	bne	.LBB8_7
.Ltmp106:
@ %bb.6:
	@DEBUG_VALUE: CLK_SystemClockUpdate:u32ClkSrc <- $r1
	.loc	9 0 9 is_stmt 0                 @ ../../../../Library/StdDriver/src/clk.c:0:9
	movw	r0, #16960
	movt	r0, #15
.Ltmp107:
	@DEBUG_VALUE: CLK_SystemClockUpdate:SystemClock <- 1000000
	b	.LBB8_8
.Ltmp108:
.LBB8_7:
	@DEBUG_VALUE: CLK_SystemClockUpdate:u32ClkSrc <- $r1
	.loc	9 1840 23 is_stmt 1             @ ../../../../Library/StdDriver/src/clk.c:1840:23
	movw	r0, :lower16:.L__const.CLK_SystemClockUpdate.gau32ClkSrcTbl
	movt	r0, :upper16:.L__const.CLK_SystemClockUpdate.gau32ClkSrcTbl
	ldr.w	r0, [r0, r1, lsl #2]
.Ltmp109:
	@DEBUG_VALUE: CLK_SystemClockUpdate:SystemClock <- $r0
.LBB8_8:
	@DEBUG_VALUE: CLK_GetHCLK0Freq:u32Hclk0 <- $r0
	@DEBUG_VALUE: CLK_GetPCLK2Freq:u32Hclk2Freq <- $r0
	.loc	9 0 23 is_stmt 0                @ ../../../../Library/StdDriver/src/clk.c:0:23
	movw	r1, #5388
	movt	r1, #16384
	.loc	9 254 38 is_stmt 1              @ ../../../../Library/StdDriver/src/clk.c:254:38
	ldr	r1, [r1]
	.loc	9 254 74 is_stmt 0              @ ../../../../Library/StdDriver/src/clk.c:254:74
	ubfx	r1, r1, #8, #4
	.loc	9 254 103                       @ ../../../../Library/StdDriver/src/clk.c:254:103
	adds	r1, #1
	.loc	9 254 28                        @ ../../../../Library/StdDriver/src/clk.c:254:28
	udiv	r0, r0, r1
.Ltmp110:
	@DEBUG_VALUE: CLK_GetPCLK2Freq:u32Freq <- $r0
	.loc	9 256 5 epilogue_begin is_stmt 1 @ ../../../../Library/StdDriver/src/clk.c:256:5
	pop	{r4, pc}
.Ltmp111:
.Lfunc_end8:
	.size	CLK_GetPCLK2Freq, .Lfunc_end8-CLK_GetPCLK2Freq
	.cfi_endproc
	.cantunwind
	.fnend
                                        @ -- End function
	.section	.text.CLK_GetPCLK3Freq,"ax",%progbits
	.hidden	CLK_GetPCLK3Freq                @ -- Begin function CLK_GetPCLK3Freq
	.globl	CLK_GetPCLK3Freq
	.p2align	2
	.type	CLK_GetPCLK3Freq,%function
	.code	16                              @ @CLK_GetPCLK3Freq
	.thumb_func
CLK_GetPCLK3Freq:
.Lfunc_begin9:
	.loc	9 266 0                         @ ../../../../Library/StdDriver/src/clk.c:266:0
	.fnstart
	.cfi_startproc
@ %bb.0:
	.save	{r4, lr}
	push	{r4, lr}
	.cfi_def_cfa_offset 8
	.cfi_offset lr, -4
	.cfi_offset r4, -8
	movw	r1, #4096
	movt	r1, #16384
.Ltmp112:
	@DEBUG_VALUE: CLK_GetAPLL0ClockFreq:u32PllFreq <- 0
	.loc	9 1713 22 prologue_end          @ ../../../../Library/StdDriver/src/clk.c:1713:22
	ldr	r2, [r1, #24]
.Ltmp113:
	@DEBUG_VALUE: CLK_GetAPLL0ClockFreq:u32PllReg <- $r2
	.loc	9 1714 23                       @ ../../../../Library/StdDriver/src/clk.c:1714:23
	ldr	r0, [r1, #28]
.Ltmp114:
	@DEBUG_VALUE: CLK_GetAPLL0ClockFreq:u32PllReg1 <- $r0
	.loc	9 1716 16                       @ ../../../../Library/StdDriver/src/clk.c:1716:16
	ldr	r3, [r1]
.Ltmp115:
	.loc	9 1716 9 is_stmt 0              @ ../../../../Library/StdDriver/src/clk.c:1716:9
	lsls	r3, r3, #25
	bmi	.LBB9_2
.Ltmp116:
@ %bb.1:
	@DEBUG_VALUE: CLK_GetAPLL0ClockFreq:u32PllReg1 <- $r0
	@DEBUG_VALUE: CLK_GetAPLL0ClockFreq:u32PllReg <- $r2
	@DEBUG_VALUE: CLK_GetAPLL0ClockFreq:u32PllFreq <- 0
	.loc	9 0 9                           @ ../../../../Library/StdDriver/src/clk.c:0:9
	movs	r0, #0
.Ltmp117:
	b	.LBB9_4
.Ltmp118:
.LBB9_2:
	@DEBUG_VALUE: CLK_GetAPLL0ClockFreq:u32PllReg1 <- $r0
	@DEBUG_VALUE: CLK_GetAPLL0ClockFreq:u32PllReg <- $r2
	@DEBUG_VALUE: CLK_GetAPLL0ClockFreq:u32PllFreq <- 0
	.loc	9 1723 13 is_stmt 1             @ ../../../../Library/StdDriver/src/clk.c:1723:13
	lsls	r0, r0, #30
.Ltmp119:
	.loc	9 0 13 is_stmt 0                @ ../../../../Library/StdDriver/src/clk.c:0:13
	movw	r0, #6912
	movt	r0, #183
	.loc	9 1723 13                       @ ../../../../Library/StdDriver/src/clk.c:1723:13
	itt	eq
	movweq	r0, #13824
	movteq	r0, #366
.Ltmp120:
	@DEBUG_VALUE: CLK_GetAPLL0ClockFreq:u32FIN <- $r0
	.loc	9 1737 13 is_stmt 1             @ ../../../../Library/StdDriver/src/clk.c:1737:13
	lsls	r3, r2, #1
	bmi	.LBB9_4
.Ltmp121:
@ %bb.3:
	@DEBUG_VALUE: CLK_GetAPLL0ClockFreq:u32FIN <- $r0
	@DEBUG_VALUE: CLK_GetAPLL0ClockFreq:u32PllReg <- $r2
	@DEBUG_VALUE: CLK_GetAPLL0ClockFreq:u32PllFreq <- 0
	.loc	9 0 13 is_stmt 0                @ ../../../../Library/StdDriver/src/clk.c:0:13
	movw	r3, #1022
.Ltmp122:
	.loc	9 1749 36 is_stmt 1             @ ../../../../Library/StdDriver/src/clk.c:1749:36
	lsrs	r0, r0, #2
.Ltmp123:
	.loc	9 1744 69                       @ ../../../../Library/StdDriver/src/clk.c:1744:69
	ubfx	r12, r2, #14, #2
	.loc	9 1749 51                       @ ../../../../Library/StdDriver/src/clk.c:1749:51
	and.w	r4, r3, r2, lsl #1
	.loc	9 1744 21                       @ ../../../../Library/StdDriver/src/clk.c:1744:21
	movw	r3, :lower16:.L__const.CLK_GetAPLL1ClockFreq.au8NoTbl
	.loc	9 1746 59                       @ ../../../../Library/StdDriver/src/clk.c:1746:59
	ubfx	lr, r2, #9, #5
	.loc	9 1744 21                       @ ../../../../Library/StdDriver/src/clk.c:1744:21
	movt	r3, :upper16:.L__const.CLK_GetAPLL1ClockFreq.au8NoTbl
	.loc	9 1749 51                       @ ../../../../Library/StdDriver/src/clk.c:1749:51
	adds	r4, #4
	.loc	9 1744 21                       @ ../../../../Library/StdDriver/src/clk.c:1744:21
	ldrb.w	r3, [r3, r12]
.Ltmp124:
	@DEBUG_VALUE: CLK_GetAPLL0ClockFreq:u32NO <- $r3
	@DEBUG_VALUE: CLK_GetAPLL0ClockFreq:u32NF <- [DW_OP_constu 511, DW_OP_and, DW_OP_plus_uconst 2, DW_OP_stack_value] undef
	.loc	9 1746 86                       @ ../../../../Library/StdDriver/src/clk.c:1746:86
	add.w	r2, lr, #1
.Ltmp125:
	@DEBUG_VALUE: CLK_GetAPLL0ClockFreq:u32NR <- $r2
	.loc	9 1749 42                       @ ../../../../Library/StdDriver/src/clk.c:1749:42
	muls	r0, r4, r0
	.loc	9 1749 67 is_stmt 0             @ ../../../../Library/StdDriver/src/clk.c:1749:67
	muls	r2, r3, r2
.Ltmp126:
	.loc	9 1749 58                       @ ../../../../Library/StdDriver/src/clk.c:1749:58
	udiv	r0, r0, r2
	.loc	9 1749 76                       @ ../../../../Library/StdDriver/src/clk.c:1749:76
	lsls	r0, r0, #2
.Ltmp127:
	@DEBUG_VALUE: CLK_GetAPLL0ClockFreq:u32PllFreq <- $r0
.LBB9_4:
	.loc	9 1823 14 is_stmt 1             @ ../../../../Library/StdDriver/src/clk.c:1823:14
	movw	r2, :lower16:PllClock
	movt	r2, :upper16:PllClock
	str	r0, [r2]
	.loc	9 1825 22                       @ ../../../../Library/StdDriver/src/clk.c:1825:22
	ldr.w	r1, [r1, #1024]
	.loc	9 1825 30 is_stmt 0             @ ../../../../Library/StdDriver/src/clk.c:1825:30
	and	r1, r1, #7
.Ltmp128:
	@DEBUG_VALUE: CLK_SystemClockUpdate:u32ClkSrc <- $r1
	.loc	9 1827 9 is_stmt 1              @ ../../../../Library/StdDriver/src/clk.c:1827:9
	cmp	r1, #4
	beq	.LBB9_8
.Ltmp129:
@ %bb.5:
	@DEBUG_VALUE: CLK_SystemClockUpdate:u32ClkSrc <- $r1
	cmp	r1, #1
	bne	.LBB9_7
.Ltmp130:
@ %bb.6:
	@DEBUG_VALUE: CLK_SystemClockUpdate:u32ClkSrc <- $r1
	.loc	9 0 9 is_stmt 0                 @ ../../../../Library/StdDriver/src/clk.c:0:9
	movw	r0, #16960
	movt	r0, #15
.Ltmp131:
	@DEBUG_VALUE: CLK_SystemClockUpdate:SystemClock <- 1000000
	b	.LBB9_8
.Ltmp132:
.LBB9_7:
	@DEBUG_VALUE: CLK_SystemClockUpdate:u32ClkSrc <- $r1
	.loc	9 1840 23 is_stmt 1             @ ../../../../Library/StdDriver/src/clk.c:1840:23
	movw	r0, :lower16:.L__const.CLK_SystemClockUpdate.gau32ClkSrcTbl
	movt	r0, :upper16:.L__const.CLK_SystemClockUpdate.gau32ClkSrcTbl
	ldr.w	r0, [r0, r1, lsl #2]
.Ltmp133:
	@DEBUG_VALUE: CLK_SystemClockUpdate:SystemClock <- $r0
.LBB9_8:
	@DEBUG_VALUE: CLK_GetHCLK0Freq:u32Hclk0 <- $r0
	@DEBUG_VALUE: CLK_GetPCLK3Freq:u32Hclk3Freq <- $r0
	.loc	9 0 23 is_stmt 0                @ ../../../../Library/StdDriver/src/clk.c:0:23
	movw	r1, #5388
	movt	r1, #16384
	.loc	9 271 38 is_stmt 1              @ ../../../../Library/StdDriver/src/clk.c:271:38
	ldr	r1, [r1]
	.loc	9 271 74 is_stmt 0              @ ../../../../Library/StdDriver/src/clk.c:271:74
	ubfx	r1, r1, #12, #4
	.loc	9 271 103                       @ ../../../../Library/StdDriver/src/clk.c:271:103
	adds	r1, #1
	.loc	9 271 28                        @ ../../../../Library/StdDriver/src/clk.c:271:28
	udiv	r0, r0, r1
.Ltmp134:
	@DEBUG_VALUE: CLK_GetPCLK3Freq:u32Freq <- $r0
	.loc	9 273 5 epilogue_begin is_stmt 1 @ ../../../../Library/StdDriver/src/clk.c:273:5
	pop	{r4, pc}
.Ltmp135:
.Lfunc_end9:
	.size	CLK_GetPCLK3Freq, .Lfunc_end9-CLK_GetPCLK3Freq
	.cfi_endproc
	.cantunwind
	.fnend
                                        @ -- End function
	.section	.text.CLK_GetPCLK4Freq,"ax",%progbits
	.hidden	CLK_GetPCLK4Freq                @ -- Begin function CLK_GetPCLK4Freq
	.globl	CLK_GetPCLK4Freq
	.p2align	2
	.type	CLK_GetPCLK4Freq,%function
	.code	16                              @ @CLK_GetPCLK4Freq
	.thumb_func
CLK_GetPCLK4Freq:
.Lfunc_begin10:
	.loc	9 283 0                         @ ../../../../Library/StdDriver/src/clk.c:283:0
	.fnstart
	.cfi_startproc
@ %bb.0:
	.save	{r4, lr}
	push	{r4, lr}
	.cfi_def_cfa_offset 8
	.cfi_offset lr, -4
	.cfi_offset r4, -8
	movw	r0, #4096
	movt	r0, #16384
.Ltmp136:
	@DEBUG_VALUE: CLK_GetAPLL0ClockFreq:u32PllFreq <- 0
	.loc	9 1713 22 prologue_end          @ ../../../../Library/StdDriver/src/clk.c:1713:22
	ldr	r2, [r0, #24]
.Ltmp137:
	@DEBUG_VALUE: CLK_GetAPLL0ClockFreq:u32PllReg <- $r2
	.loc	9 1714 23                       @ ../../../../Library/StdDriver/src/clk.c:1714:23
	ldr	r1, [r0, #28]
.Ltmp138:
	@DEBUG_VALUE: CLK_GetAPLL0ClockFreq:u32PllReg1 <- $r1
	.loc	9 1716 16                       @ ../../../../Library/StdDriver/src/clk.c:1716:16
	ldr	r3, [r0]
.Ltmp139:
	.loc	9 1716 9 is_stmt 0              @ ../../../../Library/StdDriver/src/clk.c:1716:9
	lsls	r3, r3, #25
	bmi	.LBB10_2
.Ltmp140:
@ %bb.1:
	@DEBUG_VALUE: CLK_GetAPLL0ClockFreq:u32PllReg1 <- $r1
	@DEBUG_VALUE: CLK_GetAPLL0ClockFreq:u32PllReg <- $r2
	@DEBUG_VALUE: CLK_GetAPLL0ClockFreq:u32PllFreq <- 0
	.loc	9 0 9                           @ ../../../../Library/StdDriver/src/clk.c:0:9
	movs	r1, #0
.Ltmp141:
	b	.LBB10_4
.Ltmp142:
.LBB10_2:
	@DEBUG_VALUE: CLK_GetAPLL0ClockFreq:u32PllReg1 <- $r1
	@DEBUG_VALUE: CLK_GetAPLL0ClockFreq:u32PllReg <- $r2
	@DEBUG_VALUE: CLK_GetAPLL0ClockFreq:u32PllFreq <- 0
	.loc	9 1723 13 is_stmt 1             @ ../../../../Library/StdDriver/src/clk.c:1723:13
	lsls	r1, r1, #30
.Ltmp143:
	.loc	9 0 13 is_stmt 0                @ ../../../../Library/StdDriver/src/clk.c:0:13
	movw	r1, #6912
	movt	r1, #183
	.loc	9 1723 13                       @ ../../../../Library/StdDriver/src/clk.c:1723:13
	itt	eq
	movweq	r1, #13824
	movteq	r1, #366
.Ltmp144:
	@DEBUG_VALUE: CLK_GetAPLL0ClockFreq:u32FIN <- $r1
	.loc	9 1737 13 is_stmt 1             @ ../../../../Library/StdDriver/src/clk.c:1737:13
	lsls	r3, r2, #1
	bmi	.LBB10_4
.Ltmp145:
@ %bb.3:
	@DEBUG_VALUE: CLK_GetAPLL0ClockFreq:u32FIN <- $r1
	@DEBUG_VALUE: CLK_GetAPLL0ClockFreq:u32PllReg <- $r2
	@DEBUG_VALUE: CLK_GetAPLL0ClockFreq:u32PllFreq <- 0
	.loc	9 0 13 is_stmt 0                @ ../../../../Library/StdDriver/src/clk.c:0:13
	movw	r3, #1022
.Ltmp146:
	.loc	9 1749 36 is_stmt 1             @ ../../../../Library/StdDriver/src/clk.c:1749:36
	lsrs	r1, r1, #2
.Ltmp147:
	.loc	9 1744 69                       @ ../../../../Library/StdDriver/src/clk.c:1744:69
	ubfx	r12, r2, #14, #2
	.loc	9 1749 51                       @ ../../../../Library/StdDriver/src/clk.c:1749:51
	and.w	r4, r3, r2, lsl #1
	.loc	9 1744 21                       @ ../../../../Library/StdDriver/src/clk.c:1744:21
	movw	r3, :lower16:.L__const.CLK_GetAPLL1ClockFreq.au8NoTbl
	.loc	9 1746 59                       @ ../../../../Library/StdDriver/src/clk.c:1746:59
	ubfx	lr, r2, #9, #5
	.loc	9 1744 21                       @ ../../../../Library/StdDriver/src/clk.c:1744:21
	movt	r3, :upper16:.L__const.CLK_GetAPLL1ClockFreq.au8NoTbl
	.loc	9 1749 51                       @ ../../../../Library/StdDriver/src/clk.c:1749:51
	adds	r4, #4
	.loc	9 1744 21                       @ ../../../../Library/StdDriver/src/clk.c:1744:21
	ldrb.w	r3, [r3, r12]
.Ltmp148:
	@DEBUG_VALUE: CLK_GetAPLL0ClockFreq:u32NO <- $r3
	@DEBUG_VALUE: CLK_GetAPLL0ClockFreq:u32NF <- [DW_OP_constu 511, DW_OP_and, DW_OP_plus_uconst 2, DW_OP_stack_value] undef
	.loc	9 1746 86                       @ ../../../../Library/StdDriver/src/clk.c:1746:86
	add.w	r2, lr, #1
.Ltmp149:
	@DEBUG_VALUE: CLK_GetAPLL0ClockFreq:u32NR <- $r2
	.loc	9 1749 42                       @ ../../../../Library/StdDriver/src/clk.c:1749:42
	muls	r1, r4, r1
	.loc	9 1749 67 is_stmt 0             @ ../../../../Library/StdDriver/src/clk.c:1749:67
	muls	r2, r3, r2
.Ltmp150:
	.loc	9 1749 58                       @ ../../../../Library/StdDriver/src/clk.c:1749:58
	udiv	r1, r1, r2
	.loc	9 1749 76                       @ ../../../../Library/StdDriver/src/clk.c:1749:76
	lsls	r1, r1, #2
.Ltmp151:
	@DEBUG_VALUE: CLK_GetAPLL0ClockFreq:u32PllFreq <- $r1
.LBB10_4:
	.loc	9 1823 14 is_stmt 1             @ ../../../../Library/StdDriver/src/clk.c:1823:14
	movw	r2, :lower16:PllClock
	movt	r2, :upper16:PllClock
	str	r1, [r2]
	.loc	9 1825 22                       @ ../../../../Library/StdDriver/src/clk.c:1825:22
	ldr.w	r2, [r0, #1024]
	.loc	9 1825 30 is_stmt 0             @ ../../../../Library/StdDriver/src/clk.c:1825:30
	and	r2, r2, #7
.Ltmp152:
	@DEBUG_VALUE: CLK_SystemClockUpdate:u32ClkSrc <- $r2
	.loc	9 1827 9 is_stmt 1              @ ../../../../Library/StdDriver/src/clk.c:1827:9
	cmp	r2, #4
	beq	.LBB10_8
.Ltmp153:
@ %bb.5:
	@DEBUG_VALUE: CLK_SystemClockUpdate:u32ClkSrc <- $r2
	cmp	r2, #1
	bne	.LBB10_7
.Ltmp154:
@ %bb.6:
	@DEBUG_VALUE: CLK_SystemClockUpdate:u32ClkSrc <- $r2
	.loc	9 0 9 is_stmt 0                 @ ../../../../Library/StdDriver/src/clk.c:0:9
	movw	r1, #16960
	movt	r1, #15
.Ltmp155:
	@DEBUG_VALUE: CLK_SystemClockUpdate:SystemClock <- 1000000
	b	.LBB10_8
.Ltmp156:
.LBB10_7:
	@DEBUG_VALUE: CLK_SystemClockUpdate:u32ClkSrc <- $r2
	.loc	9 1840 23 is_stmt 1             @ ../../../../Library/StdDriver/src/clk.c:1840:23
	movw	r1, :lower16:.L__const.CLK_SystemClockUpdate.gau32ClkSrcTbl
	movt	r1, :upper16:.L__const.CLK_SystemClockUpdate.gau32ClkSrcTbl
	ldr.w	r1, [r1, r2, lsl #2]
.Ltmp157:
	@DEBUG_VALUE: CLK_SystemClockUpdate:SystemClock <- $r1
.LBB10_8:
	@DEBUG_VALUE: CLK_GetHCLK2Freq:u32SclkFreq <- $r1
	.loc	9 377 26                        @ ../../../../Library/StdDriver/src/clk.c:377:26
	ldr.w	r0, [r0, #1288]
	movw	r2, #5388
	movt	r2, #16384
	.loc	9 377 62 is_stmt 0              @ ../../../../Library/StdDriver/src/clk.c:377:62
	ubfx	r0, r0, #8, #4
.Ltmp158:
	.loc	9 288 38 is_stmt 1              @ ../../../../Library/StdDriver/src/clk.c:288:38
	ldr	r2, [r2]
.Ltmp159:
	.loc	9 377 91                        @ ../../../../Library/StdDriver/src/clk.c:377:91
	adds	r0, #1
.Ltmp160:
	@DEBUG_VALUE: CLK_GetHCLK2Freq:u32Hclk2Div <- $r0
	.loc	9 288 74                        @ ../../../../Library/StdDriver/src/clk.c:288:74
	ubfx	r2, r2, #16, #4
.Ltmp161:
	.loc	9 380 28                        @ ../../../../Library/StdDriver/src/clk.c:380:28
	udiv	r0, r1, r0
.Ltmp162:
	@DEBUG_VALUE: CLK_GetPCLK4Freq:u32Hclk4Freq <- $r0
	@DEBUG_VALUE: CLK_GetHCLK2Freq:u32Hclk2 <- $r0
	@DEBUG_VALUE: CLK_GetHCLK2Freq:u32Hclk2Div <- $r0
	.loc	9 288 103                       @ ../../../../Library/StdDriver/src/clk.c:288:103
	adds	r1, r2, #1
.Ltmp163:
	.loc	9 288 28 is_stmt 0              @ ../../../../Library/StdDriver/src/clk.c:288:28
	udiv	r0, r0, r1
.Ltmp164:
	@DEBUG_VALUE: CLK_GetPCLK4Freq:u32Freq <- $r0
	.loc	9 290 5 epilogue_begin is_stmt 1 @ ../../../../Library/StdDriver/src/clk.c:290:5
	pop	{r4, pc}
.Ltmp165:
.Lfunc_end10:
	.size	CLK_GetPCLK4Freq, .Lfunc_end10-CLK_GetPCLK4Freq
	.cfi_endproc
	.cantunwind
	.fnend
                                        @ -- End function
	.section	.text.CLK_GetHCLK2Freq,"ax",%progbits
	.hidden	CLK_GetHCLK2Freq                @ -- Begin function CLK_GetHCLK2Freq
	.globl	CLK_GetHCLK2Freq
	.p2align	2
	.type	CLK_GetHCLK2Freq,%function
	.code	16                              @ @CLK_GetHCLK2Freq
	.thumb_func
CLK_GetHCLK2Freq:
.Lfunc_begin11:
	.loc	9 371 0                         @ ../../../../Library/StdDriver/src/clk.c:371:0
	.fnstart
	.cfi_startproc
@ %bb.0:
	.save	{r4, lr}
	push	{r4, lr}
	.cfi_def_cfa_offset 8
	.cfi_offset lr, -4
	.cfi_offset r4, -8
	movw	r0, #4096
	movt	r0, #16384
.Ltmp166:
	@DEBUG_VALUE: CLK_GetAPLL0ClockFreq:u32PllFreq <- 0
	.loc	9 1713 22 prologue_end          @ ../../../../Library/StdDriver/src/clk.c:1713:22
	ldr	r2, [r0, #24]
.Ltmp167:
	@DEBUG_VALUE: CLK_GetAPLL0ClockFreq:u32PllReg <- $r2
	.loc	9 1714 23                       @ ../../../../Library/StdDriver/src/clk.c:1714:23
	ldr	r1, [r0, #28]
.Ltmp168:
	@DEBUG_VALUE: CLK_GetAPLL0ClockFreq:u32PllReg1 <- $r1
	.loc	9 1716 16                       @ ../../../../Library/StdDriver/src/clk.c:1716:16
	ldr	r3, [r0]
.Ltmp169:
	.loc	9 1716 9 is_stmt 0              @ ../../../../Library/StdDriver/src/clk.c:1716:9
	lsls	r3, r3, #25
	bmi	.LBB11_2
.Ltmp170:
@ %bb.1:
	@DEBUG_VALUE: CLK_GetAPLL0ClockFreq:u32PllReg1 <- $r1
	@DEBUG_VALUE: CLK_GetAPLL0ClockFreq:u32PllReg <- $r2
	@DEBUG_VALUE: CLK_GetAPLL0ClockFreq:u32PllFreq <- 0
	.loc	9 0 9                           @ ../../../../Library/StdDriver/src/clk.c:0:9
	movs	r1, #0
.Ltmp171:
	b	.LBB11_4
.Ltmp172:
.LBB11_2:
	@DEBUG_VALUE: CLK_GetAPLL0ClockFreq:u32PllReg1 <- $r1
	@DEBUG_VALUE: CLK_GetAPLL0ClockFreq:u32PllReg <- $r2
	@DEBUG_VALUE: CLK_GetAPLL0ClockFreq:u32PllFreq <- 0
	.loc	9 1723 13 is_stmt 1             @ ../../../../Library/StdDriver/src/clk.c:1723:13
	lsls	r1, r1, #30
.Ltmp173:
	.loc	9 0 13 is_stmt 0                @ ../../../../Library/StdDriver/src/clk.c:0:13
	movw	r1, #6912
	movt	r1, #183
	.loc	9 1723 13                       @ ../../../../Library/StdDriver/src/clk.c:1723:13
	itt	eq
	movweq	r1, #13824
	movteq	r1, #366
.Ltmp174:
	@DEBUG_VALUE: CLK_GetAPLL0ClockFreq:u32FIN <- $r1
	.loc	9 1737 13 is_stmt 1             @ ../../../../Library/StdDriver/src/clk.c:1737:13
	lsls	r3, r2, #1
	bmi	.LBB11_4
.Ltmp175:
@ %bb.3:
	@DEBUG_VALUE: CLK_GetAPLL0ClockFreq:u32FIN <- $r1
	@DEBUG_VALUE: CLK_GetAPLL0ClockFreq:u32PllReg <- $r2
	@DEBUG_VALUE: CLK_GetAPLL0ClockFreq:u32PllFreq <- 0
	.loc	9 0 13 is_stmt 0                @ ../../../../Library/StdDriver/src/clk.c:0:13
	movw	r3, #1022
.Ltmp176:
	.loc	9 1749 36 is_stmt 1             @ ../../../../Library/StdDriver/src/clk.c:1749:36
	lsrs	r1, r1, #2
.Ltmp177:
	.loc	9 1744 69                       @ ../../../../Library/StdDriver/src/clk.c:1744:69
	ubfx	r12, r2, #14, #2
	.loc	9 1749 51                       @ ../../../../Library/StdDriver/src/clk.c:1749:51
	and.w	r4, r3, r2, lsl #1
	.loc	9 1744 21                       @ ../../../../Library/StdDriver/src/clk.c:1744:21
	movw	r3, :lower16:.L__const.CLK_GetAPLL1ClockFreq.au8NoTbl
	.loc	9 1746 59                       @ ../../../../Library/StdDriver/src/clk.c:1746:59
	ubfx	lr, r2, #9, #5
	.loc	9 1744 21                       @ ../../../../Library/StdDriver/src/clk.c:1744:21
	movt	r3, :upper16:.L__const.CLK_GetAPLL1ClockFreq.au8NoTbl
	.loc	9 1749 51                       @ ../../../../Library/StdDriver/src/clk.c:1749:51
	adds	r4, #4
	.loc	9 1744 21                       @ ../../../../Library/StdDriver/src/clk.c:1744:21
	ldrb.w	r3, [r3, r12]
.Ltmp178:
	@DEBUG_VALUE: CLK_GetAPLL0ClockFreq:u32NO <- $r3
	@DEBUG_VALUE: CLK_GetAPLL0ClockFreq:u32NF <- [DW_OP_constu 511, DW_OP_and, DW_OP_plus_uconst 2, DW_OP_stack_value] undef
	.loc	9 1746 86                       @ ../../../../Library/StdDriver/src/clk.c:1746:86
	add.w	r2, lr, #1
.Ltmp179:
	@DEBUG_VALUE: CLK_GetAPLL0ClockFreq:u32NR <- $r2
	.loc	9 1749 42                       @ ../../../../Library/StdDriver/src/clk.c:1749:42
	muls	r1, r4, r1
	.loc	9 1749 67 is_stmt 0             @ ../../../../Library/StdDriver/src/clk.c:1749:67
	muls	r2, r3, r2
.Ltmp180:
	.loc	9 1749 58                       @ ../../../../Library/StdDriver/src/clk.c:1749:58
	udiv	r1, r1, r2
	.loc	9 1749 76                       @ ../../../../Library/StdDriver/src/clk.c:1749:76
	lsls	r1, r1, #2
.Ltmp181:
	@DEBUG_VALUE: CLK_GetAPLL0ClockFreq:u32PllFreq <- $r1
.LBB11_4:
	.loc	9 1823 14 is_stmt 1             @ ../../../../Library/StdDriver/src/clk.c:1823:14
	movw	r2, :lower16:PllClock
	movt	r2, :upper16:PllClock
	str	r1, [r2]
	.loc	9 1825 22                       @ ../../../../Library/StdDriver/src/clk.c:1825:22
	ldr.w	r2, [r0, #1024]
	.loc	9 1825 30 is_stmt 0             @ ../../../../Library/StdDriver/src/clk.c:1825:30
	and	r2, r2, #7
.Ltmp182:
	@DEBUG_VALUE: CLK_SystemClockUpdate:u32ClkSrc <- $r2
	.loc	9 1827 9 is_stmt 1              @ ../../../../Library/StdDriver/src/clk.c:1827:9
	cmp	r2, #4
	beq	.LBB11_8
.Ltmp183:
@ %bb.5:
	@DEBUG_VALUE: CLK_SystemClockUpdate:u32ClkSrc <- $r2
	cmp	r2, #1
	bne	.LBB11_7
.Ltmp184:
@ %bb.6:
	@DEBUG_VALUE: CLK_SystemClockUpdate:u32ClkSrc <- $r2
	.loc	9 0 9 is_stmt 0                 @ ../../../../Library/StdDriver/src/clk.c:0:9
	movw	r1, #16960
	movt	r1, #15
.Ltmp185:
	@DEBUG_VALUE: CLK_SystemClockUpdate:SystemClock <- 1000000
	b	.LBB11_8
.Ltmp186:
.LBB11_7:
	@DEBUG_VALUE: CLK_SystemClockUpdate:u32ClkSrc <- $r2
	.loc	9 1840 23 is_stmt 1             @ ../../../../Library/StdDriver/src/clk.c:1840:23
	movw	r1, :lower16:.L__const.CLK_SystemClockUpdate.gau32ClkSrcTbl
	movt	r1, :upper16:.L__const.CLK_SystemClockUpdate.gau32ClkSrcTbl
	ldr.w	r1, [r1, r2, lsl #2]
.Ltmp187:
	@DEBUG_VALUE: CLK_SystemClockUpdate:SystemClock <- $r1
.LBB11_8:
	@DEBUG_VALUE: CLK_GetHCLK2Freq:u32SclkFreq <- $r1
	.loc	9 377 26                        @ ../../../../Library/StdDriver/src/clk.c:377:26
	ldr.w	r0, [r0, #1288]
	.loc	9 377 62 is_stmt 0              @ ../../../../Library/StdDriver/src/clk.c:377:62
	ubfx	r0, r0, #8, #4
	.loc	9 377 91                        @ ../../../../Library/StdDriver/src/clk.c:377:91
	adds	r0, #1
.Ltmp188:
	@DEBUG_VALUE: CLK_GetHCLK2Freq:u32Hclk2Div <- $r0
	.loc	9 380 28 is_stmt 1              @ ../../../../Library/StdDriver/src/clk.c:380:28
	udiv	r0, r1, r0
.Ltmp189:
	@DEBUG_VALUE: CLK_GetHCLK2Freq:u32Hclk2 <- $r0
	.loc	9 382 5 epilogue_begin          @ ../../../../Library/StdDriver/src/clk.c:382:5
	pop	{r4, pc}
.Ltmp190:
.Lfunc_end11:
	.size	CLK_GetHCLK2Freq, .Lfunc_end11-CLK_GetHCLK2Freq
	.cfi_endproc
	.cantunwind
	.fnend
                                        @ -- End function
	.section	.text.CLK_GetPCLK5Freq,"ax",%progbits
	.hidden	CLK_GetPCLK5Freq                @ -- Begin function CLK_GetPCLK5Freq
	.globl	CLK_GetPCLK5Freq
	.p2align	2
	.type	CLK_GetPCLK5Freq,%function
	.code	16                              @ @CLK_GetPCLK5Freq
	.thumb_func
CLK_GetPCLK5Freq:
.Lfunc_begin12:
	.loc	9 300 0                         @ ../../../../Library/StdDriver/src/clk.c:300:0
	.fnstart
	.cfi_startproc
@ %bb.0:
	.save	{r7, lr}
	push	{r7, lr}
	.cfi_def_cfa_offset 8
	.cfi_offset lr, -4
	.cfi_offset r7, -8
.Ltmp191:
	.loc	9 329 5 prologue_end            @ ../../../../Library/StdDriver/src/clk.c:329:5
	bl	SystemCoreClockUpdate
.Ltmp192:
	.loc	9 331 12                        @ ../../../../Library/StdDriver/src/clk.c:331:12
	movw	r0, :lower16:SystemCoreClock
	movt	r0, :upper16:SystemCoreClock
	ldr	r0, [r0]
.Ltmp193:
	@DEBUG_VALUE: CLK_GetPCLK5Freq:u32Freq <- $r0
	.loc	9 305 5 epilogue_begin          @ ../../../../Library/StdDriver/src/clk.c:305:5
	pop	{r7, pc}
.Ltmp194:
.Lfunc_end12:
	.size	CLK_GetPCLK5Freq, .Lfunc_end12-CLK_GetPCLK5Freq
	.cfi_endproc
	.cantunwind
	.fnend
                                        @ -- End function
	.section	.text.CLK_GetACLKFreq,"ax",%progbits
	.hidden	CLK_GetACLKFreq                 @ -- Begin function CLK_GetACLKFreq
	.globl	CLK_GetACLKFreq
	.p2align	2
	.type	CLK_GetACLKFreq,%function
	.code	16                              @ @CLK_GetACLKFreq
	.thumb_func
CLK_GetACLKFreq:
.Lfunc_begin13:
	.loc	9 328 0                         @ ../../../../Library/StdDriver/src/clk.c:328:0
	.fnstart
	.cfi_startproc
@ %bb.0:
	.save	{r7, lr}
	push	{r7, lr}
	.cfi_def_cfa_offset 8
	.cfi_offset lr, -4
	.cfi_offset r7, -8
.Ltmp195:
	.loc	9 329 5 prologue_end            @ ../../../../Library/StdDriver/src/clk.c:329:5
	bl	SystemCoreClockUpdate
.Ltmp196:
	.loc	9 331 12                        @ ../../../../Library/StdDriver/src/clk.c:331:12
	movw	r0, :lower16:SystemCoreClock
	movt	r0, :upper16:SystemCoreClock
	ldr	r0, [r0]
	.loc	9 331 5 epilogue_begin is_stmt 0 @ ../../../../Library/StdDriver/src/clk.c:331:5
	pop	{r7, pc}
.Ltmp197:
.Lfunc_end13:
	.size	CLK_GetACLKFreq, .Lfunc_end13-CLK_GetACLKFreq
	.cfi_endproc
	.cantunwind
	.fnend
                                        @ -- End function
	.section	.text.CLK_GetSCLKFreq,"ax",%progbits
	.hidden	CLK_GetSCLKFreq                 @ -- Begin function CLK_GetSCLKFreq
	.globl	CLK_GetSCLKFreq
	.p2align	2
	.type	CLK_GetSCLKFreq,%function
	.code	16                              @ @CLK_GetSCLKFreq
	.thumb_func
CLK_GetSCLKFreq:
.Lfunc_begin14:
	.loc	9 315 0 is_stmt 1               @ ../../../../Library/StdDriver/src/clk.c:315:0
	.fnstart
	.cfi_startproc
@ %bb.0:
	.save	{r4, lr}
	push	{r4, lr}
	.cfi_def_cfa_offset 8
	.cfi_offset lr, -4
	.cfi_offset r4, -8
	movw	r0, #4096
	movt	r0, #16384
.Ltmp198:
	@DEBUG_VALUE: CLK_GetAPLL0ClockFreq:u32PllFreq <- 0
	.loc	9 1713 22 prologue_end          @ ../../../../Library/StdDriver/src/clk.c:1713:22
	ldr	r2, [r0, #24]
.Ltmp199:
	@DEBUG_VALUE: CLK_GetAPLL0ClockFreq:u32PllReg <- $r2
	.loc	9 1714 23                       @ ../../../../Library/StdDriver/src/clk.c:1714:23
	ldr	r1, [r0, #28]
.Ltmp200:
	@DEBUG_VALUE: CLK_GetAPLL0ClockFreq:u32PllReg1 <- $r1
	.loc	9 1716 16                       @ ../../../../Library/StdDriver/src/clk.c:1716:16
	ldr	r3, [r0]
.Ltmp201:
	.loc	9 1716 9 is_stmt 0              @ ../../../../Library/StdDriver/src/clk.c:1716:9
	lsls	r3, r3, #25
	bmi	.LBB14_2
.Ltmp202:
@ %bb.1:
	@DEBUG_VALUE: CLK_GetAPLL0ClockFreq:u32PllReg1 <- $r1
	@DEBUG_VALUE: CLK_GetAPLL0ClockFreq:u32PllReg <- $r2
	@DEBUG_VALUE: CLK_GetAPLL0ClockFreq:u32PllFreq <- 0
	.loc	9 0 9                           @ ../../../../Library/StdDriver/src/clk.c:0:9
	movs	r1, #0
.Ltmp203:
	b	.LBB14_4
.Ltmp204:
.LBB14_2:
	@DEBUG_VALUE: CLK_GetAPLL0ClockFreq:u32PllReg1 <- $r1
	@DEBUG_VALUE: CLK_GetAPLL0ClockFreq:u32PllReg <- $r2
	@DEBUG_VALUE: CLK_GetAPLL0ClockFreq:u32PllFreq <- 0
	.loc	9 1723 13 is_stmt 1             @ ../../../../Library/StdDriver/src/clk.c:1723:13
	lsls	r1, r1, #30
.Ltmp205:
	.loc	9 0 13 is_stmt 0                @ ../../../../Library/StdDriver/src/clk.c:0:13
	movw	r1, #6912
	movt	r1, #183
	.loc	9 1723 13                       @ ../../../../Library/StdDriver/src/clk.c:1723:13
	itt	eq
	movweq	r1, #13824
	movteq	r1, #366
.Ltmp206:
	@DEBUG_VALUE: CLK_GetAPLL0ClockFreq:u32FIN <- $r1
	.loc	9 1737 13 is_stmt 1             @ ../../../../Library/StdDriver/src/clk.c:1737:13
	lsls	r3, r2, #1
	bmi	.LBB14_4
.Ltmp207:
@ %bb.3:
	@DEBUG_VALUE: CLK_GetAPLL0ClockFreq:u32FIN <- $r1
	@DEBUG_VALUE: CLK_GetAPLL0ClockFreq:u32PllReg <- $r2
	@DEBUG_VALUE: CLK_GetAPLL0ClockFreq:u32PllFreq <- 0
	.loc	9 0 13 is_stmt 0                @ ../../../../Library/StdDriver/src/clk.c:0:13
	movw	r3, #1022
.Ltmp208:
	.loc	9 1749 36 is_stmt 1             @ ../../../../Library/StdDriver/src/clk.c:1749:36
	lsrs	r1, r1, #2
.Ltmp209:
	.loc	9 1744 69                       @ ../../../../Library/StdDriver/src/clk.c:1744:69
	ubfx	r12, r2, #14, #2
	.loc	9 1749 51                       @ ../../../../Library/StdDriver/src/clk.c:1749:51
	and.w	r4, r3, r2, lsl #1
	.loc	9 1744 21                       @ ../../../../Library/StdDriver/src/clk.c:1744:21
	movw	r3, :lower16:.L__const.CLK_GetAPLL1ClockFreq.au8NoTbl
	.loc	9 1746 59                       @ ../../../../Library/StdDriver/src/clk.c:1746:59
	ubfx	lr, r2, #9, #5
	.loc	9 1744 21                       @ ../../../../Library/StdDriver/src/clk.c:1744:21
	movt	r3, :upper16:.L__const.CLK_GetAPLL1ClockFreq.au8NoTbl
	.loc	9 1749 51                       @ ../../../../Library/StdDriver/src/clk.c:1749:51
	adds	r4, #4
	.loc	9 1744 21                       @ ../../../../Library/StdDriver/src/clk.c:1744:21
	ldrb.w	r3, [r3, r12]
.Ltmp210:
	@DEBUG_VALUE: CLK_GetAPLL0ClockFreq:u32NO <- $r3
	@DEBUG_VALUE: CLK_GetAPLL0ClockFreq:u32NF <- [DW_OP_constu 511, DW_OP_and, DW_OP_plus_uconst 2, DW_OP_stack_value] undef
	.loc	9 1746 86                       @ ../../../../Library/StdDriver/src/clk.c:1746:86
	add.w	r2, lr, #1
.Ltmp211:
	@DEBUG_VALUE: CLK_GetAPLL0ClockFreq:u32NR <- $r2
	.loc	9 1749 42                       @ ../../../../Library/StdDriver/src/clk.c:1749:42
	muls	r1, r4, r1
	.loc	9 1749 67 is_stmt 0             @ ../../../../Library/StdDriver/src/clk.c:1749:67
	muls	r2, r3, r2
.Ltmp212:
	.loc	9 1749 58                       @ ../../../../Library/StdDriver/src/clk.c:1749:58
	udiv	r1, r1, r2
	.loc	9 1749 76                       @ ../../../../Library/StdDriver/src/clk.c:1749:76
	lsls	r1, r1, #2
.Ltmp213:
	@DEBUG_VALUE: CLK_GetAPLL0ClockFreq:u32PllFreq <- $r1
.LBB14_4:
	.loc	9 1823 14 is_stmt 1             @ ../../../../Library/StdDriver/src/clk.c:1823:14
	movw	r2, :lower16:PllClock
	movt	r2, :upper16:PllClock
	str	r1, [r2]
	.loc	9 1825 22                       @ ../../../../Library/StdDriver/src/clk.c:1825:22
	ldr.w	r0, [r0, #1024]
.Ltmp214:
	@DEBUG_VALUE: CLK_SystemClockUpdate:SystemClock <- undef
	@DEBUG_VALUE: CLK_SystemClockUpdate:u32ClkSrc <- [DW_OP_constu 7, DW_OP_and, DW_OP_stack_value] $r0
	.loc	9 318 12                        @ ../../../../Library/StdDriver/src/clk.c:318:12
	movw	r0, :lower16:SystemCoreClock
	movt	r0, :upper16:SystemCoreClock
	ldr	r0, [r0]
	.loc	9 318 5 epilogue_begin is_stmt 0 @ ../../../../Library/StdDriver/src/clk.c:318:5
	pop	{r4, pc}
.Ltmp215:
.Lfunc_end14:
	.size	CLK_GetSCLKFreq, .Lfunc_end14-CLK_GetSCLKFreq
	.cfi_endproc
	.cantunwind
	.fnend
                                        @ -- End function
	.section	.text.CLK_SystemClockUpdate,"ax",%progbits
	.hidden	CLK_SystemClockUpdate           @ -- Begin function CLK_SystemClockUpdate
	.globl	CLK_SystemClockUpdate
	.p2align	2
	.type	CLK_SystemClockUpdate,%function
	.code	16                              @ @CLK_SystemClockUpdate
	.thumb_func
CLK_SystemClockUpdate:
.Lfunc_begin15:
	.loc	9 1818 0 is_stmt 1              @ ../../../../Library/StdDriver/src/clk.c:1818:0
	.fnstart
	.cfi_startproc
@ %bb.0:
	.save	{r4, lr}
	push	{r4, lr}
	.cfi_def_cfa_offset 8
	.cfi_offset lr, -4
	.cfi_offset r4, -8
	movw	r1, #4096
	movt	r1, #16384
.Ltmp216:
	@DEBUG_VALUE: CLK_GetAPLL0ClockFreq:u32PllFreq <- 0
	.loc	9 1713 22 prologue_end          @ ../../../../Library/StdDriver/src/clk.c:1713:22
	ldr	r2, [r1, #24]
.Ltmp217:
	@DEBUG_VALUE: CLK_GetAPLL0ClockFreq:u32PllReg <- $r2
	.loc	9 1714 23                       @ ../../../../Library/StdDriver/src/clk.c:1714:23
	ldr	r0, [r1, #28]
.Ltmp218:
	@DEBUG_VALUE: CLK_GetAPLL0ClockFreq:u32PllReg1 <- $r0
	.loc	9 1716 16                       @ ../../../../Library/StdDriver/src/clk.c:1716:16
	ldr	r3, [r1]
.Ltmp219:
	.loc	9 1716 9 is_stmt 0              @ ../../../../Library/StdDriver/src/clk.c:1716:9
	lsls	r3, r3, #25
	bmi	.LBB15_2
.Ltmp220:
@ %bb.1:
	@DEBUG_VALUE: CLK_GetAPLL0ClockFreq:u32PllReg1 <- $r0
	@DEBUG_VALUE: CLK_GetAPLL0ClockFreq:u32PllReg <- $r2
	@DEBUG_VALUE: CLK_GetAPLL0ClockFreq:u32PllFreq <- 0
	.loc	9 0 9                           @ ../../../../Library/StdDriver/src/clk.c:0:9
	movs	r0, #0
.Ltmp221:
	b	.LBB15_4
.Ltmp222:
.LBB15_2:
	@DEBUG_VALUE: CLK_GetAPLL0ClockFreq:u32PllReg1 <- $r0
	@DEBUG_VALUE: CLK_GetAPLL0ClockFreq:u32PllReg <- $r2
	@DEBUG_VALUE: CLK_GetAPLL0ClockFreq:u32PllFreq <- 0
	.loc	9 1723 13 is_stmt 1             @ ../../../../Library/StdDriver/src/clk.c:1723:13
	lsls	r0, r0, #30
.Ltmp223:
	.loc	9 0 13 is_stmt 0                @ ../../../../Library/StdDriver/src/clk.c:0:13
	movw	r0, #6912
	movt	r0, #183
	.loc	9 1723 13                       @ ../../../../Library/StdDriver/src/clk.c:1723:13
	itt	eq
	movweq	r0, #13824
	movteq	r0, #366
.Ltmp224:
	@DEBUG_VALUE: CLK_GetAPLL0ClockFreq:u32FIN <- $r0
	.loc	9 1737 13 is_stmt 1             @ ../../../../Library/StdDriver/src/clk.c:1737:13
	lsls	r3, r2, #1
	bmi	.LBB15_4
.Ltmp225:
@ %bb.3:
	@DEBUG_VALUE: CLK_GetAPLL0ClockFreq:u32FIN <- $r0
	@DEBUG_VALUE: CLK_GetAPLL0ClockFreq:u32PllReg <- $r2
	@DEBUG_VALUE: CLK_GetAPLL0ClockFreq:u32PllFreq <- 0
	.loc	9 0 13 is_stmt 0                @ ../../../../Library/StdDriver/src/clk.c:0:13
	movw	r3, #1022
.Ltmp226:
	.loc	9 1749 36 is_stmt 1             @ ../../../../Library/StdDriver/src/clk.c:1749:36
	lsrs	r0, r0, #2
.Ltmp227:
	.loc	9 1744 69                       @ ../../../../Library/StdDriver/src/clk.c:1744:69
	ubfx	r12, r2, #14, #2
	.loc	9 1749 51                       @ ../../../../Library/StdDriver/src/clk.c:1749:51
	and.w	r4, r3, r2, lsl #1
	.loc	9 1744 21                       @ ../../../../Library/StdDriver/src/clk.c:1744:21
	movw	r3, :lower16:.L__const.CLK_GetAPLL1ClockFreq.au8NoTbl
	.loc	9 1746 59                       @ ../../../../Library/StdDriver/src/clk.c:1746:59
	ubfx	lr, r2, #9, #5
	.loc	9 1744 21                       @ ../../../../Library/StdDriver/src/clk.c:1744:21
	movt	r3, :upper16:.L__const.CLK_GetAPLL1ClockFreq.au8NoTbl
	.loc	9 1749 51                       @ ../../../../Library/StdDriver/src/clk.c:1749:51
	adds	r4, #4
	.loc	9 1744 21                       @ ../../../../Library/StdDriver/src/clk.c:1744:21
	ldrb.w	r3, [r3, r12]
.Ltmp228:
	@DEBUG_VALUE: CLK_GetAPLL0ClockFreq:u32NO <- $r3
	@DEBUG_VALUE: CLK_GetAPLL0ClockFreq:u32NF <- [DW_OP_constu 511, DW_OP_and, DW_OP_plus_uconst 2, DW_OP_stack_value] undef
	.loc	9 1746 86                       @ ../../../../Library/StdDriver/src/clk.c:1746:86
	add.w	r2, lr, #1
.Ltmp229:
	@DEBUG_VALUE: CLK_GetAPLL0ClockFreq:u32NR <- $r2
	.loc	9 1749 42                       @ ../../../../Library/StdDriver/src/clk.c:1749:42
	muls	r0, r4, r0
	.loc	9 1749 67 is_stmt 0             @ ../../../../Library/StdDriver/src/clk.c:1749:67
	muls	r2, r3, r2
.Ltmp230:
	.loc	9 1749 58                       @ ../../../../Library/StdDriver/src/clk.c:1749:58
	udiv	r0, r0, r2
	.loc	9 1749 76                       @ ../../../../Library/StdDriver/src/clk.c:1749:76
	lsls	r0, r0, #2
.Ltmp231:
	@DEBUG_VALUE: CLK_GetAPLL0ClockFreq:u32PllFreq <- $r0
.LBB15_4:
	.loc	9 1823 14 is_stmt 1             @ ../../../../Library/StdDriver/src/clk.c:1823:14
	movw	r2, :lower16:PllClock
	movt	r2, :upper16:PllClock
	str	r0, [r2]
	.loc	9 1825 22                       @ ../../../../Library/StdDriver/src/clk.c:1825:22
	ldr.w	r1, [r1, #1024]
	.loc	9 1825 30 is_stmt 0             @ ../../../../Library/StdDriver/src/clk.c:1825:30
	and	r1, r1, #7
.Ltmp232:
	@DEBUG_VALUE: CLK_SystemClockUpdate:u32ClkSrc <- $r1
	.loc	9 1827 9 is_stmt 1              @ ../../../../Library/StdDriver/src/clk.c:1827:9
	cmp	r1, #4
.Ltmp233:
	@DEBUG_VALUE: CLK_SystemClockUpdate:SystemClock <- $r0
	.loc	9 1843 5                        @ ../../../../Library/StdDriver/src/clk.c:1843:5
	it	eq
	.loc	9 1843 5 epilogue_begin is_stmt 0 @ ../../../../Library/StdDriver/src/clk.c:1843:5
	popeq	{r4, pc}
.Ltmp234:
.LBB15_5:
	@DEBUG_VALUE: CLK_SystemClockUpdate:SystemClock <- $r0
	@DEBUG_VALUE: CLK_SystemClockUpdate:u32ClkSrc <- $r1
	.loc	9 1827 9 is_stmt 1              @ ../../../../Library/StdDriver/src/clk.c:1827:9
	cmp	r1, #1
	bne	.LBB15_7
.Ltmp235:
@ %bb.6:
	@DEBUG_VALUE: CLK_SystemClockUpdate:SystemClock <- $r0
	@DEBUG_VALUE: CLK_SystemClockUpdate:u32ClkSrc <- $r1
	.loc	9 0 9 is_stmt 0                 @ ../../../../Library/StdDriver/src/clk.c:0:9
	movw	r0, #16960
.Ltmp236:
	movt	r0, #15
.Ltmp237:
	@DEBUG_VALUE: CLK_SystemClockUpdate:SystemClock <- 1000000
	@DEBUG_VALUE: CLK_SystemClockUpdate:SystemClock <- $r0
	.loc	9 1843 5 epilogue_begin is_stmt 1 @ ../../../../Library/StdDriver/src/clk.c:1843:5
	pop	{r4, pc}
.Ltmp238:
.LBB15_7:
	@DEBUG_VALUE: CLK_SystemClockUpdate:SystemClock <- $r0
	@DEBUG_VALUE: CLK_SystemClockUpdate:u32ClkSrc <- $r1
	.loc	9 1840 23                       @ ../../../../Library/StdDriver/src/clk.c:1840:23
	movw	r0, :lower16:.L__const.CLK_SystemClockUpdate.gau32ClkSrcTbl
.Ltmp239:
	movt	r0, :upper16:.L__const.CLK_SystemClockUpdate.gau32ClkSrcTbl
	ldr.w	r0, [r0, r1, lsl #2]
.Ltmp240:
	@DEBUG_VALUE: CLK_SystemClockUpdate:SystemClock <- $r0
	.loc	9 1843 5 epilogue_begin         @ ../../../../Library/StdDriver/src/clk.c:1843:5
	pop	{r4, pc}
.Ltmp241:
.Lfunc_end15:
	.size	CLK_SystemClockUpdate, .Lfunc_end15-CLK_SystemClockUpdate
	.cfi_endproc
	.cantunwind
	.fnend
                                        @ -- End function
	.section	.text.CLK_GetHCLK1Freq,"ax",%progbits
	.hidden	CLK_GetHCLK1Freq                @ -- Begin function CLK_GetHCLK1Freq
	.globl	CLK_GetHCLK1Freq
	.p2align	2
	.type	CLK_GetHCLK1Freq,%function
	.code	16                              @ @CLK_GetHCLK1Freq
	.thumb_func
CLK_GetHCLK1Freq:
.Lfunc_begin16:
	.loc	9 356 0                         @ ../../../../Library/StdDriver/src/clk.c:356:0
	.fnstart
	.cfi_startproc
@ %bb.0:
	.save	{r4, lr}
	push	{r4, lr}
	.cfi_def_cfa_offset 8
	.cfi_offset lr, -4
	.cfi_offset r4, -8
	movw	r1, #4096
	movt	r1, #16384
.Ltmp242:
	@DEBUG_VALUE: CLK_GetAPLL0ClockFreq:u32PllFreq <- 0
	.loc	9 1713 22 prologue_end          @ ../../../../Library/StdDriver/src/clk.c:1713:22
	ldr	r2, [r1, #24]
.Ltmp243:
	@DEBUG_VALUE: CLK_GetAPLL0ClockFreq:u32PllReg <- $r2
	.loc	9 1714 23                       @ ../../../../Library/StdDriver/src/clk.c:1714:23
	ldr	r0, [r1, #28]
.Ltmp244:
	@DEBUG_VALUE: CLK_GetAPLL0ClockFreq:u32PllReg1 <- $r0
	.loc	9 1716 16                       @ ../../../../Library/StdDriver/src/clk.c:1716:16
	ldr	r3, [r1]
.Ltmp245:
	.loc	9 1716 9 is_stmt 0              @ ../../../../Library/StdDriver/src/clk.c:1716:9
	lsls	r3, r3, #25
	bmi	.LBB16_2
.Ltmp246:
@ %bb.1:
	@DEBUG_VALUE: CLK_GetAPLL0ClockFreq:u32PllReg1 <- $r0
	@DEBUG_VALUE: CLK_GetAPLL0ClockFreq:u32PllReg <- $r2
	@DEBUG_VALUE: CLK_GetAPLL0ClockFreq:u32PllFreq <- 0
	.loc	9 0 9                           @ ../../../../Library/StdDriver/src/clk.c:0:9
	movs	r0, #0
.Ltmp247:
	b	.LBB16_4
.Ltmp248:
.LBB16_2:
	@DEBUG_VALUE: CLK_GetAPLL0ClockFreq:u32PllReg1 <- $r0
	@DEBUG_VALUE: CLK_GetAPLL0ClockFreq:u32PllReg <- $r2
	@DEBUG_VALUE: CLK_GetAPLL0ClockFreq:u32PllFreq <- 0
	.loc	9 1723 13 is_stmt 1             @ ../../../../Library/StdDriver/src/clk.c:1723:13
	lsls	r0, r0, #30
.Ltmp249:
	.loc	9 0 13 is_stmt 0                @ ../../../../Library/StdDriver/src/clk.c:0:13
	movw	r0, #6912
	movt	r0, #183
	.loc	9 1723 13                       @ ../../../../Library/StdDriver/src/clk.c:1723:13
	itt	eq
	movweq	r0, #13824
	movteq	r0, #366
.Ltmp250:
	@DEBUG_VALUE: CLK_GetAPLL0ClockFreq:u32FIN <- $r0
	.loc	9 1737 13 is_stmt 1             @ ../../../../Library/StdDriver/src/clk.c:1737:13
	lsls	r3, r2, #1
	bmi	.LBB16_4
.Ltmp251:
@ %bb.3:
	@DEBUG_VALUE: CLK_GetAPLL0ClockFreq:u32FIN <- $r0
	@DEBUG_VALUE: CLK_GetAPLL0ClockFreq:u32PllReg <- $r2
	@DEBUG_VALUE: CLK_GetAPLL0ClockFreq:u32PllFreq <- 0
	.loc	9 0 13 is_stmt 0                @ ../../../../Library/StdDriver/src/clk.c:0:13
	movw	r3, #1022
.Ltmp252:
	.loc	9 1749 36 is_stmt 1             @ ../../../../Library/StdDriver/src/clk.c:1749:36
	lsrs	r0, r0, #2
.Ltmp253:
	.loc	9 1744 69                       @ ../../../../Library/StdDriver/src/clk.c:1744:69
	ubfx	r12, r2, #14, #2
	.loc	9 1749 51                       @ ../../../../Library/StdDriver/src/clk.c:1749:51
	and.w	r4, r3, r2, lsl #1
	.loc	9 1744 21                       @ ../../../../Library/StdDriver/src/clk.c:1744:21
	movw	r3, :lower16:.L__const.CLK_GetAPLL1ClockFreq.au8NoTbl
	.loc	9 1746 59                       @ ../../../../Library/StdDriver/src/clk.c:1746:59
	ubfx	lr, r2, #9, #5
	.loc	9 1744 21                       @ ../../../../Library/StdDriver/src/clk.c:1744:21
	movt	r3, :upper16:.L__const.CLK_GetAPLL1ClockFreq.au8NoTbl
	.loc	9 1749 51                       @ ../../../../Library/StdDriver/src/clk.c:1749:51
	adds	r4, #4
	.loc	9 1744 21                       @ ../../../../Library/StdDriver/src/clk.c:1744:21
	ldrb.w	r3, [r3, r12]
.Ltmp254:
	@DEBUG_VALUE: CLK_GetAPLL0ClockFreq:u32NO <- $r3
	@DEBUG_VALUE: CLK_GetAPLL0ClockFreq:u32NF <- [DW_OP_constu 511, DW_OP_and, DW_OP_plus_uconst 2, DW_OP_stack_value] undef
	.loc	9 1746 86                       @ ../../../../Library/StdDriver/src/clk.c:1746:86
	add.w	r2, lr, #1
.Ltmp255:
	@DEBUG_VALUE: CLK_GetAPLL0ClockFreq:u32NR <- $r2
	.loc	9 1749 42                       @ ../../../../Library/StdDriver/src/clk.c:1749:42
	muls	r0, r4, r0
	.loc	9 1749 67 is_stmt 0             @ ../../../../Library/StdDriver/src/clk.c:1749:67
	muls	r2, r3, r2
.Ltmp256:
	.loc	9 1749 58                       @ ../../../../Library/StdDriver/src/clk.c:1749:58
	udiv	r0, r0, r2
	.loc	9 1749 76                       @ ../../../../Library/StdDriver/src/clk.c:1749:76
	lsls	r0, r0, #2
.Ltmp257:
	@DEBUG_VALUE: CLK_GetAPLL0ClockFreq:u32PllFreq <- $r0
.LBB16_4:
	.loc	9 1823 14 is_stmt 1             @ ../../../../Library/StdDriver/src/clk.c:1823:14
	movw	r2, :lower16:PllClock
	movt	r2, :upper16:PllClock
	str	r0, [r2]
	.loc	9 1825 22                       @ ../../../../Library/StdDriver/src/clk.c:1825:22
	ldr.w	r1, [r1, #1024]
	.loc	9 1825 30 is_stmt 0             @ ../../../../Library/StdDriver/src/clk.c:1825:30
	and	r1, r1, #7
.Ltmp258:
	@DEBUG_VALUE: CLK_SystemClockUpdate:u32ClkSrc <- $r1
	.loc	9 1827 9 is_stmt 1              @ ../../../../Library/StdDriver/src/clk.c:1827:9
	cmp	r1, #4
.Ltmp259:
	@DEBUG_VALUE: CLK_GetHCLK1Freq:u32Hclk1 <- $r0
	.loc	9 361 5                         @ ../../../../Library/StdDriver/src/clk.c:361:5
	it	eq
	.loc	9 361 5 epilogue_begin is_stmt 0 @ ../../../../Library/StdDriver/src/clk.c:361:5
	popeq	{r4, pc}
.Ltmp260:
.LBB16_5:
	@DEBUG_VALUE: CLK_GetHCLK1Freq:u32Hclk1 <- $r0
	@DEBUG_VALUE: CLK_SystemClockUpdate:u32ClkSrc <- $r1
	.loc	9 1827 9 is_stmt 1              @ ../../../../Library/StdDriver/src/clk.c:1827:9
	cmp	r1, #1
	bne	.LBB16_7
.Ltmp261:
@ %bb.6:
	@DEBUG_VALUE: CLK_GetHCLK1Freq:u32Hclk1 <- $r0
	.loc	9 0 9 is_stmt 0                 @ ../../../../Library/StdDriver/src/clk.c:0:9
	movw	r0, #16960
.Ltmp262:
	movt	r0, #15
	@DEBUG_VALUE: CLK_SystemClockUpdate:SystemClock <- 1000000
.Ltmp263:
	@DEBUG_VALUE: CLK_GetHCLK1Freq:u32Hclk1 <- $r0
	.loc	9 361 5 epilogue_begin is_stmt 1 @ ../../../../Library/StdDriver/src/clk.c:361:5
	pop	{r4, pc}
.Ltmp264:
.LBB16_7:
	@DEBUG_VALUE: CLK_GetHCLK1Freq:u32Hclk1 <- $r0
	@DEBUG_VALUE: CLK_SystemClockUpdate:u32ClkSrc <- $r1
	.loc	9 1840 23                       @ ../../../../Library/StdDriver/src/clk.c:1840:23
	movw	r0, :lower16:.L__const.CLK_SystemClockUpdate.gau32ClkSrcTbl
.Ltmp265:
	movt	r0, :upper16:.L__const.CLK_SystemClockUpdate.gau32ClkSrcTbl
	ldr.w	r0, [r0, r1, lsl #2]
.Ltmp266:
	@DEBUG_VALUE: CLK_SystemClockUpdate:SystemClock <- $r0
	@DEBUG_VALUE: CLK_GetHCLK1Freq:u32Hclk1 <- $r0
	.loc	9 361 5 epilogue_begin          @ ../../../../Library/StdDriver/src/clk.c:361:5
	pop	{r4, pc}
.Ltmp267:
.Lfunc_end16:
	.size	CLK_GetHCLK1Freq, .Lfunc_end16-CLK_GetHCLK1Freq
	.cfi_endproc
	.cantunwind
	.fnend
                                        @ -- End function
	.section	.text.CLK_SetCoreClock,"ax",%progbits
	.hidden	CLK_SetCoreClock                @ -- Begin function CLK_SetCoreClock
	.globl	CLK_SetCoreClock
	.p2align	2
	.type	CLK_SetCoreClock,%function
	.code	16                              @ @CLK_SetCoreClock
	.thumb_func
CLK_SetCoreClock:
.Lfunc_begin17:
	.loc	9 394 0                         @ ../../../../Library/StdDriver/src/clk.c:394:0
	.fnstart
	.cfi_startproc
@ %bb.0:
	@DEBUG_VALUE: CLK_SetCoreClock:u32Aclk <- $r0
	.save	{r4, r5, r6, lr}
	push	{r4, r5, r6, lr}
	.cfi_def_cfa_offset 16
	.cfi_offset lr, -4
	.cfi_offset r6, -8
	.cfi_offset r5, -12
	.cfi_offset r4, -16
	movw	r5, #4100
	movs	r2, #2
.Ltmp268:
	@DEBUG_VALUE: CLK_WaitClockReady:u32Ret <- 1
	@DEBUG_VALUE: CLK_WaitClockReady:u32TimeOutCnt <- undef
	movt	r5, #16384
.Ltmp269:
	.loc	9 398 23 prologue_end           @ ../../../../Library/StdDriver/src/clk.c:398:23
	ldr	r6, [r5]
.Ltmp270:
	@DEBUG_VALUE: CLK_SetCoreClock:u32HIRCSTB <- [DW_OP_constu 8, DW_OP_and, DW_OP_stack_value] $r6
	.loc	9 411 17                        @ ../../../../Library/StdDriver/src/clk.c:411:17
	ldr	r1, [r5, #-4]
	orr	r1, r1, #8
	str	r1, [r5, #-4]
.Ltmp271:
	@DEBUG_VALUE: CLK_WaitClockReady:u32ClkMask <- 8
	.loc	9 1591 30                       @ ../../../../Library/StdDriver/src/clk.c:1591:30
	movw	r1, :lower16:SystemCoreClock
	movt	r1, :upper16:SystemCoreClock
	ldr	r1, [r1]
	.loc	9 1594 5                        @ ../../../../Library/StdDriver/src/clk.c:1594:5
	sub.w	r1, r2, r1, lsr #1
	movw	r2, #61568
	movt	r2, #762
.Ltmp272:
	.loc	9 401 9                         @ ../../../../Library/StdDriver/src/clk.c:401:9
	cmp	r0, r2
	csel	r0, r0, r2, hi
.Ltmp273:
	@DEBUG_VALUE: CLK_SetCoreClock:u32Aclk <- [DW_OP_LLVM_entry_value 1] $r0
	.p2align	2
.LBB17_1:                               @ =>This Inner Loop Header: Depth=1
	@DEBUG_VALUE: CLK_SetCoreClock:u32Aclk <- [DW_OP_LLVM_entry_value 1] $r0
	@DEBUG_VALUE: CLK_WaitClockReady:u32ClkMask <- 8
	@DEBUG_VALUE: CLK_SetCoreClock:u32HIRCSTB <- [DW_OP_constu 8, DW_OP_and, DW_OP_stack_value] $r6
	@DEBUG_VALUE: CLK_WaitClockReady:u32Ret <- 1
	@DEBUG_VALUE: CLK_WaitClockReady:u32TimeOutCnt <- [DW_OP_LLVM_arg 0, DW_OP_consts 2, DW_OP_consts 18446744073709551615, DW_OP_LLVM_arg 0, DW_OP_consts 2, DW_OP_div, DW_OP_mul, DW_OP_plus, DW_OP_minus, DW_OP_consts 4, DW_OP_div, DW_OP_consts 18446744073709551612, DW_OP_mul, DW_OP_LLVM_arg 0, DW_OP_consts 2, DW_OP_div, DW_OP_plus, DW_OP_stack_value] undef
	.loc	9 1594 18                       @ ../../../../Library/StdDriver/src/clk.c:1594:18
	ldr	r2, [r5]
.Ltmp274:
	@DEBUG_VALUE: CLK_WaitClockReady:u32TimeOutCnt <- [DW_OP_constu 1, DW_OP_minus, DW_OP_stack_value] $r1
	.loc	9 1594 5 is_stmt 0              @ ../../../../Library/StdDriver/src/clk.c:1594:5
	lsls	r2, r2, #28
	bmi	.LBB17_9
.Ltmp275:
@ %bb.2:                                @   in Loop: Header=BB17_1 Depth=1
	@DEBUG_VALUE: CLK_WaitClockReady:u32TimeOutCnt <- [DW_OP_constu 1, DW_OP_minus, DW_OP_stack_value] $r1
	@DEBUG_VALUE: CLK_SetCoreClock:u32Aclk <- [DW_OP_LLVM_entry_value 1] $r0
	@DEBUG_VALUE: CLK_WaitClockReady:u32ClkMask <- 8
	@DEBUG_VALUE: CLK_SetCoreClock:u32HIRCSTB <- [DW_OP_constu 8, DW_OP_and, DW_OP_stack_value] $r6
	@DEBUG_VALUE: CLK_WaitClockReady:u32Ret <- 1
	cmp	r1, #1
	beq	.LBB17_9
.Ltmp276:
@ %bb.3:                                @   in Loop: Header=BB17_1 Depth=1
	@DEBUG_VALUE: CLK_WaitClockReady:u32TimeOutCnt <- [DW_OP_constu 1, DW_OP_minus, DW_OP_stack_value] $r1
	@DEBUG_VALUE: CLK_SetCoreClock:u32Aclk <- [DW_OP_LLVM_entry_value 1] $r0
	@DEBUG_VALUE: CLK_WaitClockReady:u32ClkMask <- 8
	@DEBUG_VALUE: CLK_SetCoreClock:u32HIRCSTB <- [DW_OP_constu 8, DW_OP_and, DW_OP_stack_value] $r6
	@DEBUG_VALUE: CLK_WaitClockReady:u32Ret <- 1
	@DEBUG_VALUE: CLK_WaitClockReady:u32TimeOutCnt <- [DW_OP_constu 1, DW_OP_minus, DW_OP_stack_value] $r1
	.loc	9 1594 18                       @ ../../../../Library/StdDriver/src/clk.c:1594:18
	ldr	r2, [r5]
.Ltmp277:
	@DEBUG_VALUE: CLK_WaitClockReady:u32TimeOutCnt <- [DW_OP_constu 2, DW_OP_minus, DW_OP_stack_value] $r1
	.loc	9 1594 5                        @ ../../../../Library/StdDriver/src/clk.c:1594:5
	lsls	r2, r2, #28
	bmi	.LBB17_9
.Ltmp278:
@ %bb.4:                                @   in Loop: Header=BB17_1 Depth=1
	@DEBUG_VALUE: CLK_WaitClockReady:u32TimeOutCnt <- [DW_OP_constu 2, DW_OP_minus, DW_OP_stack_value] $r1
	@DEBUG_VALUE: CLK_SetCoreClock:u32Aclk <- [DW_OP_LLVM_entry_value 1] $r0
	@DEBUG_VALUE: CLK_WaitClockReady:u32ClkMask <- 8
	@DEBUG_VALUE: CLK_SetCoreClock:u32HIRCSTB <- [DW_OP_constu 8, DW_OP_and, DW_OP_stack_value] $r6
	@DEBUG_VALUE: CLK_WaitClockReady:u32Ret <- 1
	cbz	r1, .LBB17_9
.Ltmp279:
@ %bb.5:                                @   in Loop: Header=BB17_1 Depth=1
	@DEBUG_VALUE: CLK_WaitClockReady:u32TimeOutCnt <- [DW_OP_constu 2, DW_OP_minus, DW_OP_stack_value] $r1
	@DEBUG_VALUE: CLK_SetCoreClock:u32Aclk <- [DW_OP_LLVM_entry_value 1] $r0
	@DEBUG_VALUE: CLK_WaitClockReady:u32ClkMask <- 8
	@DEBUG_VALUE: CLK_SetCoreClock:u32HIRCSTB <- [DW_OP_constu 8, DW_OP_and, DW_OP_stack_value] $r6
	@DEBUG_VALUE: CLK_WaitClockReady:u32Ret <- 1
	@DEBUG_VALUE: CLK_WaitClockReady:u32TimeOutCnt <- [DW_OP_constu 2, DW_OP_minus, DW_OP_stack_value] $r1
	.loc	9 1594 18                       @ ../../../../Library/StdDriver/src/clk.c:1594:18
	ldr	r2, [r5]
.Ltmp280:
	@DEBUG_VALUE: CLK_WaitClockReady:u32TimeOutCnt <- [DW_OP_constu 3, DW_OP_minus, DW_OP_stack_value] $r1
	.loc	9 1594 5                        @ ../../../../Library/StdDriver/src/clk.c:1594:5
	lsls	r2, r2, #28
	bmi	.LBB17_9
.Ltmp281:
@ %bb.6:                                @   in Loop: Header=BB17_1 Depth=1
	@DEBUG_VALUE: CLK_WaitClockReady:u32TimeOutCnt <- [DW_OP_constu 3, DW_OP_minus, DW_OP_stack_value] $r1
	@DEBUG_VALUE: CLK_SetCoreClock:u32Aclk <- [DW_OP_LLVM_entry_value 1] $r0
	@DEBUG_VALUE: CLK_WaitClockReady:u32ClkMask <- 8
	@DEBUG_VALUE: CLK_SetCoreClock:u32HIRCSTB <- [DW_OP_constu 8, DW_OP_and, DW_OP_stack_value] $r6
	@DEBUG_VALUE: CLK_WaitClockReady:u32Ret <- 1
	adds	r2, r1, #1
	beq	.LBB17_9
.Ltmp282:
@ %bb.7:                                @   in Loop: Header=BB17_1 Depth=1
	@DEBUG_VALUE: CLK_WaitClockReady:u32TimeOutCnt <- [DW_OP_constu 3, DW_OP_minus, DW_OP_stack_value] $r1
	@DEBUG_VALUE: CLK_SetCoreClock:u32Aclk <- [DW_OP_LLVM_entry_value 1] $r0
	@DEBUG_VALUE: CLK_WaitClockReady:u32ClkMask <- 8
	@DEBUG_VALUE: CLK_SetCoreClock:u32HIRCSTB <- [DW_OP_constu 8, DW_OP_and, DW_OP_stack_value] $r6
	@DEBUG_VALUE: CLK_WaitClockReady:u32Ret <- 1
	@DEBUG_VALUE: CLK_WaitClockReady:u32TimeOutCnt <- [DW_OP_constu 3, DW_OP_minus, DW_OP_stack_value] $r1
	.loc	9 1594 18                       @ ../../../../Library/StdDriver/src/clk.c:1594:18
	ldr	r2, [r5]
.Ltmp283:
	@DEBUG_VALUE: CLK_WaitClockReady:u32TimeOutCnt <- [DW_OP_LLVM_arg 0, DW_OP_consts 2, DW_OP_consts 18446744073709551615, DW_OP_LLVM_arg 0, DW_OP_consts 2, DW_OP_div, DW_OP_mul, DW_OP_plus, DW_OP_minus, DW_OP_consts 4, DW_OP_div, DW_OP_consts 18446744073709551612, DW_OP_mul, DW_OP_consts 18446744073709551612, DW_OP_LLVM_arg 0, DW_OP_consts 2, DW_OP_div, DW_OP_plus, DW_OP_plus, DW_OP_stack_value] undef
	.loc	9 1594 5                        @ ../../../../Library/StdDriver/src/clk.c:1594:5
	lsls	r2, r2, #28
	bmi	.LBB17_9
.Ltmp284:
@ %bb.8:                                @   in Loop: Header=BB17_1 Depth=1
	@DEBUG_VALUE: CLK_SetCoreClock:u32Aclk <- [DW_OP_LLVM_entry_value 1] $r0
	@DEBUG_VALUE: CLK_WaitClockReady:u32ClkMask <- 8
	@DEBUG_VALUE: CLK_SetCoreClock:u32HIRCSTB <- [DW_OP_constu 8, DW_OP_and, DW_OP_stack_value] $r6
	@DEBUG_VALUE: CLK_WaitClockReady:u32Ret <- 1
	adds	r2, r1, #2
	add.w	r1, r1, #4
	bne	.LBB17_1
.Ltmp285:
.LBB17_9:
	@DEBUG_VALUE: CLK_SetCoreClock:u32Aclk <- [DW_OP_LLVM_entry_value 1] $r0
	@DEBUG_VALUE: CLK_SetCoreClock:u32HIRCSTB <- [DW_OP_constu 8, DW_OP_and, DW_OP_stack_value] $r6
	.loc	9 413 26 is_stmt 1              @ ../../../../Library/StdDriver/src/clk.c:413:26
	ldr.w	r2, [r5, #1020]
	movw	r1, #7168
	movt	r1, #3662
	.loc	9 413 34 is_stmt 0              @ ../../../../Library/StdDriver/src/clk.c:413:34
	bic	r2, r2, #7
	.loc	9 413 18                        @ ../../../../Library/StdDriver/src/clk.c:413:18
	str.w	r2, [r5, #1020]
.Ltmp286:
	.loc	9 416 14 is_stmt 1              @ ../../../../Library/StdDriver/src/clk.c:416:14
	ldr	r2, [r5]
.Ltmp287:
	.loc	9 401 9                         @ ../../../../Library/StdDriver/src/clk.c:401:9
	cmp	r0, r1
	csel	r1, r0, r1, lo
	@DEBUG_VALUE: CLK_WaitClockReady:u32Ret <- undef
.Ltmp288:
	@DEBUG_VALUE: CLK_SetCoreClock:u32Aclk <- $r1
	.loc	9 416 9                         @ ../../../../Library/StdDriver/src/clk.c:416:9
	lsls	r0, r2, #27
	bmi	.LBB17_11
.Ltmp289:
@ %bb.10:
	@DEBUG_VALUE: CLK_SetCoreClock:u32Aclk <- $r1
	@DEBUG_VALUE: CLK_SetCoreClock:u32HIRCSTB <- [DW_OP_constu 8, DW_OP_and, DW_OP_stack_value] $r6
	.loc	9 423 19                        @ ../../../../Library/StdDriver/src/clk.c:423:19
	movs	r0, #1
	movs	r2, #0
	bl	CLK_EnableAPLL
.Ltmp290:
	.loc	9 426 27                        @ ../../../../Library/StdDriver/src/clk.c:426:27
	ldr	r6, [r5]
.Ltmp291:
	@DEBUG_VALUE: CLK_SetCoreClock:u32HIRCSTB <- [DW_OP_constu 8, DW_OP_and, DW_OP_stack_value] $r6
	.loc	9 0 27 is_stmt 0                @ ../../../../Library/StdDriver/src/clk.c:0:27
	b	.LBB17_12
.Ltmp292:
.LBB17_11:
	@DEBUG_VALUE: CLK_SetCoreClock:u32Aclk <- $r1
	@DEBUG_VALUE: CLK_SetCoreClock:u32HIRCSTB <- [DW_OP_constu 8, DW_OP_and, DW_OP_stack_value] $r6
	.loc	9 418 19 is_stmt 1              @ ../../../../Library/StdDriver/src/clk.c:418:19
	movs	r0, #0
	movs	r2, #0
	bl	CLK_EnableAPLL
.Ltmp293:
.LBB17_12:
	@DEBUG_VALUE: CLK_SetCoreClock:u32HIRCSTB <- [DW_OP_constu 8, DW_OP_and, DW_OP_stack_value] $r6
	.loc	9 0 0 is_stmt 0                 @ ../../../../Library/StdDriver/src/clk.c:0:0
	mov	r4, r0
.Ltmp294:
	@DEBUG_VALUE: CLK_SetCoreClock:u32Aclk <- $r4
	.loc	9 433 5 is_stmt 1               @ ../../../../Library/StdDriver/src/clk.c:433:5
	movs	r0, #4
	bl	CLK_SetSCLK
.Ltmp295:
	.loc	9 436 9                         @ ../../../../Library/StdDriver/src/clk.c:436:9
	lsls	r0, r6, #28
.Ltmp296:
	@DEBUG_VALUE: CLK_SetCoreClock:u32HIRCSTB <- $r0
	.loc	9 438 21                        @ ../../../../Library/StdDriver/src/clk.c:438:21
	ittt	pl
	ldrpl	r0, [r5, #-4]
.Ltmp297:
	bicpl	r0, r0, #8
	strpl	r0, [r5, #-4]
.Ltmp298:
	.loc	9 442 5                         @ ../../../../Library/StdDriver/src/clk.c:442:5
	mov	r0, r4
	.loc	9 442 5 epilogue_begin is_stmt 0 @ ../../../../Library/StdDriver/src/clk.c:442:5
	pop	{r4, r5, r6, pc}
.Ltmp299:
.Lfunc_end17:
	.size	CLK_SetCoreClock, .Lfunc_end17-CLK_SetCoreClock
	.cfi_endproc
	.cantunwind
	.fnend
                                        @ -- End function
	.section	.text.CLK_WaitClockReady,"ax",%progbits
	.hidden	CLK_WaitClockReady              @ -- Begin function CLK_WaitClockReady
	.globl	CLK_WaitClockReady
	.p2align	2
	.type	CLK_WaitClockReady,%function
	.code	16                              @ @CLK_WaitClockReady
	.thumb_func
CLK_WaitClockReady:
.Lfunc_begin18:
	.fnstart
	.cfi_startproc
@ %bb.0:
	@DEBUG_VALUE: CLK_WaitClockReady:u32ClkMask <- $r0
	.loc	9 1591 30 prologue_end is_stmt 1 @ ../../../../Library/StdDriver/src/clk.c:1591:30
	movw	r1, :lower16:SystemCoreClock
	movt	r1, :upper16:SystemCoreClock
	ldr	r2, [r1]
	movw	r1, #4100
	movt	r1, #16384
	.loc	9 1591 46 is_stmt 0             @ ../../../../Library/StdDriver/src/clk.c:1591:46
	lsrs	r2, r2, #1
.Ltmp300:
	@DEBUG_VALUE: CLK_WaitClockReady:u32Ret <- 1
	@DEBUG_VALUE: CLK_WaitClockReady:u32TimeOutCnt <- $r2
.LBB18_1:                               @ =>This Inner Loop Header: Depth=1
	@DEBUG_VALUE: CLK_WaitClockReady:u32TimeOutCnt <- $r2
	@DEBUG_VALUE: CLK_WaitClockReady:u32Ret <- 1
	@DEBUG_VALUE: CLK_WaitClockReady:u32ClkMask <- $r0
	@DEBUG_VALUE: CLK_WaitClockReady:u32TimeOutCnt <- $r2
	.loc	9 1594 18 is_stmt 1             @ ../../../../Library/StdDriver/src/clk.c:1594:18
	ldr	r3, [r1]
	.loc	9 1594 25 is_stmt 0             @ ../../../../Library/StdDriver/src/clk.c:1594:25
	ands	r3, r0
	.loc	9 1594 5                        @ ../../../../Library/StdDriver/src/clk.c:1594:5
	cmp	r3, r0
	beq	.LBB18_10
.Ltmp301:
@ %bb.2:                                @   in Loop: Header=BB18_1 Depth=1
	@DEBUG_VALUE: CLK_WaitClockReady:u32TimeOutCnt <- $r2
	@DEBUG_VALUE: CLK_WaitClockReady:u32Ret <- 1
	@DEBUG_VALUE: CLK_WaitClockReady:u32ClkMask <- $r0
	@DEBUG_VALUE: CLK_WaitClockReady:u32TimeOutCnt <- [DW_OP_constu 1, DW_OP_minus, DW_OP_stack_value] $r2
	.loc	9 1596 13 is_stmt 1             @ ../../../../Library/StdDriver/src/clk.c:1596:13
	cmp	r2, #1
	beq	.LBB18_9
.Ltmp302:
@ %bb.3:                                @   in Loop: Header=BB18_1 Depth=1
	@DEBUG_VALUE: CLK_WaitClockReady:u32TimeOutCnt <- [DW_OP_constu 1, DW_OP_minus, DW_OP_stack_value] $r2
	@DEBUG_VALUE: CLK_WaitClockReady:u32Ret <- 1
	@DEBUG_VALUE: CLK_WaitClockReady:u32ClkMask <- $r0
	@DEBUG_VALUE: CLK_WaitClockReady:u32TimeOutCnt <- [DW_OP_constu 1, DW_OP_minus, DW_OP_stack_value] $r2
	.loc	9 1594 18                       @ ../../../../Library/StdDriver/src/clk.c:1594:18
	ldr	r3, [r1]
	.loc	9 1594 25 is_stmt 0             @ ../../../../Library/StdDriver/src/clk.c:1594:25
	ands	r3, r0
	.loc	9 1594 5                        @ ../../../../Library/StdDriver/src/clk.c:1594:5
	cmp	r3, r0
	beq	.LBB18_10
.Ltmp303:
@ %bb.4:                                @   in Loop: Header=BB18_1 Depth=1
	@DEBUG_VALUE: CLK_WaitClockReady:u32TimeOutCnt <- [DW_OP_constu 1, DW_OP_minus, DW_OP_stack_value] $r2
	@DEBUG_VALUE: CLK_WaitClockReady:u32Ret <- 1
	@DEBUG_VALUE: CLK_WaitClockReady:u32ClkMask <- $r0
	@DEBUG_VALUE: CLK_WaitClockReady:u32TimeOutCnt <- [DW_OP_constu 2, DW_OP_minus, DW_OP_stack_value] $r2
	.loc	9 1596 13 is_stmt 1             @ ../../../../Library/StdDriver/src/clk.c:1596:13
	cmp	r2, #2
	beq	.LBB18_9
.Ltmp304:
@ %bb.5:                                @   in Loop: Header=BB18_1 Depth=1
	@DEBUG_VALUE: CLK_WaitClockReady:u32TimeOutCnt <- [DW_OP_constu 2, DW_OP_minus, DW_OP_stack_value] $r2
	@DEBUG_VALUE: CLK_WaitClockReady:u32Ret <- 1
	@DEBUG_VALUE: CLK_WaitClockReady:u32ClkMask <- $r0
	@DEBUG_VALUE: CLK_WaitClockReady:u32TimeOutCnt <- [DW_OP_constu 2, DW_OP_minus, DW_OP_stack_value] $r2
	.loc	9 1594 18                       @ ../../../../Library/StdDriver/src/clk.c:1594:18
	ldr	r3, [r1]
	.loc	9 1594 25 is_stmt 0             @ ../../../../Library/StdDriver/src/clk.c:1594:25
	ands	r3, r0
	.loc	9 1594 5                        @ ../../../../Library/StdDriver/src/clk.c:1594:5
	cmp	r3, r0
	beq	.LBB18_10
.Ltmp305:
@ %bb.6:                                @   in Loop: Header=BB18_1 Depth=1
	@DEBUG_VALUE: CLK_WaitClockReady:u32TimeOutCnt <- [DW_OP_constu 2, DW_OP_minus, DW_OP_stack_value] $r2
	@DEBUG_VALUE: CLK_WaitClockReady:u32Ret <- 1
	@DEBUG_VALUE: CLK_WaitClockReady:u32ClkMask <- $r0
	@DEBUG_VALUE: CLK_WaitClockReady:u32TimeOutCnt <- [DW_OP_constu 3, DW_OP_minus, DW_OP_stack_value] $r2
	.loc	9 1596 13 is_stmt 1             @ ../../../../Library/StdDriver/src/clk.c:1596:13
	cmp	r2, #3
	beq	.LBB18_9
.Ltmp306:
@ %bb.7:                                @   in Loop: Header=BB18_1 Depth=1
	@DEBUG_VALUE: CLK_WaitClockReady:u32TimeOutCnt <- [DW_OP_constu 3, DW_OP_minus, DW_OP_stack_value] $r2
	@DEBUG_VALUE: CLK_WaitClockReady:u32Ret <- 1
	@DEBUG_VALUE: CLK_WaitClockReady:u32ClkMask <- $r0
	@DEBUG_VALUE: CLK_WaitClockReady:u32TimeOutCnt <- [DW_OP_constu 3, DW_OP_minus, DW_OP_stack_value] $r2
	.loc	9 1594 18                       @ ../../../../Library/StdDriver/src/clk.c:1594:18
	ldr	r3, [r1]
	.loc	9 1594 25 is_stmt 0             @ ../../../../Library/StdDriver/src/clk.c:1594:25
	ands	r3, r0
	.loc	9 1594 5                        @ ../../../../Library/StdDriver/src/clk.c:1594:5
	cmp	r3, r0
	beq	.LBB18_10
.Ltmp307:
@ %bb.8:                                @   in Loop: Header=BB18_1 Depth=1
	@DEBUG_VALUE: CLK_WaitClockReady:u32TimeOutCnt <- [DW_OP_constu 3, DW_OP_minus, DW_OP_stack_value] $r2
	@DEBUG_VALUE: CLK_WaitClockReady:u32Ret <- 1
	@DEBUG_VALUE: CLK_WaitClockReady:u32ClkMask <- $r0
	.loc	9 1596 13 is_stmt 1             @ ../../../../Library/StdDriver/src/clk.c:1596:13
	subs	r2, #4
.Ltmp308:
	@DEBUG_VALUE: CLK_WaitClockReady:u32TimeOutCnt <- $r2
	.loc	9 1596 13 is_stmt 0             @ ../../../../Library/StdDriver/src/clk.c:1596:13
	bne	.LBB18_1
.Ltmp309:
.LBB18_9:
	@DEBUG_VALUE: CLK_WaitClockReady:u32Ret <- 1
	@DEBUG_VALUE: CLK_WaitClockReady:u32ClkMask <- $r0
	.loc	9 0 13                          @ ../../../../Library/StdDriver/src/clk.c:0:13
	movs	r0, #0
.Ltmp310:
	@DEBUG_VALUE: CLK_WaitClockReady:u32ClkMask <- [DW_OP_LLVM_entry_value 1] $r0
	@DEBUG_VALUE: CLK_WaitClockReady:u32Ret <- $r0
	.loc	9 1603 5 is_stmt 1              @ ../../../../Library/StdDriver/src/clk.c:1603:5
	bx	lr
.Ltmp311:
.LBB18_10:
	@DEBUG_VALUE: CLK_WaitClockReady:u32Ret <- 1
	@DEBUG_VALUE: CLK_WaitClockReady:u32ClkMask <- $r0
	.loc	9 0 5 is_stmt 0                 @ ../../../../Library/StdDriver/src/clk.c:0:5
	movs	r0, #1
.Ltmp312:
	@DEBUG_VALUE: CLK_WaitClockReady:u32ClkMask <- [DW_OP_LLVM_entry_value 1] $r0
	@DEBUG_VALUE: CLK_WaitClockReady:u32Ret <- $r0
	.loc	9 1603 5                        @ ../../../../Library/StdDriver/src/clk.c:1603:5
	bx	lr
.Ltmp313:
.Lfunc_end18:
	.size	CLK_WaitClockReady, .Lfunc_end18-CLK_WaitClockReady
	.cfi_endproc
	.cantunwind
	.fnend
                                        @ -- End function
	.section	.text.CLK_EnableAPLL,"ax",%progbits
	.hidden	CLK_EnableAPLL                  @ -- Begin function CLK_EnableAPLL
	.globl	CLK_EnableAPLL
	.p2align	2
	.type	CLK_EnableAPLL,%function
	.code	16                              @ @CLK_EnableAPLL
	.thumb_func
CLK_EnableAPLL:
.Lfunc_begin19:
	.loc	9 1337 0 is_stmt 1              @ ../../../../Library/StdDriver/src/clk.c:1337:0
	.fnstart
	.cfi_startproc
@ %bb.0:
	@DEBUG_VALUE: CLK_EnableAPLL:u32PllClkSrc <- $r0
	@DEBUG_VALUE: CLK_EnableAPLL:u32PllFreq <- $r1
	@DEBUG_VALUE: CLK_EnableAPLL:u32PllSelect <- $r2
	.save	{r4, r5, r6, r7, r8, r9, r10, r11, lr}
	push.w	{r4, r5, r6, r7, r8, r9, r10, r11, lr}
	.cfi_def_cfa_offset 36
	.cfi_offset lr, -4
	.cfi_offset r11, -8
	.cfi_offset r10, -12
	.cfi_offset r9, -16
	.cfi_offset r8, -20
	.cfi_offset r7, -24
	.cfi_offset r6, -28
	.cfi_offset r5, -32
	.cfi_offset r4, -36
	.pad	#100
	sub	sp, #100
	.cfi_def_cfa_offset 136
	movw	r3, #4100
	mov	r6, r2
.Ltmp314:
	@DEBUG_VALUE: CLK_EnableAPLL:u32PllSelect <- $r6
	@DEBUG_VALUE: CLK_EnableAPLL:u32PllSelect <- $r6
	movt	r3, #16384
	mov	r7, r0
.Ltmp315:
	@DEBUG_VALUE: CLK_EnableAPLL:u32PllClkSrc <- $r7
	@DEBUG_VALUE: CLK_EnableAPLL:u32PllClkSrc <- $r7
	.loc	9 0 0 is_stmt 0                 @ ../../../../Library/StdDriver/src/clk.c:0:0
	ldr	r0, [r3, #-4]
	mvn	r2, #128
	cmp	r6, #0
	it	eq
	mvneq	r2, #64
	ands	r0, r2
	str	r0, [r3, #-4]
.Ltmp316:
	.loc	9 1352 9 prologue_end is_stmt 1 @ ../../../../Library/StdDriver/src/clk.c:1352:9
	cbz	r7, .LBB19_11
.Ltmp317:
@ %bb.1:
	@DEBUG_VALUE: CLK_EnableAPLL:u32PllClkSrc <- $r7
	@DEBUG_VALUE: CLK_EnableAPLL:u32PllSelect <- $r6
	@DEBUG_VALUE: CLK_EnableAPLL:u32PllFreq <- $r1
	.loc	9 0 0 is_stmt 0                 @ ../../../../Library/StdDriver/src/clk.c:0:0
	ldr	r0, [r3, #-4]
.Ltmp318:
	.loc	9 1364 14 is_stmt 1             @ ../../../../Library/StdDriver/src/clk.c:1364:14
	cmp	r7, #1
	bne	.LBB19_20
.Ltmp319:
@ %bb.2:
	@DEBUG_VALUE: CLK_EnableAPLL:u32PllClkSrc <- $r7
	@DEBUG_VALUE: CLK_EnableAPLL:u32PllSelect <- $r6
	@DEBUG_VALUE: CLK_EnableAPLL:u32PllFreq <- $r1
	.loc	9 1367 21                       @ ../../../../Library/StdDriver/src/clk.c:1367:21
	orr	r0, r0, #8
	movs	r2, #2
.Ltmp320:
	@DEBUG_VALUE: CLK_WaitClockReady:u32Ret <- 1
	@DEBUG_VALUE: CLK_WaitClockReady:u32TimeOutCnt <- undef
	str	r0, [r3, #-4]
.Ltmp321:
	@DEBUG_VALUE: CLK_WaitClockReady:u32ClkMask <- 8
	.loc	9 1591 30                       @ ../../../../Library/StdDriver/src/clk.c:1591:30
	movw	r0, :lower16:SystemCoreClock
	movt	r0, :upper16:SystemCoreClock
	ldr	r0, [r0]
	.loc	9 1594 5                        @ ../../../../Library/StdDriver/src/clk.c:1594:5
	sub.w	r0, r2, r0, lsr #1
.Ltmp322:
	.p2align	2
.LBB19_3:                               @ =>This Inner Loop Header: Depth=1
	@DEBUG_VALUE: CLK_WaitClockReady:u32ClkMask <- 8
	@DEBUG_VALUE: CLK_WaitClockReady:u32Ret <- 1
	@DEBUG_VALUE: CLK_EnableAPLL:u32PllClkSrc <- $r7
	@DEBUG_VALUE: CLK_EnableAPLL:u32PllSelect <- $r6
	@DEBUG_VALUE: CLK_EnableAPLL:u32PllFreq <- $r1
	@DEBUG_VALUE: CLK_WaitClockReady:u32TimeOutCnt <- [DW_OP_LLVM_arg 0, DW_OP_consts 2, DW_OP_consts 18446744073709551615, DW_OP_LLVM_arg 0, DW_OP_consts 2, DW_OP_div, DW_OP_mul, DW_OP_plus, DW_OP_minus, DW_OP_consts 4, DW_OP_div, DW_OP_consts 18446744073709551612, DW_OP_mul, DW_OP_LLVM_arg 0, DW_OP_consts 2, DW_OP_div, DW_OP_plus, DW_OP_stack_value] undef
	.loc	9 1594 18 is_stmt 0             @ ../../../../Library/StdDriver/src/clk.c:1594:18
	ldr	r2, [r3]
.Ltmp323:
	@DEBUG_VALUE: CLK_WaitClockReady:u32TimeOutCnt <- [DW_OP_constu 1, DW_OP_minus, DW_OP_stack_value] $r0
	.loc	9 1594 5                        @ ../../../../Library/StdDriver/src/clk.c:1594:5
	lsls	r2, r2, #28
	bmi	.LBB19_29
.Ltmp324:
@ %bb.4:                                @   in Loop: Header=BB19_3 Depth=1
	@DEBUG_VALUE: CLK_WaitClockReady:u32TimeOutCnt <- [DW_OP_constu 1, DW_OP_minus, DW_OP_stack_value] $r0
	@DEBUG_VALUE: CLK_WaitClockReady:u32ClkMask <- 8
	@DEBUG_VALUE: CLK_WaitClockReady:u32Ret <- 1
	@DEBUG_VALUE: CLK_EnableAPLL:u32PllClkSrc <- $r7
	@DEBUG_VALUE: CLK_EnableAPLL:u32PllSelect <- $r6
	@DEBUG_VALUE: CLK_EnableAPLL:u32PllFreq <- $r1
	cmp	r0, #1
	beq	.LBB19_29
.Ltmp325:
@ %bb.5:                                @   in Loop: Header=BB19_3 Depth=1
	@DEBUG_VALUE: CLK_WaitClockReady:u32TimeOutCnt <- [DW_OP_constu 1, DW_OP_minus, DW_OP_stack_value] $r0
	@DEBUG_VALUE: CLK_WaitClockReady:u32ClkMask <- 8
	@DEBUG_VALUE: CLK_WaitClockReady:u32Ret <- 1
	@DEBUG_VALUE: CLK_EnableAPLL:u32PllClkSrc <- $r7
	@DEBUG_VALUE: CLK_EnableAPLL:u32PllSelect <- $r6
	@DEBUG_VALUE: CLK_EnableAPLL:u32PllFreq <- $r1
	@DEBUG_VALUE: CLK_WaitClockReady:u32TimeOutCnt <- [DW_OP_constu 1, DW_OP_minus, DW_OP_stack_value] $r0
	.loc	9 1594 18                       @ ../../../../Library/StdDriver/src/clk.c:1594:18
	ldr	r2, [r3]
.Ltmp326:
	@DEBUG_VALUE: CLK_WaitClockReady:u32TimeOutCnt <- [DW_OP_constu 2, DW_OP_minus, DW_OP_stack_value] $r0
	.loc	9 1594 5                        @ ../../../../Library/StdDriver/src/clk.c:1594:5
	lsls	r2, r2, #28
	bmi	.LBB19_29
.Ltmp327:
@ %bb.6:                                @   in Loop: Header=BB19_3 Depth=1
	@DEBUG_VALUE: CLK_WaitClockReady:u32TimeOutCnt <- [DW_OP_constu 2, DW_OP_minus, DW_OP_stack_value] $r0
	@DEBUG_VALUE: CLK_WaitClockReady:u32ClkMask <- 8
	@DEBUG_VALUE: CLK_WaitClockReady:u32Ret <- 1
	@DEBUG_VALUE: CLK_EnableAPLL:u32PllClkSrc <- $r7
	@DEBUG_VALUE: CLK_EnableAPLL:u32PllSelect <- $r6
	@DEBUG_VALUE: CLK_EnableAPLL:u32PllFreq <- $r1
	cmp	r0, #0
	beq	.LBB19_29
.Ltmp328:
@ %bb.7:                                @   in Loop: Header=BB19_3 Depth=1
	@DEBUG_VALUE: CLK_WaitClockReady:u32TimeOutCnt <- [DW_OP_constu 2, DW_OP_minus, DW_OP_stack_value] $r0
	@DEBUG_VALUE: CLK_WaitClockReady:u32ClkMask <- 8
	@DEBUG_VALUE: CLK_WaitClockReady:u32Ret <- 1
	@DEBUG_VALUE: CLK_EnableAPLL:u32PllClkSrc <- $r7
	@DEBUG_VALUE: CLK_EnableAPLL:u32PllSelect <- $r6
	@DEBUG_VALUE: CLK_EnableAPLL:u32PllFreq <- $r1
	@DEBUG_VALUE: CLK_WaitClockReady:u32TimeOutCnt <- [DW_OP_constu 2, DW_OP_minus, DW_OP_stack_value] $r0
	.loc	9 1594 18                       @ ../../../../Library/StdDriver/src/clk.c:1594:18
	ldr	r2, [r3]
.Ltmp329:
	@DEBUG_VALUE: CLK_WaitClockReady:u32TimeOutCnt <- [DW_OP_constu 3, DW_OP_minus, DW_OP_stack_value] $r0
	.loc	9 1594 5                        @ ../../../../Library/StdDriver/src/clk.c:1594:5
	lsls	r2, r2, #28
	bmi	.LBB19_29
.Ltmp330:
@ %bb.8:                                @   in Loop: Header=BB19_3 Depth=1
	@DEBUG_VALUE: CLK_WaitClockReady:u32TimeOutCnt <- [DW_OP_constu 3, DW_OP_minus, DW_OP_stack_value] $r0
	@DEBUG_VALUE: CLK_WaitClockReady:u32ClkMask <- 8
	@DEBUG_VALUE: CLK_WaitClockReady:u32Ret <- 1
	@DEBUG_VALUE: CLK_EnableAPLL:u32PllClkSrc <- $r7
	@DEBUG_VALUE: CLK_EnableAPLL:u32PllSelect <- $r6
	@DEBUG_VALUE: CLK_EnableAPLL:u32PllFreq <- $r1
	adds	r2, r0, #1
	beq	.LBB19_29
.Ltmp331:
@ %bb.9:                                @   in Loop: Header=BB19_3 Depth=1
	@DEBUG_VALUE: CLK_WaitClockReady:u32TimeOutCnt <- [DW_OP_constu 3, DW_OP_minus, DW_OP_stack_value] $r0
	@DEBUG_VALUE: CLK_WaitClockReady:u32ClkMask <- 8
	@DEBUG_VALUE: CLK_WaitClockReady:u32Ret <- 1
	@DEBUG_VALUE: CLK_EnableAPLL:u32PllClkSrc <- $r7
	@DEBUG_VALUE: CLK_EnableAPLL:u32PllSelect <- $r6
	@DEBUG_VALUE: CLK_EnableAPLL:u32PllFreq <- $r1
	@DEBUG_VALUE: CLK_WaitClockReady:u32TimeOutCnt <- [DW_OP_constu 3, DW_OP_minus, DW_OP_stack_value] $r0
	.loc	9 1594 18                       @ ../../../../Library/StdDriver/src/clk.c:1594:18
	ldr	r2, [r3]
.Ltmp332:
	@DEBUG_VALUE: CLK_WaitClockReady:u32TimeOutCnt <- [DW_OP_LLVM_arg 0, DW_OP_consts 2, DW_OP_consts 18446744073709551615, DW_OP_LLVM_arg 0, DW_OP_consts 2, DW_OP_div, DW_OP_mul, DW_OP_plus, DW_OP_minus, DW_OP_consts 4, DW_OP_div, DW_OP_consts 18446744073709551612, DW_OP_mul, DW_OP_consts 18446744073709551612, DW_OP_LLVM_arg 0, DW_OP_consts 2, DW_OP_div, DW_OP_plus, DW_OP_plus, DW_OP_stack_value] undef
	.loc	9 1594 5                        @ ../../../../Library/StdDriver/src/clk.c:1594:5
	lsls	r2, r2, #28
	bmi	.LBB19_29
.Ltmp333:
@ %bb.10:                               @   in Loop: Header=BB19_3 Depth=1
	@DEBUG_VALUE: CLK_WaitClockReady:u32ClkMask <- 8
	@DEBUG_VALUE: CLK_WaitClockReady:u32Ret <- 1
	@DEBUG_VALUE: CLK_EnableAPLL:u32PllClkSrc <- $r7
	@DEBUG_VALUE: CLK_EnableAPLL:u32PllSelect <- $r6
	@DEBUG_VALUE: CLK_EnableAPLL:u32PllFreq <- $r1
	adds	r2, r0, #2
	add.w	r0, r0, #4
	bne	.LBB19_3
	b	.LBB19_29
.Ltmp334:
.LBB19_11:
	@DEBUG_VALUE: CLK_EnableAPLL:u32PllClkSrc <- $r7
	@DEBUG_VALUE: CLK_EnableAPLL:u32PllSelect <- $r6
	@DEBUG_VALUE: CLK_EnableAPLL:u32PllFreq <- $r1
	.loc	9 1355 21 is_stmt 1             @ ../../../../Library/StdDriver/src/clk.c:1355:21
	ldr	r0, [r3, #-4]
	movs	r2, #2
.Ltmp335:
	@DEBUG_VALUE: CLK_WaitClockReady:u32Ret <- 1
	@DEBUG_VALUE: CLK_WaitClockReady:u32TimeOutCnt <- undef
	.loc	9 0 21 is_stmt 0                @ ../../../../Library/StdDriver/src/clk.c:0:21
	movw	r4, #13824
	.loc	9 1355 21                       @ ../../../../Library/StdDriver/src/clk.c:1355:21
	orr	r0, r0, #16
	str	r0, [r3, #-4]
.Ltmp336:
	@DEBUG_VALUE: CLK_WaitClockReady:u32ClkMask <- 16
	.loc	9 1591 30 is_stmt 1             @ ../../../../Library/StdDriver/src/clk.c:1591:30
	movw	r0, :lower16:SystemCoreClock
	movt	r0, :upper16:SystemCoreClock
	ldr	r0, [r0]
	movt	r4, #366
	.loc	9 1594 5                        @ ../../../../Library/StdDriver/src/clk.c:1594:5
	sub.w	r0, r2, r0, lsr #1
.Ltmp337:
	.p2align	2
.LBB19_12:                              @ =>This Inner Loop Header: Depth=1
	@DEBUG_VALUE: CLK_WaitClockReady:u32ClkMask <- 16
	@DEBUG_VALUE: CLK_WaitClockReady:u32Ret <- 1
	@DEBUG_VALUE: CLK_EnableAPLL:u32PllClkSrc <- $r7
	@DEBUG_VALUE: CLK_EnableAPLL:u32PllSelect <- $r6
	@DEBUG_VALUE: CLK_EnableAPLL:u32PllFreq <- $r1
	@DEBUG_VALUE: CLK_WaitClockReady:u32TimeOutCnt <- [DW_OP_LLVM_arg 0, DW_OP_consts 2, DW_OP_consts 18446744073709551615, DW_OP_LLVM_arg 0, DW_OP_consts 2, DW_OP_div, DW_OP_mul, DW_OP_plus, DW_OP_minus, DW_OP_consts 4, DW_OP_div, DW_OP_consts 18446744073709551612, DW_OP_mul, DW_OP_LLVM_arg 0, DW_OP_consts 2, DW_OP_div, DW_OP_plus, DW_OP_stack_value] undef
	.loc	9 1594 18 is_stmt 0             @ ../../../../Library/StdDriver/src/clk.c:1594:18
	ldr	r2, [r3]
.Ltmp338:
	@DEBUG_VALUE: CLK_WaitClockReady:u32TimeOutCnt <- [DW_OP_constu 1, DW_OP_minus, DW_OP_stack_value] $r0
	.loc	9 0 18                          @ ../../../../Library/StdDriver/src/clk.c:0:18
	mov.w	r5, #536870912
	.loc	9 1594 5                        @ ../../../../Library/StdDriver/src/clk.c:1594:5
	lsls	r2, r2, #27
	bmi	.LBB19_30
.Ltmp339:
@ %bb.13:                               @   in Loop: Header=BB19_12 Depth=1
	@DEBUG_VALUE: CLK_WaitClockReady:u32TimeOutCnt <- [DW_OP_constu 1, DW_OP_minus, DW_OP_stack_value] $r0
	@DEBUG_VALUE: CLK_WaitClockReady:u32ClkMask <- 16
	@DEBUG_VALUE: CLK_WaitClockReady:u32Ret <- 1
	@DEBUG_VALUE: CLK_EnableAPLL:u32PllClkSrc <- $r7
	@DEBUG_VALUE: CLK_EnableAPLL:u32PllSelect <- $r6
	@DEBUG_VALUE: CLK_EnableAPLL:u32PllFreq <- $r1
	cmp	r0, #1
	beq	.LBB19_30
.Ltmp340:
@ %bb.14:                               @   in Loop: Header=BB19_12 Depth=1
	@DEBUG_VALUE: CLK_WaitClockReady:u32TimeOutCnt <- [DW_OP_constu 1, DW_OP_minus, DW_OP_stack_value] $r0
	@DEBUG_VALUE: CLK_WaitClockReady:u32ClkMask <- 16
	@DEBUG_VALUE: CLK_WaitClockReady:u32Ret <- 1
	@DEBUG_VALUE: CLK_EnableAPLL:u32PllClkSrc <- $r7
	@DEBUG_VALUE: CLK_EnableAPLL:u32PllSelect <- $r6
	@DEBUG_VALUE: CLK_EnableAPLL:u32PllFreq <- $r1
	@DEBUG_VALUE: CLK_WaitClockReady:u32TimeOutCnt <- [DW_OP_constu 1, DW_OP_minus, DW_OP_stack_value] $r0
	.loc	9 1594 18                       @ ../../../../Library/StdDriver/src/clk.c:1594:18
	ldr	r2, [r3]
.Ltmp341:
	@DEBUG_VALUE: CLK_WaitClockReady:u32TimeOutCnt <- [DW_OP_constu 2, DW_OP_minus, DW_OP_stack_value] $r0
	.loc	9 1594 5                        @ ../../../../Library/StdDriver/src/clk.c:1594:5
	lsls	r2, r2, #27
	bmi	.LBB19_30
.Ltmp342:
@ %bb.15:                               @   in Loop: Header=BB19_12 Depth=1
	@DEBUG_VALUE: CLK_WaitClockReady:u32TimeOutCnt <- [DW_OP_constu 2, DW_OP_minus, DW_OP_stack_value] $r0
	@DEBUG_VALUE: CLK_WaitClockReady:u32ClkMask <- 16
	@DEBUG_VALUE: CLK_WaitClockReady:u32Ret <- 1
	@DEBUG_VALUE: CLK_EnableAPLL:u32PllClkSrc <- $r7
	@DEBUG_VALUE: CLK_EnableAPLL:u32PllSelect <- $r6
	@DEBUG_VALUE: CLK_EnableAPLL:u32PllFreq <- $r1
	cbz	r0, .LBB19_30
.Ltmp343:
@ %bb.16:                               @   in Loop: Header=BB19_12 Depth=1
	@DEBUG_VALUE: CLK_WaitClockReady:u32TimeOutCnt <- [DW_OP_constu 2, DW_OP_minus, DW_OP_stack_value] $r0
	@DEBUG_VALUE: CLK_WaitClockReady:u32ClkMask <- 16
	@DEBUG_VALUE: CLK_WaitClockReady:u32Ret <- 1
	@DEBUG_VALUE: CLK_EnableAPLL:u32PllClkSrc <- $r7
	@DEBUG_VALUE: CLK_EnableAPLL:u32PllSelect <- $r6
	@DEBUG_VALUE: CLK_EnableAPLL:u32PllFreq <- $r1
	@DEBUG_VALUE: CLK_WaitClockReady:u32TimeOutCnt <- [DW_OP_constu 2, DW_OP_minus, DW_OP_stack_value] $r0
	.loc	9 1594 18                       @ ../../../../Library/StdDriver/src/clk.c:1594:18
	ldr	r2, [r3]
.Ltmp344:
	@DEBUG_VALUE: CLK_WaitClockReady:u32TimeOutCnt <- [DW_OP_constu 3, DW_OP_minus, DW_OP_stack_value] $r0
	.loc	9 1594 5                        @ ../../../../Library/StdDriver/src/clk.c:1594:5
	lsls	r2, r2, #27
	bmi	.LBB19_30
.Ltmp345:
@ %bb.17:                               @   in Loop: Header=BB19_12 Depth=1
	@DEBUG_VALUE: CLK_WaitClockReady:u32TimeOutCnt <- [DW_OP_constu 3, DW_OP_minus, DW_OP_stack_value] $r0
	@DEBUG_VALUE: CLK_WaitClockReady:u32ClkMask <- 16
	@DEBUG_VALUE: CLK_WaitClockReady:u32Ret <- 1
	@DEBUG_VALUE: CLK_EnableAPLL:u32PllClkSrc <- $r7
	@DEBUG_VALUE: CLK_EnableAPLL:u32PllSelect <- $r6
	@DEBUG_VALUE: CLK_EnableAPLL:u32PllFreq <- $r1
	adds	r2, r0, #1
	beq	.LBB19_30
.Ltmp346:
@ %bb.18:                               @   in Loop: Header=BB19_12 Depth=1
	@DEBUG_VALUE: CLK_WaitClockReady:u32TimeOutCnt <- [DW_OP_constu 3, DW_OP_minus, DW_OP_stack_value] $r0
	@DEBUG_VALUE: CLK_WaitClockReady:u32ClkMask <- 16
	@DEBUG_VALUE: CLK_WaitClockReady:u32Ret <- 1
	@DEBUG_VALUE: CLK_EnableAPLL:u32PllClkSrc <- $r7
	@DEBUG_VALUE: CLK_EnableAPLL:u32PllSelect <- $r6
	@DEBUG_VALUE: CLK_EnableAPLL:u32PllFreq <- $r1
	@DEBUG_VALUE: CLK_WaitClockReady:u32TimeOutCnt <- [DW_OP_constu 3, DW_OP_minus, DW_OP_stack_value] $r0
	.loc	9 1594 18                       @ ../../../../Library/StdDriver/src/clk.c:1594:18
	ldr	r2, [r3]
.Ltmp347:
	@DEBUG_VALUE: CLK_WaitClockReady:u32TimeOutCnt <- [DW_OP_LLVM_arg 0, DW_OP_consts 2, DW_OP_consts 18446744073709551615, DW_OP_LLVM_arg 0, DW_OP_consts 2, DW_OP_div, DW_OP_mul, DW_OP_plus, DW_OP_minus, DW_OP_consts 4, DW_OP_div, DW_OP_consts 18446744073709551612, DW_OP_mul, DW_OP_consts 18446744073709551612, DW_OP_LLVM_arg 0, DW_OP_consts 2, DW_OP_div, DW_OP_plus, DW_OP_plus, DW_OP_stack_value] undef
	.loc	9 1594 5                        @ ../../../../Library/StdDriver/src/clk.c:1594:5
	lsls	r2, r2, #27
	bmi	.LBB19_30
.Ltmp348:
@ %bb.19:                               @   in Loop: Header=BB19_12 Depth=1
	@DEBUG_VALUE: CLK_WaitClockReady:u32ClkMask <- 16
	@DEBUG_VALUE: CLK_WaitClockReady:u32Ret <- 1
	@DEBUG_VALUE: CLK_EnableAPLL:u32PllClkSrc <- $r7
	@DEBUG_VALUE: CLK_EnableAPLL:u32PllSelect <- $r6
	@DEBUG_VALUE: CLK_EnableAPLL:u32PllFreq <- $r1
	adds	r2, r0, #2
	add.w	r0, r0, #4
	bne	.LBB19_12
	b	.LBB19_30
.Ltmp349:
.LBB19_20:
	@DEBUG_VALUE: CLK_EnableAPLL:u32PllClkSrc <- $r7
	@DEBUG_VALUE: CLK_EnableAPLL:u32PllSelect <- $r6
	@DEBUG_VALUE: CLK_EnableAPLL:u32PllFreq <- $r1
	.loc	9 1378 21 is_stmt 1             @ ../../../../Library/StdDriver/src/clk.c:1378:21
	orr	r0, r0, #32
	movs	r2, #2
.Ltmp350:
	@DEBUG_VALUE: CLK_WaitClockReady:u32Ret <- 1
	@DEBUG_VALUE: CLK_WaitClockReady:u32TimeOutCnt <- undef
	str	r0, [r3, #-4]
.Ltmp351:
	@DEBUG_VALUE: CLK_WaitClockReady:u32ClkMask <- 32
	.loc	9 1591 30                       @ ../../../../Library/StdDriver/src/clk.c:1591:30
	movw	r0, :lower16:SystemCoreClock
	movt	r0, :upper16:SystemCoreClock
	ldr	r0, [r0]
	.loc	9 1594 5                        @ ../../../../Library/StdDriver/src/clk.c:1594:5
	sub.w	r0, r2, r0, lsr #1
.Ltmp352:
	.p2align	2
.LBB19_21:                              @ =>This Inner Loop Header: Depth=1
	@DEBUG_VALUE: CLK_WaitClockReady:u32ClkMask <- 32
	@DEBUG_VALUE: CLK_WaitClockReady:u32Ret <- 1
	@DEBUG_VALUE: CLK_EnableAPLL:u32PllClkSrc <- $r7
	@DEBUG_VALUE: CLK_EnableAPLL:u32PllSelect <- $r6
	@DEBUG_VALUE: CLK_EnableAPLL:u32PllFreq <- $r1
	@DEBUG_VALUE: CLK_WaitClockReady:u32TimeOutCnt <- [DW_OP_LLVM_arg 0, DW_OP_consts 2, DW_OP_consts 18446744073709551615, DW_OP_LLVM_arg 0, DW_OP_consts 2, DW_OP_div, DW_OP_mul, DW_OP_plus, DW_OP_minus, DW_OP_consts 4, DW_OP_div, DW_OP_consts 18446744073709551612, DW_OP_mul, DW_OP_LLVM_arg 0, DW_OP_consts 2, DW_OP_div, DW_OP_plus, DW_OP_stack_value] undef
	.loc	9 1594 18 is_stmt 0             @ ../../../../Library/StdDriver/src/clk.c:1594:18
	ldr	r2, [r3]
.Ltmp353:
	@DEBUG_VALUE: CLK_WaitClockReady:u32TimeOutCnt <- [DW_OP_constu 1, DW_OP_minus, DW_OP_stack_value] $r0
	.loc	9 1594 5                        @ ../../../../Library/StdDriver/src/clk.c:1594:5
	lsls	r2, r2, #26
	bmi	.LBB19_29
.Ltmp354:
@ %bb.22:                               @   in Loop: Header=BB19_21 Depth=1
	@DEBUG_VALUE: CLK_WaitClockReady:u32TimeOutCnt <- [DW_OP_constu 1, DW_OP_minus, DW_OP_stack_value] $r0
	@DEBUG_VALUE: CLK_WaitClockReady:u32ClkMask <- 32
	@DEBUG_VALUE: CLK_WaitClockReady:u32Ret <- 1
	@DEBUG_VALUE: CLK_EnableAPLL:u32PllClkSrc <- $r7
	@DEBUG_VALUE: CLK_EnableAPLL:u32PllSelect <- $r6
	@DEBUG_VALUE: CLK_EnableAPLL:u32PllFreq <- $r1
	cmp	r0, #1
	beq	.LBB19_29
.Ltmp355:
@ %bb.23:                               @   in Loop: Header=BB19_21 Depth=1
	@DEBUG_VALUE: CLK_WaitClockReady:u32TimeOutCnt <- [DW_OP_constu 1, DW_OP_minus, DW_OP_stack_value] $r0
	@DEBUG_VALUE: CLK_WaitClockReady:u32ClkMask <- 32
	@DEBUG_VALUE: CLK_WaitClockReady:u32Ret <- 1
	@DEBUG_VALUE: CLK_EnableAPLL:u32PllClkSrc <- $r7
	@DEBUG_VALUE: CLK_EnableAPLL:u32PllSelect <- $r6
	@DEBUG_VALUE: CLK_EnableAPLL:u32PllFreq <- $r1
	@DEBUG_VALUE: CLK_WaitClockReady:u32TimeOutCnt <- [DW_OP_constu 1, DW_OP_minus, DW_OP_stack_value] $r0
	.loc	9 1594 18                       @ ../../../../Library/StdDriver/src/clk.c:1594:18
	ldr	r2, [r3]
.Ltmp356:
	@DEBUG_VALUE: CLK_WaitClockReady:u32TimeOutCnt <- [DW_OP_constu 2, DW_OP_minus, DW_OP_stack_value] $r0
	.loc	9 1594 5                        @ ../../../../Library/StdDriver/src/clk.c:1594:5
	lsls	r2, r2, #26
	bmi	.LBB19_29
.Ltmp357:
@ %bb.24:                               @   in Loop: Header=BB19_21 Depth=1
	@DEBUG_VALUE: CLK_WaitClockReady:u32TimeOutCnt <- [DW_OP_constu 2, DW_OP_minus, DW_OP_stack_value] $r0
	@DEBUG_VALUE: CLK_WaitClockReady:u32ClkMask <- 32
	@DEBUG_VALUE: CLK_WaitClockReady:u32Ret <- 1
	@DEBUG_VALUE: CLK_EnableAPLL:u32PllClkSrc <- $r7
	@DEBUG_VALUE: CLK_EnableAPLL:u32PllSelect <- $r6
	@DEBUG_VALUE: CLK_EnableAPLL:u32PllFreq <- $r1
	cbz	r0, .LBB19_29
.Ltmp358:
@ %bb.25:                               @   in Loop: Header=BB19_21 Depth=1
	@DEBUG_VALUE: CLK_WaitClockReady:u32TimeOutCnt <- [DW_OP_constu 2, DW_OP_minus, DW_OP_stack_value] $r0
	@DEBUG_VALUE: CLK_WaitClockReady:u32ClkMask <- 32
	@DEBUG_VALUE: CLK_WaitClockReady:u32Ret <- 1
	@DEBUG_VALUE: CLK_EnableAPLL:u32PllClkSrc <- $r7
	@DEBUG_VALUE: CLK_EnableAPLL:u32PllSelect <- $r6
	@DEBUG_VALUE: CLK_EnableAPLL:u32PllFreq <- $r1
	@DEBUG_VALUE: CLK_WaitClockReady:u32TimeOutCnt <- [DW_OP_constu 2, DW_OP_minus, DW_OP_stack_value] $r0
	.loc	9 1594 18                       @ ../../../../Library/StdDriver/src/clk.c:1594:18
	ldr	r2, [r3]
.Ltmp359:
	@DEBUG_VALUE: CLK_WaitClockReady:u32TimeOutCnt <- [DW_OP_constu 3, DW_OP_minus, DW_OP_stack_value] $r0
	.loc	9 1594 5                        @ ../../../../Library/StdDriver/src/clk.c:1594:5
	lsls	r2, r2, #26
	bmi	.LBB19_29
.Ltmp360:
@ %bb.26:                               @   in Loop: Header=BB19_21 Depth=1
	@DEBUG_VALUE: CLK_WaitClockReady:u32TimeOutCnt <- [DW_OP_constu 3, DW_OP_minus, DW_OP_stack_value] $r0
	@DEBUG_VALUE: CLK_WaitClockReady:u32ClkMask <- 32
	@DEBUG_VALUE: CLK_WaitClockReady:u32Ret <- 1
	@DEBUG_VALUE: CLK_EnableAPLL:u32PllClkSrc <- $r7
	@DEBUG_VALUE: CLK_EnableAPLL:u32PllSelect <- $r6
	@DEBUG_VALUE: CLK_EnableAPLL:u32PllFreq <- $r1
	adds	r2, r0, #1
	beq	.LBB19_29
.Ltmp361:
@ %bb.27:                               @   in Loop: Header=BB19_21 Depth=1
	@DEBUG_VALUE: CLK_WaitClockReady:u32TimeOutCnt <- [DW_OP_constu 3, DW_OP_minus, DW_OP_stack_value] $r0
	@DEBUG_VALUE: CLK_WaitClockReady:u32ClkMask <- 32
	@DEBUG_VALUE: CLK_WaitClockReady:u32Ret <- 1
	@DEBUG_VALUE: CLK_EnableAPLL:u32PllClkSrc <- $r7
	@DEBUG_VALUE: CLK_EnableAPLL:u32PllSelect <- $r6
	@DEBUG_VALUE: CLK_EnableAPLL:u32PllFreq <- $r1
	@DEBUG_VALUE: CLK_WaitClockReady:u32TimeOutCnt <- [DW_OP_constu 3, DW_OP_minus, DW_OP_stack_value] $r0
	.loc	9 1594 18                       @ ../../../../Library/StdDriver/src/clk.c:1594:18
	ldr	r2, [r3]
.Ltmp362:
	@DEBUG_VALUE: CLK_WaitClockReady:u32TimeOutCnt <- [DW_OP_LLVM_arg 0, DW_OP_consts 2, DW_OP_consts 18446744073709551615, DW_OP_LLVM_arg 0, DW_OP_consts 2, DW_OP_div, DW_OP_mul, DW_OP_plus, DW_OP_minus, DW_OP_consts 4, DW_OP_div, DW_OP_consts 18446744073709551612, DW_OP_mul, DW_OP_consts 18446744073709551612, DW_OP_LLVM_arg 0, DW_OP_consts 2, DW_OP_div, DW_OP_plus, DW_OP_plus, DW_OP_stack_value] undef
	.loc	9 1594 5                        @ ../../../../Library/StdDriver/src/clk.c:1594:5
	lsls	r2, r2, #26
	bmi	.LBB19_29
.Ltmp363:
@ %bb.28:                               @   in Loop: Header=BB19_21 Depth=1
	@DEBUG_VALUE: CLK_WaitClockReady:u32ClkMask <- 32
	@DEBUG_VALUE: CLK_WaitClockReady:u32Ret <- 1
	@DEBUG_VALUE: CLK_EnableAPLL:u32PllClkSrc <- $r7
	@DEBUG_VALUE: CLK_EnableAPLL:u32PllSelect <- $r6
	@DEBUG_VALUE: CLK_EnableAPLL:u32PllFreq <- $r1
	adds	r2, r0, #2
	add.w	r0, r0, #4
	bne	.LBB19_21
.Ltmp364:
.LBB19_29:
	@DEBUG_VALUE: CLK_EnableAPLL:u32PllClkSrc <- $r7
	@DEBUG_VALUE: CLK_EnableAPLL:u32PllSelect <- $r6
	@DEBUG_VALUE: CLK_EnableAPLL:u32PllFreq <- $r1
	.loc	9 0 5                           @ ../../../../Library/StdDriver/src/clk.c:0:5
	movw	r4, #6912
	mov.w	r5, #268435456
	movt	r4, #183
.Ltmp365:
.LBB19_30:
	@DEBUG_VALUE: CLK_EnableAPLL:u32PllClkSrc <- $r7
	@DEBUG_VALUE: CLK_EnableAPLL:u32PllSelect <- $r6
	@DEBUG_VALUE: CLK_EnableAPLL:u32PllFreq <- $r1
	@DEBUG_VALUE: CLK_EnableAPLL:u32PllSrcClk <- $r4
	@DEBUG_VALUE: CLK_EnableAPLL:u32StableSel <- $r5
	movw	r0, #34752
	movw	r2, #60608
	movt	r0, #65154
.Ltmp366:
	.loc	9 1407 37 is_stmt 1             @ ../../../../Library/StdDriver/src/clk.c:1407:37
	add	r0, r1
	movt	r2, #7247
	cmp	r0, r2
	bhi.w	.LBB19_77
.Ltmp367:
@ %bb.31:
	@DEBUG_VALUE: CLK_EnableAPLL:u32StableSel <- $r5
	@DEBUG_VALUE: CLK_EnableAPLL:u32PllSrcClk <- $r4
	@DEBUG_VALUE: CLK_EnableAPLL:u32PllClkSrc <- $r7
	@DEBUG_VALUE: CLK_EnableAPLL:u32PllSelect <- $r6
	@DEBUG_VALUE: CLK_EnableAPLL:u32PllFreq <- $r1
	.loc	9 0 37 is_stmt 0                @ ../../../../Library/StdDriver/src/clk.c:0:37
	add	r0, sp, #4
	stm	r0!, {r5, r6, r7}               @ 12-byte Folded Spill
	movw	r5, #49665
.Ltmp368:
	movt	r5, #3051
	movs	r7, #3
.Ltmp369:
	@DEBUG_VALUE: CLK_EnableAPLL:u32PllClkSrc <- [DW_OP_LLVM_entry_value 1] $r0
	.loc	9 1410 40 is_stmt 1             @ ../../../../Library/StdDriver/src/clk.c:1410:40
	subs	r0, r5, #1
	mov.w	r6, #-1
.Ltmp370:
	@DEBUG_VALUE: CLK_EnableAPLL:u32PllSelect <- [DW_OP_LLVM_entry_value 1] $r2
	cmp	r1, r0
	movw	r0, #57600
	cset	r2, lo
	movt	r0, #1525
	cmp	r1, r0
	mov	r0, r2
	itt	lo
	movlo	r0, #2
	movlo	r2, #3
.Ltmp371:
	@DEBUG_VALUE: CLK_EnableAPLL:u32NO <- $r2
	.loc	9 0 0 is_stmt 0                 @ ../../../../Library/StdDriver/src/clk.c:0:0
	lsl.w	r8, r1, r0
.Ltmp372:
	@DEBUG_VALUE: CLK_EnableAPLL:u32MinNF <- 0
	@DEBUG_VALUE: CLK_EnableAPLL:u32MinNR <- 0
	@DEBUG_VALUE: CLK_EnableAPLL:u32Min <- -1
	@DEBUG_VALUE: CLK_EnableAPLL:u32NR <- 3
	@DEBUG_VALUE: CLK_EnableAPLL:u32PllFreq <- $r8
	.loc	9 1433 9 is_stmt 1              @ ../../../../Library/StdDriver/src/clk.c:1433:9
	rsb.w	r0, r8, #0
	str	r0, [sp, #16]                   @ 4-byte Spill
	movs	r0, #0
	str	r0, [sp, #96]                   @ 4-byte Spill
	movs	r0, #4
	str	r0, [sp, #28]                   @ 4-byte Spill
	movs	r0, #0
	str	r2, [sp]                        @ 4-byte Spill
.Ltmp373:
	@DEBUG_VALUE: CLK_EnableAPLL:u32NO <- [$sp+0]
	@DEBUG_VALUE: CLK_EnableAPLL:u32NO <- [$sp+0]
	.loc	9 0 9 is_stmt 0                 @ ../../../../Library/StdDriver/src/clk.c:0:9
	str	r4, [sp, #24]                   @ 4-byte Spill
	b	.LBB19_35
.Ltmp374:
.LBB19_32:                              @   in Loop: Header=BB19_35 Depth=1
	@DEBUG_VALUE: CLK_EnableAPLL:u32MinNR <- [DW_OP_plus_uconst 92] [$sp+0]
	@DEBUG_VALUE: CLK_EnableAPLL:u32NR <- [DW_OP_plus_uconst 92] [$sp+0]
	@DEBUG_VALUE: CLK_EnableAPLL:u32NO <- [$sp+0]
	@DEBUG_VALUE: CLK_EnableAPLL:u32PllFreq <- $r8
	@DEBUG_VALUE: CLK_EnableAPLL:u32PllSelect <- [DW_OP_LLVM_entry_value 1] $r2
	@DEBUG_VALUE: CLK_EnableAPLL:u32PllClkSrc <- [DW_OP_LLVM_entry_value 1] $r0
	movs	r6, #0
.Ltmp375:
.LBB19_33:                              @   in Loop: Header=BB19_35 Depth=1
	@DEBUG_VALUE: CLK_EnableAPLL:u32MinNR <- [DW_OP_plus_uconst 92] [$sp+0]
	@DEBUG_VALUE: CLK_EnableAPLL:u32NR <- [DW_OP_plus_uconst 92] [$sp+0]
	@DEBUG_VALUE: CLK_EnableAPLL:u32NO <- [$sp+0]
	@DEBUG_VALUE: CLK_EnableAPLL:u32PllFreq <- $r8
	@DEBUG_VALUE: CLK_EnableAPLL:u32PllSelect <- [DW_OP_LLVM_entry_value 1] $r2
	@DEBUG_VALUE: CLK_EnableAPLL:u32PllClkSrc <- [DW_OP_LLVM_entry_value 1] $r0
	ldr	r1, [sp, #92]                   @ 4-byte Reload
	str	r1, [sp, #96]                   @ 4-byte Spill
.Ltmp376:
.LBB19_34:                              @   in Loop: Header=BB19_35 Depth=1
	@DEBUG_VALUE: CLK_EnableAPLL:u32NR <- [DW_OP_plus_uconst 92] [$sp+0]
	@DEBUG_VALUE: CLK_EnableAPLL:u32NO <- [$sp+0]
	@DEBUG_VALUE: CLK_EnableAPLL:u32PllFreq <- $r8
	@DEBUG_VALUE: CLK_EnableAPLL:u32PllSelect <- [DW_OP_LLVM_entry_value 1] $r2
	@DEBUG_VALUE: CLK_EnableAPLL:u32PllClkSrc <- [DW_OP_LLVM_entry_value 1] $r0
	@DEBUG_VALUE: CLK_EnableAPLL:u32Min <- $r6
	@DEBUG_VALUE: CLK_EnableAPLL:u32MinNR <- [DW_OP_plus_uconst 96] [$sp+0]
	@DEBUG_VALUE: CLK_EnableAPLL:u32MinNF <- $r0
	ldr	r7, [sp, #20]                   @ 4-byte Reload
	.loc	9 1433 9                        @ ../../../../Library/StdDriver/src/clk.c:1433:9
	ldr	r1, [sp, #28]                   @ 4-byte Reload
.Ltmp377:
	.loc	9 1433 36                       @ ../../../../Library/StdDriver/src/clk.c:1433:36
	adds	r7, #2
.Ltmp378:
	@DEBUG_VALUE: CLK_EnableAPLL:u32NR <- $r7
	.loc	9 0 36                          @ ../../../../Library/StdDriver/src/clk.c:0:36
	ldr	r4, [sp, #24]                   @ 4-byte Reload
.Ltmp379:
	.loc	9 1433 9                        @ ../../../../Library/StdDriver/src/clk.c:1433:9
	cmp	r7, #33
	add.w	r1, r1, #2
	str	r1, [sp, #28]                   @ 4-byte Spill
	beq.w	.LBB19_81
.Ltmp380:
.LBB19_35:                              @ =>This Loop Header: Depth=1
                                        @     Child Loop BB19_39 Depth 2
                                        @     Child Loop BB19_61 Depth 2
	@DEBUG_VALUE: CLK_EnableAPLL:u32NO <- [$sp+0]
	@DEBUG_VALUE: CLK_EnableAPLL:u32PllFreq <- $r8
	@DEBUG_VALUE: CLK_EnableAPLL:u32PllSelect <- [DW_OP_LLVM_entry_value 1] $r2
	@DEBUG_VALUE: CLK_EnableAPLL:u32PllClkSrc <- [DW_OP_LLVM_entry_value 1] $r0
	@DEBUG_VALUE: CLK_EnableAPLL:u32NR <- $r7
	@DEBUG_VALUE: CLK_EnableAPLL:u32Min <- $r6
	@DEBUG_VALUE: CLK_EnableAPLL:u32MinNR <- [DW_OP_plus_uconst 96] [$sp+0]
	@DEBUG_VALUE: CLK_EnableAPLL:u32MinNF <- $r0
	@DEBUG_VALUE: CLK_EnableAPLL:u32Tmp <- undef
	.loc	9 1438 17 is_stmt 1             @ ../../../../Library/StdDriver/src/clk.c:1438:17
	cmp	r6, #0
	beq.w	.LBB19_81
.Ltmp381:
@ %bb.36:                               @   in Loop: Header=BB19_35 Depth=1
	@DEBUG_VALUE: CLK_EnableAPLL:u32MinNF <- $r0
	@DEBUG_VALUE: CLK_EnableAPLL:u32MinNR <- [DW_OP_plus_uconst 96] [$sp+0]
	@DEBUG_VALUE: CLK_EnableAPLL:u32Min <- $r6
	@DEBUG_VALUE: CLK_EnableAPLL:u32NR <- $r7
	@DEBUG_VALUE: CLK_EnableAPLL:u32NO <- [$sp+0]
	@DEBUG_VALUE: CLK_EnableAPLL:u32PllFreq <- $r8
	@DEBUG_VALUE: CLK_EnableAPLL:u32PllSelect <- [DW_OP_LLVM_entry_value 1] $r2
	@DEBUG_VALUE: CLK_EnableAPLL:u32PllClkSrc <- [DW_OP_LLVM_entry_value 1] $r0
	.loc	9 0 0 is_stmt 0                 @ ../../../../Library/StdDriver/src/clk.c:0:0
	udiv	r1, r4, r7
.Ltmp382:
	@DEBUG_VALUE: CLK_EnableAPLL:u32Tmp <- $r1
	.loc	9 1443 39 is_stmt 1             @ ../../../../Library/StdDriver/src/clk.c:1443:39
	movw	r2, #63232
	movw	r3, #2305
	movt	r2, #65474
	add	r2, r1
	movt	r3, #61
	cmp	r2, r3
	bhs.w	.LBB19_57
.Ltmp383:
@ %bb.37:                               @   in Loop: Header=BB19_35 Depth=1
	@DEBUG_VALUE: CLK_EnableAPLL:u32Tmp <- $r1
	@DEBUG_VALUE: CLK_EnableAPLL:u32MinNF <- $r0
	@DEBUG_VALUE: CLK_EnableAPLL:u32MinNR <- [DW_OP_plus_uconst 96] [$sp+0]
	@DEBUG_VALUE: CLK_EnableAPLL:u32Min <- $r6
	@DEBUG_VALUE: CLK_EnableAPLL:u32NR <- $r7
	@DEBUG_VALUE: CLK_EnableAPLL:u32NO <- [$sp+0]
	@DEBUG_VALUE: CLK_EnableAPLL:u32PllFreq <- $r8
	@DEBUG_VALUE: CLK_EnableAPLL:u32PllSelect <- [DW_OP_LLVM_entry_value 1] $r2
	@DEBUG_VALUE: CLK_EnableAPLL:u32PllClkSrc <- [DW_OP_LLVM_entry_value 1] $r0
	.loc	9 1451 35                       @ ../../../../Library/StdDriver/src/clk.c:1451:35
	sub.w	r2, r1, r1, lsl #4
	rsb	r3, r1, r1, lsl #3
	lsls	r2, r2, #1
	mov	r12, r7
.Ltmp384:
	.loc	9 0 0 is_stmt 0                 @ ../../../../Library/StdDriver/src/clk.c:0:0
	str	r2, [sp, #40]                   @ 4-byte Spill
	movw	lr, #3968
	lsls	r2, r1, #2
	mov.w	r9, #15
.Ltmp385:
	.loc	9 1451 35                       @ ../../../../Library/StdDriver/src/clk.c:1451:35
	str	r2, [sp, #80]                   @ 4-byte Spill
	sub.w	r2, r1, r1, lsl #3
	ldr	r7, [sp, #16]                   @ 4-byte Reload
.Ltmp386:
	lsls	r2, r2, #2
	str	r2, [sp, #52]                   @ 4-byte Spill
	lsls	r2, r3, #2
	str	r2, [sp, #48]                   @ 4-byte Spill
	add.w	r2, r7, r3, lsl #2
.Ltmp387:
	.loc	9 0 0                           @ ../../../../Library/StdDriver/src/clk.c:0:0
	lsls	r4, r1, #3
.Ltmp388:
	.loc	9 1449 50 is_stmt 1             @ ../../../../Library/StdDriver/src/clk.c:1449:50
	str	r2, [sp, #44]                   @ 4-byte Spill
	lsls	r2, r3, #1
.Ltmp389:
	.loc	9 1451 35                       @ ../../../../Library/StdDriver/src/clk.c:1451:35
	str	r2, [sp, #84]                   @ 4-byte Spill
	mvn	r2, #25
	muls	r2, r1, r2
	rsb	r11, r1, r1, lsl #4
	str	r2, [sp, #64]                   @ 4-byte Spill
	movs	r2, #26
	mul	r3, r1, r2
	mla	r2, r1, r2, r7
	str	r3, [sp, #60]                   @ 4-byte Spill
.Ltmp390:
	.loc	9 1449 50                       @ ../../../../Library/StdDriver/src/clk.c:1449:50
	str	r2, [sp, #56]                   @ 4-byte Spill
	movs	r2, #13
	muls	r2, r1, r2
	movt	lr, #64773
	str	r2, [sp, #88]                   @ 4-byte Spill
	add.w	r2, r1, r1, lsl #1
.Ltmp391:
	.loc	9 1451 35                       @ ../../../../Library/StdDriver/src/clk.c:1451:35
	sub.w	r1, r1, r1, lsl #2
.Ltmp392:
	.loc	9 1449 50                       @ ../../../../Library/StdDriver/src/clk.c:1449:50
	lsls	r3, r2, #2
.Ltmp393:
	.loc	9 1451 35                       @ ../../../../Library/StdDriver/src/clk.c:1451:35
	lsls	r1, r1, #3
	str	r1, [sp, #76]                   @ 4-byte Spill
	lsls	r1, r2, #3
	str	r1, [sp, #72]                   @ 4-byte Spill
	add.w	r1, r7, r2, lsl #3
	str	r3, [sp, #92]                   @ 4-byte Spill
	str	r1, [sp, #68]                   @ 4-byte Spill
	lsl.w	r1, r11, #1
	str	r1, [sp, #36]                   @ 4-byte Spill
	add.w	r1, r7, r11, lsl #1
	mov	r7, r12
	mov.w	r12, #0
	str	r1, [sp, #32]                   @ 4-byte Spill
	mov	r1, r8
	b	.LBB19_39
.Ltmp394:
	.p2align	2
.LBB19_38:                              @   in Loop: Header=BB19_39 Depth=2
	@DEBUG_VALUE: CLK_EnableAPLL:u32NF <- $r9
	@DEBUG_VALUE: CLK_EnableAPLL:u32Min <- $r6
	@DEBUG_VALUE: CLK_EnableAPLL:u32NO <- [$sp+0]
	@DEBUG_VALUE: CLK_EnableAPLL:u32PllFreq <- $r8
	@DEBUG_VALUE: CLK_EnableAPLL:u32PllSelect <- [DW_OP_LLVM_entry_value 1] $r2
	@DEBUG_VALUE: CLK_EnableAPLL:u32PllClkSrc <- [DW_OP_LLVM_entry_value 1] $r0
	@DEBUG_VALUE: CLK_EnableAPLL:u32Min <- $r6
	@DEBUG_VALUE: CLK_EnableAPLL:u32MinNR <- [DW_OP_plus_uconst 96] [$sp+0]
	@DEBUG_VALUE: CLK_EnableAPLL:u32MinNF <- $r0
	@DEBUG_VALUE: CLK_EnableAPLL:u32NF <- [DW_OP_plus_uconst 1, DW_OP_stack_value] $r9
	.loc	9 1445 42                       @ ../../../../Library/StdDriver/src/clk.c:1445:42
	add.w	r9, r9, #4
.Ltmp395:
	.loc	9 1445 17 is_stmt 0             @ ../../../../Library/StdDriver/src/clk.c:1445:17
	movw	r2, #259
	cmp	r9, r2
.Ltmp396:
	.loc	9 1445 42                       @ ../../../../Library/StdDriver/src/clk.c:1445:42
	ldr	r2, [sp, #80]                   @ 4-byte Reload
	sub.w	r1, r1, r4
	add	r12, r4
	add	lr, r2
.Ltmp397:
	.loc	9 1445 17                       @ ../../../../Library/StdDriver/src/clk.c:1445:17
	beq	.LBB19_57
.Ltmp398:
.LBB19_39:                              @   Parent Loop BB19_35 Depth=1
                                        @ =>  This Inner Loop Header: Depth=2
	@DEBUG_VALUE: CLK_EnableAPLL:u32MinNF <- $r0
	@DEBUG_VALUE: CLK_EnableAPLL:u32MinNR <- [DW_OP_plus_uconst 96] [$sp+0]
	@DEBUG_VALUE: CLK_EnableAPLL:u32Min <- $r6
	@DEBUG_VALUE: CLK_EnableAPLL:u32NO <- [$sp+0]
	@DEBUG_VALUE: CLK_EnableAPLL:u32PllFreq <- $r8
	@DEBUG_VALUE: CLK_EnableAPLL:u32PllSelect <- [DW_OP_LLVM_entry_value 1] $r2
	@DEBUG_VALUE: CLK_EnableAPLL:u32PllClkSrc <- [DW_OP_LLVM_entry_value 1] $r0
	@DEBUG_VALUE: CLK_EnableAPLL:u32Min <- $r6
	@DEBUG_VALUE: CLK_EnableAPLL:u32MinNR <- [DW_OP_plus_uconst 96] [$sp+0]
	@DEBUG_VALUE: CLK_EnableAPLL:u32MinNF <- $r0
	@DEBUG_VALUE: CLK_EnableAPLL:u32NF <- [DW_OP_constu 3, DW_OP_minus, DW_OP_stack_value] $r9
	@DEBUG_VALUE: CLK_EnableAPLL:u32Tmp2 <- undef
	.loc	9 1449 50 is_stmt 1             @ ../../../../Library/StdDriver/src/clk.c:1449:50
	ldr	r2, [sp, #92]                   @ 4-byte Reload
	add	r2, lr
	cmp	r2, r5
	bhs	.LBB19_43
.Ltmp399:
@ %bb.40:                               @   in Loop: Header=BB19_39 Depth=2
	@DEBUG_VALUE: CLK_EnableAPLL:u32NF <- [DW_OP_constu 3, DW_OP_minus, DW_OP_stack_value] $r9
	@DEBUG_VALUE: CLK_EnableAPLL:u32MinNF <- $r0
	@DEBUG_VALUE: CLK_EnableAPLL:u32MinNR <- [DW_OP_plus_uconst 96] [$sp+0]
	@DEBUG_VALUE: CLK_EnableAPLL:u32Min <- $r6
	@DEBUG_VALUE: CLK_EnableAPLL:u32NO <- [$sp+0]
	@DEBUG_VALUE: CLK_EnableAPLL:u32PllFreq <- $r8
	@DEBUG_VALUE: CLK_EnableAPLL:u32PllSelect <- [DW_OP_LLVM_entry_value 1] $r2
	@DEBUG_VALUE: CLK_EnableAPLL:u32PllClkSrc <- [DW_OP_LLVM_entry_value 1] $r0
	@DEBUG_VALUE: CLK_EnableAPLL:u32Tmp2 <- undef
	.loc	9 1451 44                       @ ../../../../Library/StdDriver/src/clk.c:1451:44
	ldr	r2, [sp, #72]                   @ 4-byte Reload
	.loc	9 1451 35 is_stmt 0             @ ../../../../Library/StdDriver/src/clk.c:1451:35
	ldr	r3, [sp, #76]                   @ 4-byte Reload
	.loc	9 1451 44                       @ ../../../../Library/StdDriver/src/clk.c:1451:44
	add	r2, r12
	.loc	9 1451 35                       @ ../../../../Library/StdDriver/src/clk.c:1451:35
	add.w	r10, r3, r1
	cmp	r2, r8
	ldr	r2, [sp, #68]                   @ 4-byte Reload
	it	hi
	addhi.w	r10, r2, r12
.Ltmp400:
	@DEBUG_VALUE: CLK_EnableAPLL:u32Tmp3 <- $r10
	.loc	9 1453 29 is_stmt 1             @ ../../../../Library/StdDriver/src/clk.c:1453:29
	cmp	r10, r6
	bhs	.LBB19_43
.Ltmp401:
@ %bb.41:                               @   in Loop: Header=BB19_39 Depth=2
	@DEBUG_VALUE: CLK_EnableAPLL:u32Tmp3 <- $r10
	@DEBUG_VALUE: CLK_EnableAPLL:u32NF <- [DW_OP_constu 3, DW_OP_minus, DW_OP_stack_value] $r9
	@DEBUG_VALUE: CLK_EnableAPLL:u32MinNF <- $r0
	@DEBUG_VALUE: CLK_EnableAPLL:u32MinNR <- [DW_OP_plus_uconst 96] [$sp+0]
	@DEBUG_VALUE: CLK_EnableAPLL:u32Min <- $r6
	@DEBUG_VALUE: CLK_EnableAPLL:u32NO <- [$sp+0]
	@DEBUG_VALUE: CLK_EnableAPLL:u32PllFreq <- $r8
	@DEBUG_VALUE: CLK_EnableAPLL:u32PllSelect <- [DW_OP_LLVM_entry_value 1] $r2
	@DEBUG_VALUE: CLK_EnableAPLL:u32PllClkSrc <- [DW_OP_LLVM_entry_value 1] $r0
	.loc	9 1460 33                       @ ../../../../Library/StdDriver/src/clk.c:1460:33
	cmp.w	r10, #0
.Ltmp402:
	.loc	9 0 0 is_stmt 0                 @ ../../../../Library/StdDriver/src/clk.c:0:0
	sub.w	r0, r9, #3
.Ltmp403:
	@DEBUG_VALUE: CLK_EnableAPLL:u32MinNF <- [DW_OP_constu 3, DW_OP_minus, DW_OP_stack_value] $r9
	@DEBUG_VALUE: CLK_EnableAPLL:u32MinNR <- $r7
	@DEBUG_VALUE: CLK_EnableAPLL:u32Min <- $r10
	.loc	9 1460 33                       @ ../../../../Library/StdDriver/src/clk.c:1460:33
	beq	.LBB19_55
.Ltmp404:
@ %bb.42:                               @   in Loop: Header=BB19_39 Depth=2
	@DEBUG_VALUE: CLK_EnableAPLL:u32Min <- $r10
	@DEBUG_VALUE: CLK_EnableAPLL:u32MinNR <- $r7
	@DEBUG_VALUE: CLK_EnableAPLL:u32MinNF <- [DW_OP_constu 3, DW_OP_minus, DW_OP_stack_value] $r9
	@DEBUG_VALUE: CLK_EnableAPLL:u32Tmp3 <- $r10
	@DEBUG_VALUE: CLK_EnableAPLL:u32NF <- [DW_OP_constu 3, DW_OP_minus, DW_OP_stack_value] $r9
	@DEBUG_VALUE: CLK_EnableAPLL:u32NO <- [$sp+0]
	@DEBUG_VALUE: CLK_EnableAPLL:u32PllFreq <- $r8
	@DEBUG_VALUE: CLK_EnableAPLL:u32PllSelect <- [DW_OP_LLVM_entry_value 1] $r2
	@DEBUG_VALUE: CLK_EnableAPLL:u32PllClkSrc <- [DW_OP_LLVM_entry_value 1] $r0
	@DEBUG_VALUE: CLK_EnableAPLL:u32Min <- $r10
	.loc	9 0 33                          @ ../../../../Library/StdDriver/src/clk.c:0:33
	mov	r6, r10
.Ltmp405:
	@DEBUG_VALUE: CLK_EnableAPLL:u32Tmp3 <- $r6
	@DEBUG_VALUE: CLK_EnableAPLL:u32Min <- $r6
	str	r7, [sp, #96]                   @ 4-byte Spill
.Ltmp406:
.LBB19_43:                              @   in Loop: Header=BB19_39 Depth=2
	@DEBUG_VALUE: CLK_EnableAPLL:u32NF <- [DW_OP_constu 3, DW_OP_minus, DW_OP_stack_value] $r9
	@DEBUG_VALUE: CLK_EnableAPLL:u32Min <- $r6
	@DEBUG_VALUE: CLK_EnableAPLL:u32NO <- [$sp+0]
	@DEBUG_VALUE: CLK_EnableAPLL:u32PllFreq <- $r8
	@DEBUG_VALUE: CLK_EnableAPLL:u32PllSelect <- [DW_OP_LLVM_entry_value 1] $r2
	@DEBUG_VALUE: CLK_EnableAPLL:u32PllClkSrc <- [DW_OP_LLVM_entry_value 1] $r0
	@DEBUG_VALUE: CLK_EnableAPLL:u32Min <- $r6
	@DEBUG_VALUE: CLK_EnableAPLL:u32MinNR <- [DW_OP_plus_uconst 96] [$sp+0]
	@DEBUG_VALUE: CLK_EnableAPLL:u32MinNF <- $r0
	@DEBUG_VALUE: CLK_EnableAPLL:u32NF <- [DW_OP_constu 2, DW_OP_minus, DW_OP_stack_value] $r9
	@DEBUG_VALUE: CLK_EnableAPLL:u32Tmp2 <- undef
	.loc	9 1449 50 is_stmt 1             @ ../../../../Library/StdDriver/src/clk.c:1449:50
	ldr	r2, [sp, #88]                   @ 4-byte Reload
	add	r2, lr
	cmp	r2, r5
	bhs	.LBB19_47
.Ltmp407:
@ %bb.44:                               @   in Loop: Header=BB19_39 Depth=2
	@DEBUG_VALUE: CLK_EnableAPLL:u32NF <- [DW_OP_constu 2, DW_OP_minus, DW_OP_stack_value] $r9
	@DEBUG_VALUE: CLK_EnableAPLL:u32MinNF <- $r0
	@DEBUG_VALUE: CLK_EnableAPLL:u32MinNR <- [DW_OP_plus_uconst 96] [$sp+0]
	@DEBUG_VALUE: CLK_EnableAPLL:u32Min <- $r6
	@DEBUG_VALUE: CLK_EnableAPLL:u32NO <- [$sp+0]
	@DEBUG_VALUE: CLK_EnableAPLL:u32PllFreq <- $r8
	@DEBUG_VALUE: CLK_EnableAPLL:u32PllSelect <- [DW_OP_LLVM_entry_value 1] $r2
	@DEBUG_VALUE: CLK_EnableAPLL:u32PllClkSrc <- [DW_OP_LLVM_entry_value 1] $r0
	@DEBUG_VALUE: CLK_EnableAPLL:u32Tmp2 <- undef
	.loc	9 1451 44                       @ ../../../../Library/StdDriver/src/clk.c:1451:44
	ldr	r2, [sp, #60]                   @ 4-byte Reload
	add.w	r3, r2, r12
	.loc	9 1451 35 is_stmt 0             @ ../../../../Library/StdDriver/src/clk.c:1451:35
	ldr	r2, [sp, #64]                   @ 4-byte Reload
	cmp	r3, r8
	add	r2, r1
	ldr	r3, [sp, #56]                   @ 4-byte Reload
	it	hi
	addhi.w	r2, r3, r12
.Ltmp408:
	@DEBUG_VALUE: CLK_EnableAPLL:u32Tmp3 <- $r2
	.loc	9 1453 29 is_stmt 1             @ ../../../../Library/StdDriver/src/clk.c:1453:29
	cmp	r2, r6
	bhs	.LBB19_47
.Ltmp409:
@ %bb.45:                               @   in Loop: Header=BB19_39 Depth=2
	@DEBUG_VALUE: CLK_EnableAPLL:u32Tmp3 <- $r2
	@DEBUG_VALUE: CLK_EnableAPLL:u32NF <- [DW_OP_constu 2, DW_OP_minus, DW_OP_stack_value] $r9
	@DEBUG_VALUE: CLK_EnableAPLL:u32MinNF <- $r0
	@DEBUG_VALUE: CLK_EnableAPLL:u32MinNR <- [DW_OP_plus_uconst 96] [$sp+0]
	@DEBUG_VALUE: CLK_EnableAPLL:u32Min <- $r6
	@DEBUG_VALUE: CLK_EnableAPLL:u32NO <- [$sp+0]
	@DEBUG_VALUE: CLK_EnableAPLL:u32PllFreq <- $r8
	@DEBUG_VALUE: CLK_EnableAPLL:u32PllSelect <- [DW_OP_LLVM_entry_value 1] $r2
	@DEBUG_VALUE: CLK_EnableAPLL:u32PllClkSrc <- [DW_OP_LLVM_entry_value 1] $r0
	.loc	9 0 0 is_stmt 0                 @ ../../../../Library/StdDriver/src/clk.c:0:0
	sub.w	r0, r9, #2
.Ltmp410:
	@DEBUG_VALUE: CLK_EnableAPLL:u32MinNF <- [DW_OP_constu 2, DW_OP_minus, DW_OP_stack_value] $r9
	@DEBUG_VALUE: CLK_EnableAPLL:u32MinNR <- $r7
	@DEBUG_VALUE: CLK_EnableAPLL:u32Min <- $r2
	.loc	9 1460 33 is_stmt 1             @ ../../../../Library/StdDriver/src/clk.c:1460:33
	cbz	r2, .LBB19_55
.Ltmp411:
@ %bb.46:                               @   in Loop: Header=BB19_39 Depth=2
	@DEBUG_VALUE: CLK_EnableAPLL:u32Min <- $r2
	@DEBUG_VALUE: CLK_EnableAPLL:u32MinNF <- [DW_OP_constu 2, DW_OP_minus, DW_OP_stack_value] $r9
	@DEBUG_VALUE: CLK_EnableAPLL:u32Tmp3 <- $r2
	@DEBUG_VALUE: CLK_EnableAPLL:u32NF <- [DW_OP_constu 2, DW_OP_minus, DW_OP_stack_value] $r9
	@DEBUG_VALUE: CLK_EnableAPLL:u32MinNR <- $r7
	@DEBUG_VALUE: CLK_EnableAPLL:u32NO <- [$sp+0]
	@DEBUG_VALUE: CLK_EnableAPLL:u32PllFreq <- $r8
	@DEBUG_VALUE: CLK_EnableAPLL:u32PllSelect <- [DW_OP_LLVM_entry_value 1] $r2
	@DEBUG_VALUE: CLK_EnableAPLL:u32PllClkSrc <- [DW_OP_LLVM_entry_value 1] $r0
	@DEBUG_VALUE: CLK_EnableAPLL:u32Min <- $r2
	.loc	9 0 33 is_stmt 0                @ ../../../../Library/StdDriver/src/clk.c:0:33
	mov	r6, r2
.Ltmp412:
	@DEBUG_VALUE: CLK_EnableAPLL:u32Tmp3 <- $r6
	@DEBUG_VALUE: CLK_EnableAPLL:u32Min <- $r6
	str	r7, [sp, #96]                   @ 4-byte Spill
.Ltmp413:
.LBB19_47:                              @   in Loop: Header=BB19_39 Depth=2
	@DEBUG_VALUE: CLK_EnableAPLL:u32NF <- [DW_OP_constu 2, DW_OP_minus, DW_OP_stack_value] $r9
	@DEBUG_VALUE: CLK_EnableAPLL:u32Min <- $r6
	@DEBUG_VALUE: CLK_EnableAPLL:u32NO <- [$sp+0]
	@DEBUG_VALUE: CLK_EnableAPLL:u32PllFreq <- $r8
	@DEBUG_VALUE: CLK_EnableAPLL:u32PllSelect <- [DW_OP_LLVM_entry_value 1] $r2
	@DEBUG_VALUE: CLK_EnableAPLL:u32PllClkSrc <- [DW_OP_LLVM_entry_value 1] $r0
	@DEBUG_VALUE: CLK_EnableAPLL:u32Min <- $r6
	@DEBUG_VALUE: CLK_EnableAPLL:u32MinNR <- [DW_OP_plus_uconst 96] [$sp+0]
	@DEBUG_VALUE: CLK_EnableAPLL:u32MinNF <- $r0
	@DEBUG_VALUE: CLK_EnableAPLL:u32NF <- [DW_OP_constu 1, DW_OP_minus, DW_OP_stack_value] $r9
	@DEBUG_VALUE: CLK_EnableAPLL:u32Tmp2 <- undef
	.loc	9 1449 50 is_stmt 1             @ ../../../../Library/StdDriver/src/clk.c:1449:50
	ldr	r2, [sp, #84]                   @ 4-byte Reload
	add	r2, lr
	cmp	r2, r5
	bhs	.LBB19_51
.Ltmp414:
@ %bb.48:                               @   in Loop: Header=BB19_39 Depth=2
	@DEBUG_VALUE: CLK_EnableAPLL:u32NF <- [DW_OP_constu 1, DW_OP_minus, DW_OP_stack_value] $r9
	@DEBUG_VALUE: CLK_EnableAPLL:u32MinNF <- $r0
	@DEBUG_VALUE: CLK_EnableAPLL:u32MinNR <- [DW_OP_plus_uconst 96] [$sp+0]
	@DEBUG_VALUE: CLK_EnableAPLL:u32Min <- $r6
	@DEBUG_VALUE: CLK_EnableAPLL:u32NO <- [$sp+0]
	@DEBUG_VALUE: CLK_EnableAPLL:u32PllFreq <- $r8
	@DEBUG_VALUE: CLK_EnableAPLL:u32PllSelect <- [DW_OP_LLVM_entry_value 1] $r2
	@DEBUG_VALUE: CLK_EnableAPLL:u32PllClkSrc <- [DW_OP_LLVM_entry_value 1] $r0
	@DEBUG_VALUE: CLK_EnableAPLL:u32Tmp2 <- undef
	.loc	9 1451 44                       @ ../../../../Library/StdDriver/src/clk.c:1451:44
	ldr	r2, [sp, #48]                   @ 4-byte Reload
	add.w	r3, r2, r12
	.loc	9 1451 35 is_stmt 0             @ ../../../../Library/StdDriver/src/clk.c:1451:35
	ldr	r2, [sp, #52]                   @ 4-byte Reload
	cmp	r3, r8
	add	r2, r1
	ldr	r3, [sp, #44]                   @ 4-byte Reload
	it	hi
	addhi.w	r2, r3, r12
.Ltmp415:
	@DEBUG_VALUE: CLK_EnableAPLL:u32Tmp3 <- $r2
	.loc	9 1453 29 is_stmt 1             @ ../../../../Library/StdDriver/src/clk.c:1453:29
	cmp	r2, r6
	bhs	.LBB19_51
.Ltmp416:
@ %bb.49:                               @   in Loop: Header=BB19_39 Depth=2
	@DEBUG_VALUE: CLK_EnableAPLL:u32NF <- [DW_OP_constu 1, DW_OP_minus, DW_OP_stack_value] $r9
	@DEBUG_VALUE: CLK_EnableAPLL:u32Tmp3 <- $r2
	@DEBUG_VALUE: CLK_EnableAPLL:u32MinNF <- $r0
	@DEBUG_VALUE: CLK_EnableAPLL:u32MinNR <- [DW_OP_plus_uconst 96] [$sp+0]
	@DEBUG_VALUE: CLK_EnableAPLL:u32Min <- $r6
	@DEBUG_VALUE: CLK_EnableAPLL:u32NO <- [$sp+0]
	@DEBUG_VALUE: CLK_EnableAPLL:u32PllFreq <- $r8
	@DEBUG_VALUE: CLK_EnableAPLL:u32PllSelect <- [DW_OP_LLVM_entry_value 1] $r2
	@DEBUG_VALUE: CLK_EnableAPLL:u32PllClkSrc <- [DW_OP_LLVM_entry_value 1] $r0
	.loc	9 0 0 is_stmt 0                 @ ../../../../Library/StdDriver/src/clk.c:0:0
	sub.w	r0, r9, #1
.Ltmp417:
	@DEBUG_VALUE: CLK_EnableAPLL:u32MinNF <- [DW_OP_constu 1, DW_OP_minus, DW_OP_stack_value] $r9
	@DEBUG_VALUE: CLK_EnableAPLL:u32MinNR <- $r7
	@DEBUG_VALUE: CLK_EnableAPLL:u32Min <- $r2
	.loc	9 1460 33 is_stmt 1             @ ../../../../Library/StdDriver/src/clk.c:1460:33
	cbz	r2, .LBB19_55
.Ltmp418:
@ %bb.50:                               @   in Loop: Header=BB19_39 Depth=2
	@DEBUG_VALUE: CLK_EnableAPLL:u32MinNF <- [DW_OP_constu 1, DW_OP_minus, DW_OP_stack_value] $r9
	@DEBUG_VALUE: CLK_EnableAPLL:u32NF <- [DW_OP_constu 1, DW_OP_minus, DW_OP_stack_value] $r9
	@DEBUG_VALUE: CLK_EnableAPLL:u32Min <- $r2
	@DEBUG_VALUE: CLK_EnableAPLL:u32Tmp3 <- $r2
	@DEBUG_VALUE: CLK_EnableAPLL:u32MinNR <- $r7
	@DEBUG_VALUE: CLK_EnableAPLL:u32NO <- [$sp+0]
	@DEBUG_VALUE: CLK_EnableAPLL:u32PllFreq <- $r8
	@DEBUG_VALUE: CLK_EnableAPLL:u32PllSelect <- [DW_OP_LLVM_entry_value 1] $r2
	@DEBUG_VALUE: CLK_EnableAPLL:u32PllClkSrc <- [DW_OP_LLVM_entry_value 1] $r0
	@DEBUG_VALUE: CLK_EnableAPLL:u32Min <- $r2
	.loc	9 0 33 is_stmt 0                @ ../../../../Library/StdDriver/src/clk.c:0:33
	mov	r6, r2
.Ltmp419:
	@DEBUG_VALUE: CLK_EnableAPLL:u32Tmp3 <- $r6
	@DEBUG_VALUE: CLK_EnableAPLL:u32Min <- $r6
	str	r7, [sp, #96]                   @ 4-byte Spill
.Ltmp420:
.LBB19_51:                              @   in Loop: Header=BB19_39 Depth=2
	@DEBUG_VALUE: CLK_EnableAPLL:u32NF <- [DW_OP_constu 1, DW_OP_minus, DW_OP_stack_value] $r9
	@DEBUG_VALUE: CLK_EnableAPLL:u32Min <- $r6
	@DEBUG_VALUE: CLK_EnableAPLL:u32NO <- [$sp+0]
	@DEBUG_VALUE: CLK_EnableAPLL:u32PllFreq <- $r8
	@DEBUG_VALUE: CLK_EnableAPLL:u32PllSelect <- [DW_OP_LLVM_entry_value 1] $r2
	@DEBUG_VALUE: CLK_EnableAPLL:u32PllClkSrc <- [DW_OP_LLVM_entry_value 1] $r0
	@DEBUG_VALUE: CLK_EnableAPLL:u32Min <- $r6
	@DEBUG_VALUE: CLK_EnableAPLL:u32MinNR <- [DW_OP_plus_uconst 96] [$sp+0]
	@DEBUG_VALUE: CLK_EnableAPLL:u32MinNF <- $r0
	@DEBUG_VALUE: CLK_EnableAPLL:u32NF <- $r9
	@DEBUG_VALUE: CLK_EnableAPLL:u32Tmp2 <- undef
	.loc	9 1449 50 is_stmt 1             @ ../../../../Library/StdDriver/src/clk.c:1449:50
	add.w	r2, r11, lr
	cmp	r2, r5
	bhs	.LBB19_38
.Ltmp421:
@ %bb.52:                               @   in Loop: Header=BB19_39 Depth=2
	@DEBUG_VALUE: CLK_EnableAPLL:u32NF <- $r9
	@DEBUG_VALUE: CLK_EnableAPLL:u32MinNF <- $r0
	@DEBUG_VALUE: CLK_EnableAPLL:u32MinNR <- [DW_OP_plus_uconst 96] [$sp+0]
	@DEBUG_VALUE: CLK_EnableAPLL:u32Min <- $r6
	@DEBUG_VALUE: CLK_EnableAPLL:u32NO <- [$sp+0]
	@DEBUG_VALUE: CLK_EnableAPLL:u32PllFreq <- $r8
	@DEBUG_VALUE: CLK_EnableAPLL:u32PllSelect <- [DW_OP_LLVM_entry_value 1] $r2
	@DEBUG_VALUE: CLK_EnableAPLL:u32PllClkSrc <- [DW_OP_LLVM_entry_value 1] $r0
	@DEBUG_VALUE: CLK_EnableAPLL:u32Tmp2 <- undef
	.loc	9 1451 44                       @ ../../../../Library/StdDriver/src/clk.c:1451:44
	ldr	r2, [sp, #36]                   @ 4-byte Reload
	add.w	r3, r2, r12
	.loc	9 1451 35 is_stmt 0             @ ../../../../Library/StdDriver/src/clk.c:1451:35
	ldr	r2, [sp, #40]                   @ 4-byte Reload
	cmp	r3, r8
	add	r2, r1
	ldr	r3, [sp, #32]                   @ 4-byte Reload
	it	hi
	addhi.w	r2, r3, r12
.Ltmp422:
	@DEBUG_VALUE: CLK_EnableAPLL:u32Tmp3 <- $r2
	.loc	9 1453 29 is_stmt 1             @ ../../../../Library/StdDriver/src/clk.c:1453:29
	cmp	r2, r6
	bhs	.LBB19_38
.Ltmp423:
@ %bb.53:                               @   in Loop: Header=BB19_39 Depth=2
	@DEBUG_VALUE: CLK_EnableAPLL:u32NF <- $r9
	@DEBUG_VALUE: CLK_EnableAPLL:u32Tmp3 <- $r2
	@DEBUG_VALUE: CLK_EnableAPLL:u32MinNF <- $r0
	@DEBUG_VALUE: CLK_EnableAPLL:u32MinNR <- [DW_OP_plus_uconst 96] [$sp+0]
	@DEBUG_VALUE: CLK_EnableAPLL:u32Min <- $r6
	@DEBUG_VALUE: CLK_EnableAPLL:u32NO <- [$sp+0]
	@DEBUG_VALUE: CLK_EnableAPLL:u32PllFreq <- $r8
	@DEBUG_VALUE: CLK_EnableAPLL:u32PllSelect <- [DW_OP_LLVM_entry_value 1] $r2
	@DEBUG_VALUE: CLK_EnableAPLL:u32PllClkSrc <- [DW_OP_LLVM_entry_value 1] $r0
	@DEBUG_VALUE: CLK_EnableAPLL:u32Min <- $r2
	@DEBUG_VALUE: CLK_EnableAPLL:u32MinNR <- $r7
	@DEBUG_VALUE: CLK_EnableAPLL:u32MinNF <- $r9
	.loc	9 1460 33                       @ ../../../../Library/StdDriver/src/clk.c:1460:33
	cmp	r2, #0
	mov	r6, r2
.Ltmp424:
	@DEBUG_VALUE: CLK_EnableAPLL:u32Tmp3 <- $r6
	@DEBUG_VALUE: CLK_EnableAPLL:u32Min <- $r6
	.loc	9 0 33 is_stmt 0                @ ../../../../Library/StdDriver/src/clk.c:0:33
	mov	r0, r9
	str	r7, [sp, #96]                   @ 4-byte Spill
	.loc	9 1460 33                       @ ../../../../Library/StdDriver/src/clk.c:1460:33
	bne	.LBB19_38
.Ltmp425:
@ %bb.54:                               @   in Loop: Header=BB19_35 Depth=1
	@DEBUG_VALUE: CLK_EnableAPLL:u32MinNF <- $r9
	@DEBUG_VALUE: CLK_EnableAPLL:u32NF <- $r9
	@DEBUG_VALUE: CLK_EnableAPLL:u32Tmp3 <- $r6
	@DEBUG_VALUE: CLK_EnableAPLL:u32MinNR <- $r7
	@DEBUG_VALUE: CLK_EnableAPLL:u32Min <- $r6
	@DEBUG_VALUE: CLK_EnableAPLL:u32NO <- [$sp+0]
	@DEBUG_VALUE: CLK_EnableAPLL:u32PllFreq <- $r8
	@DEBUG_VALUE: CLK_EnableAPLL:u32PllSelect <- [DW_OP_LLVM_entry_value 1] $r2
	@DEBUG_VALUE: CLK_EnableAPLL:u32PllClkSrc <- [DW_OP_LLVM_entry_value 1] $r0
	.loc	9 0 33                          @ ../../../../Library/StdDriver/src/clk.c:0:33
	movs	r6, #0
.Ltmp426:
	mov	r0, r9
	b	.LBB19_56
.Ltmp427:
.LBB19_55:                              @   in Loop: Header=BB19_35 Depth=1
	@DEBUG_VALUE: CLK_EnableAPLL:u32MinNR <- $r7
	@DEBUG_VALUE: CLK_EnableAPLL:u32NO <- [$sp+0]
	@DEBUG_VALUE: CLK_EnableAPLL:u32PllFreq <- $r8
	@DEBUG_VALUE: CLK_EnableAPLL:u32PllSelect <- [DW_OP_LLVM_entry_value 1] $r2
	@DEBUG_VALUE: CLK_EnableAPLL:u32PllClkSrc <- [DW_OP_LLVM_entry_value 1] $r0
	movs	r6, #0
.Ltmp428:
.LBB19_56:                              @   in Loop: Header=BB19_35 Depth=1
	@DEBUG_VALUE: CLK_EnableAPLL:u32MinNR <- $r7
	@DEBUG_VALUE: CLK_EnableAPLL:u32NO <- [$sp+0]
	@DEBUG_VALUE: CLK_EnableAPLL:u32PllFreq <- $r8
	@DEBUG_VALUE: CLK_EnableAPLL:u32PllSelect <- [DW_OP_LLVM_entry_value 1] $r2
	@DEBUG_VALUE: CLK_EnableAPLL:u32PllClkSrc <- [DW_OP_LLVM_entry_value 1] $r0
	str	r7, [sp, #96]                   @ 4-byte Spill
.Ltmp429:
.LBB19_57:                              @   in Loop: Header=BB19_35 Depth=1
	@DEBUG_VALUE: CLK_EnableAPLL:u32NO <- [$sp+0]
	@DEBUG_VALUE: CLK_EnableAPLL:u32PllFreq <- $r8
	@DEBUG_VALUE: CLK_EnableAPLL:u32PllSelect <- [DW_OP_LLVM_entry_value 1] $r2
	@DEBUG_VALUE: CLK_EnableAPLL:u32PllClkSrc <- [DW_OP_LLVM_entry_value 1] $r0
	@DEBUG_VALUE: CLK_EnableAPLL:u32NR <- undef
	@DEBUG_VALUE: CLK_EnableAPLL:u32Min <- $r6
	@DEBUG_VALUE: CLK_EnableAPLL:u32MinNR <- [DW_OP_plus_uconst 96] [$sp+0]
	@DEBUG_VALUE: CLK_EnableAPLL:u32MinNF <- $r0
	@DEBUG_VALUE: CLK_EnableAPLL:u32Tmp <- undef
	.loc	9 1438 17 is_stmt 1             @ ../../../../Library/StdDriver/src/clk.c:1438:17
	cmp	r6, #0
	beq.w	.LBB19_80
.Ltmp430:
@ %bb.58:                               @   in Loop: Header=BB19_35 Depth=1
	@DEBUG_VALUE: CLK_EnableAPLL:u32MinNF <- $r0
	@DEBUG_VALUE: CLK_EnableAPLL:u32MinNR <- [DW_OP_plus_uconst 96] [$sp+0]
	@DEBUG_VALUE: CLK_EnableAPLL:u32Min <- $r6
	@DEBUG_VALUE: CLK_EnableAPLL:u32NO <- [$sp+0]
	@DEBUG_VALUE: CLK_EnableAPLL:u32PllFreq <- $r8
	@DEBUG_VALUE: CLK_EnableAPLL:u32PllSelect <- [DW_OP_LLVM_entry_value 1] $r2
	@DEBUG_VALUE: CLK_EnableAPLL:u32PllClkSrc <- [DW_OP_LLVM_entry_value 1] $r0
	.loc	9 0 17 is_stmt 0                @ ../../../../Library/StdDriver/src/clk.c:0:17
	ldr	r2, [sp, #24]                   @ 4-byte Reload
	adds	r1, r7, #1
.Ltmp431:
	@DEBUG_VALUE: CLK_EnableAPLL:u32NR <- $r1
	str	r1, [sp, #92]                   @ 4-byte Spill
.Ltmp432:
	@DEBUG_VALUE: CLK_EnableAPLL:u32NR <- [DW_OP_plus_uconst 92] [$sp+0]
	.loc	9 1443 39 is_stmt 1             @ ../../../../Library/StdDriver/src/clk.c:1443:39
	movw	r3, #63232
.Ltmp433:
	.loc	9 0 0 is_stmt 0                 @ ../../../../Library/StdDriver/src/clk.c:0:0
	udiv	r1, r2, r1
.Ltmp434:
	@DEBUG_VALUE: CLK_EnableAPLL:u32Tmp <- $r1
	.loc	9 1443 39                       @ ../../../../Library/StdDriver/src/clk.c:1443:39
	movt	r3, #65474
	add	r1, r3
.Ltmp435:
	movw	r3, #2305
	movt	r3, #61
	cmp	r1, r3
	str	r7, [sp, #20]                   @ 4-byte Spill
	bhs.w	.LBB19_34
.Ltmp436:
@ %bb.59:                               @   in Loop: Header=BB19_35 Depth=1
	@DEBUG_VALUE: CLK_EnableAPLL:u32NR <- [DW_OP_plus_uconst 92] [$sp+0]
	@DEBUG_VALUE: CLK_EnableAPLL:u32MinNF <- $r0
	@DEBUG_VALUE: CLK_EnableAPLL:u32MinNR <- [DW_OP_plus_uconst 96] [$sp+0]
	@DEBUG_VALUE: CLK_EnableAPLL:u32Min <- $r6
	@DEBUG_VALUE: CLK_EnableAPLL:u32NO <- [$sp+0]
	@DEBUG_VALUE: CLK_EnableAPLL:u32PllFreq <- $r8
	@DEBUG_VALUE: CLK_EnableAPLL:u32PllSelect <- [DW_OP_LLVM_entry_value 1] $r2
	@DEBUG_VALUE: CLK_EnableAPLL:u32PllClkSrc <- [DW_OP_LLVM_entry_value 1] $r0
	.loc	9 1451 35 is_stmt 1             @ ../../../../Library/StdDriver/src/clk.c:1451:35
	ldr	r1, [sp, #28]                   @ 4-byte Reload
	mov.w	r12, #15
	ldr	r7, [sp, #16]                   @ 4-byte Reload
	mov.w	r9, #0
	udiv	r1, r2, r1
	sub.w	r2, r1, r1, lsl #4
	rsb	r3, r1, r1, lsl #3
	lsls	r2, r2, #1
.Ltmp437:
	.loc	9 0 0 is_stmt 0                 @ ../../../../Library/StdDriver/src/clk.c:0:0
	str	r2, [sp, #40]                   @ 4-byte Spill
	lsls	r2, r1, #2
.Ltmp438:
	.loc	9 1451 35                       @ ../../../../Library/StdDriver/src/clk.c:1451:35
	str	r2, [sp, #80]                   @ 4-byte Spill
	sub.w	r2, r1, r1, lsl #3
.Ltmp439:
	.loc	9 0 0                           @ ../../../../Library/StdDriver/src/clk.c:0:0
	lsls	r4, r1, #3
.Ltmp440:
	.loc	9 1451 35                       @ ../../../../Library/StdDriver/src/clk.c:1451:35
	lsls	r2, r2, #2
	str	r2, [sp, #52]                   @ 4-byte Spill
	lsls	r2, r3, #2
	str	r2, [sp, #48]                   @ 4-byte Spill
	add.w	r2, r7, r3, lsl #2
	rsb	r10, r1, r1, lsl #4
.Ltmp441:
	.loc	9 1449 50 is_stmt 1             @ ../../../../Library/StdDriver/src/clk.c:1449:50
	str	r2, [sp, #44]                   @ 4-byte Spill
	lsls	r2, r3, #1
.Ltmp442:
	.loc	9 1451 35                       @ ../../../../Library/StdDriver/src/clk.c:1451:35
	str	r2, [sp, #84]                   @ 4-byte Spill
	mvn	r2, #25
	muls	r2, r1, r2
	str	r2, [sp, #64]                   @ 4-byte Spill
	movs	r2, #26
	mul	r3, r1, r2
	mla	r2, r1, r2, r7
	str	r3, [sp, #60]                   @ 4-byte Spill
.Ltmp443:
	.loc	9 1449 50                       @ ../../../../Library/StdDriver/src/clk.c:1449:50
	str	r2, [sp, #56]                   @ 4-byte Spill
	movs	r2, #13
	muls	r2, r1, r2
.Ltmp444:
	.loc	9 1451 35                       @ ../../../../Library/StdDriver/src/clk.c:1451:35
	str	r2, [sp, #88]                   @ 4-byte Spill
	sub.w	r2, r1, r1, lsl #2
	add.w	r1, r1, r1, lsl #1
	lsls	r2, r2, #3
	str	r2, [sp, #76]                   @ 4-byte Spill
	lsls	r2, r1, #3
	str	r2, [sp, #72]                   @ 4-byte Spill
	add.w	r2, r7, r1, lsl #3
.Ltmp445:
	.loc	9 1449 50                       @ ../../../../Library/StdDriver/src/clk.c:1449:50
	lsl.w	lr, r1, #2
.Ltmp446:
	.loc	9 1451 35                       @ ../../../../Library/StdDriver/src/clk.c:1451:35
	lsl.w	r1, r10, #1
	str	r1, [sp, #36]                   @ 4-byte Spill
	add.w	r1, r7, r10, lsl #1
	movw	r7, #3968
.Ltmp447:
	.loc	9 1449 50                       @ ../../../../Library/StdDriver/src/clk.c:1449:50
	str	r2, [sp, #68]                   @ 4-byte Spill
	movt	r7, #64773
	mov	r2, r8
	str	r1, [sp, #32]                   @ 4-byte Spill
	b	.LBB19_61
.Ltmp448:
	.p2align	2
.LBB19_60:                              @   in Loop: Header=BB19_61 Depth=2
	@DEBUG_VALUE: CLK_EnableAPLL:u32NF <- $r12
	@DEBUG_VALUE: CLK_EnableAPLL:u32NR <- [DW_OP_plus_uconst 92] [$sp+0]
	@DEBUG_VALUE: CLK_EnableAPLL:u32Min <- $r6
	@DEBUG_VALUE: CLK_EnableAPLL:u32NO <- [$sp+0]
	@DEBUG_VALUE: CLK_EnableAPLL:u32PllFreq <- $r8
	@DEBUG_VALUE: CLK_EnableAPLL:u32PllSelect <- [DW_OP_LLVM_entry_value 1] $r2
	@DEBUG_VALUE: CLK_EnableAPLL:u32PllClkSrc <- [DW_OP_LLVM_entry_value 1] $r0
	@DEBUG_VALUE: CLK_EnableAPLL:u32Min <- $r6
	@DEBUG_VALUE: CLK_EnableAPLL:u32MinNR <- [DW_OP_plus_uconst 96] [$sp+0]
	@DEBUG_VALUE: CLK_EnableAPLL:u32MinNF <- $r0
	@DEBUG_VALUE: CLK_EnableAPLL:u32NF <- [DW_OP_plus_uconst 1, DW_OP_stack_value] $r12
	.loc	9 1445 42                       @ ../../../../Library/StdDriver/src/clk.c:1445:42
	add.w	r12, r12, #4
.Ltmp449:
	.loc	9 1445 17 is_stmt 0             @ ../../../../Library/StdDriver/src/clk.c:1445:17
	movw	r1, #259
	cmp	r12, r1
.Ltmp450:
	.loc	9 1445 42                       @ ../../../../Library/StdDriver/src/clk.c:1445:42
	ldr	r1, [sp, #80]                   @ 4-byte Reload
	sub.w	r2, r2, r4
	add	r9, r4
	add	r7, r1
.Ltmp451:
	.loc	9 1445 17                       @ ../../../../Library/StdDriver/src/clk.c:1445:17
	beq.w	.LBB19_34
.Ltmp452:
.LBB19_61:                              @   Parent Loop BB19_35 Depth=1
                                        @ =>  This Inner Loop Header: Depth=2
	@DEBUG_VALUE: CLK_EnableAPLL:u32NR <- [DW_OP_plus_uconst 92] [$sp+0]
	@DEBUG_VALUE: CLK_EnableAPLL:u32MinNF <- $r0
	@DEBUG_VALUE: CLK_EnableAPLL:u32MinNR <- [DW_OP_plus_uconst 96] [$sp+0]
	@DEBUG_VALUE: CLK_EnableAPLL:u32Min <- $r6
	@DEBUG_VALUE: CLK_EnableAPLL:u32NO <- [$sp+0]
	@DEBUG_VALUE: CLK_EnableAPLL:u32PllFreq <- $r8
	@DEBUG_VALUE: CLK_EnableAPLL:u32PllSelect <- [DW_OP_LLVM_entry_value 1] $r2
	@DEBUG_VALUE: CLK_EnableAPLL:u32PllClkSrc <- [DW_OP_LLVM_entry_value 1] $r0
	@DEBUG_VALUE: CLK_EnableAPLL:u32Min <- $r6
	@DEBUG_VALUE: CLK_EnableAPLL:u32MinNR <- [DW_OP_plus_uconst 96] [$sp+0]
	@DEBUG_VALUE: CLK_EnableAPLL:u32MinNF <- $r0
	@DEBUG_VALUE: CLK_EnableAPLL:u32NF <- [DW_OP_constu 3, DW_OP_minus, DW_OP_stack_value] $r12
	@DEBUG_VALUE: CLK_EnableAPLL:u32Tmp2 <- undef
	.loc	9 1449 50 is_stmt 1             @ ../../../../Library/StdDriver/src/clk.c:1449:50
	add.w	r3, lr, r7
	cmp	r3, r5
	bhs	.LBB19_65
.Ltmp453:
@ %bb.62:                               @   in Loop: Header=BB19_61 Depth=2
	@DEBUG_VALUE: CLK_EnableAPLL:u32NF <- [DW_OP_constu 3, DW_OP_minus, DW_OP_stack_value] $r12
	@DEBUG_VALUE: CLK_EnableAPLL:u32NR <- [DW_OP_plus_uconst 92] [$sp+0]
	@DEBUG_VALUE: CLK_EnableAPLL:u32MinNF <- $r0
	@DEBUG_VALUE: CLK_EnableAPLL:u32MinNR <- [DW_OP_plus_uconst 96] [$sp+0]
	@DEBUG_VALUE: CLK_EnableAPLL:u32Min <- $r6
	@DEBUG_VALUE: CLK_EnableAPLL:u32NO <- [$sp+0]
	@DEBUG_VALUE: CLK_EnableAPLL:u32PllFreq <- $r8
	@DEBUG_VALUE: CLK_EnableAPLL:u32PllSelect <- [DW_OP_LLVM_entry_value 1] $r2
	@DEBUG_VALUE: CLK_EnableAPLL:u32PllClkSrc <- [DW_OP_LLVM_entry_value 1] $r0
	@DEBUG_VALUE: CLK_EnableAPLL:u32Tmp2 <- undef
	.loc	9 1451 44                       @ ../../../../Library/StdDriver/src/clk.c:1451:44
	ldr	r1, [sp, #72]                   @ 4-byte Reload
	add.w	r3, r1, r9
	.loc	9 1451 35 is_stmt 0             @ ../../../../Library/StdDriver/src/clk.c:1451:35
	ldr	r1, [sp, #76]                   @ 4-byte Reload
	cmp	r3, r8
	add.w	r11, r1, r2
	ldr	r1, [sp, #68]                   @ 4-byte Reload
	it	hi
	addhi.w	r11, r1, r9
.Ltmp454:
	@DEBUG_VALUE: CLK_EnableAPLL:u32Tmp3 <- $r11
	.loc	9 1453 29 is_stmt 1             @ ../../../../Library/StdDriver/src/clk.c:1453:29
	cmp	r11, r6
	bhs	.LBB19_65
.Ltmp455:
@ %bb.63:                               @   in Loop: Header=BB19_61 Depth=2
	@DEBUG_VALUE: CLK_EnableAPLL:u32Tmp3 <- $r11
	@DEBUG_VALUE: CLK_EnableAPLL:u32NF <- [DW_OP_constu 3, DW_OP_minus, DW_OP_stack_value] $r12
	@DEBUG_VALUE: CLK_EnableAPLL:u32NR <- [DW_OP_plus_uconst 92] [$sp+0]
	@DEBUG_VALUE: CLK_EnableAPLL:u32MinNF <- $r0
	@DEBUG_VALUE: CLK_EnableAPLL:u32MinNR <- [DW_OP_plus_uconst 96] [$sp+0]
	@DEBUG_VALUE: CLK_EnableAPLL:u32Min <- $r6
	@DEBUG_VALUE: CLK_EnableAPLL:u32NO <- [$sp+0]
	@DEBUG_VALUE: CLK_EnableAPLL:u32PllFreq <- $r8
	@DEBUG_VALUE: CLK_EnableAPLL:u32PllSelect <- [DW_OP_LLVM_entry_value 1] $r2
	@DEBUG_VALUE: CLK_EnableAPLL:u32PllClkSrc <- [DW_OP_LLVM_entry_value 1] $r0
	.loc	9 1460 33                       @ ../../../../Library/StdDriver/src/clk.c:1460:33
	cmp.w	r11, #0
.Ltmp456:
	.loc	9 0 0 is_stmt 0                 @ ../../../../Library/StdDriver/src/clk.c:0:0
	sub.w	r0, r12, #3
.Ltmp457:
	@DEBUG_VALUE: CLK_EnableAPLL:u32MinNF <- [DW_OP_constu 3, DW_OP_minus, DW_OP_stack_value] $r12
	@DEBUG_VALUE: CLK_EnableAPLL:u32MinNR <- [DW_OP_plus_uconst 92] [$sp+0]
	@DEBUG_VALUE: CLK_EnableAPLL:u32Min <- $r11
	.loc	9 1460 33                       @ ../../../../Library/StdDriver/src/clk.c:1460:33
	beq.w	.LBB19_32
.Ltmp458:
@ %bb.64:                               @   in Loop: Header=BB19_61 Depth=2
	@DEBUG_VALUE: CLK_EnableAPLL:u32Min <- $r11
	@DEBUG_VALUE: CLK_EnableAPLL:u32MinNR <- [DW_OP_plus_uconst 92] [$sp+0]
	@DEBUG_VALUE: CLK_EnableAPLL:u32MinNF <- [DW_OP_constu 3, DW_OP_minus, DW_OP_stack_value] $r12
	@DEBUG_VALUE: CLK_EnableAPLL:u32Tmp3 <- $r11
	@DEBUG_VALUE: CLK_EnableAPLL:u32NF <- [DW_OP_constu 3, DW_OP_minus, DW_OP_stack_value] $r12
	@DEBUG_VALUE: CLK_EnableAPLL:u32NR <- [DW_OP_plus_uconst 92] [$sp+0]
	@DEBUG_VALUE: CLK_EnableAPLL:u32NO <- [$sp+0]
	@DEBUG_VALUE: CLK_EnableAPLL:u32PllFreq <- $r8
	@DEBUG_VALUE: CLK_EnableAPLL:u32PllSelect <- [DW_OP_LLVM_entry_value 1] $r2
	@DEBUG_VALUE: CLK_EnableAPLL:u32PllClkSrc <- [DW_OP_LLVM_entry_value 1] $r0
	@DEBUG_VALUE: CLK_EnableAPLL:u32Min <- $r11
	.loc	9 0 33                          @ ../../../../Library/StdDriver/src/clk.c:0:33
	ldr	r1, [sp, #92]                   @ 4-byte Reload
	mov	r6, r11
.Ltmp459:
	@DEBUG_VALUE: CLK_EnableAPLL:u32Tmp3 <- $r6
	@DEBUG_VALUE: CLK_EnableAPLL:u32Min <- $r6
	str	r1, [sp, #96]                   @ 4-byte Spill
.Ltmp460:
.LBB19_65:                              @   in Loop: Header=BB19_61 Depth=2
	@DEBUG_VALUE: CLK_EnableAPLL:u32NF <- [DW_OP_constu 3, DW_OP_minus, DW_OP_stack_value] $r12
	@DEBUG_VALUE: CLK_EnableAPLL:u32NR <- [DW_OP_plus_uconst 92] [$sp+0]
	@DEBUG_VALUE: CLK_EnableAPLL:u32Min <- $r6
	@DEBUG_VALUE: CLK_EnableAPLL:u32NO <- [$sp+0]
	@DEBUG_VALUE: CLK_EnableAPLL:u32PllFreq <- $r8
	@DEBUG_VALUE: CLK_EnableAPLL:u32PllSelect <- [DW_OP_LLVM_entry_value 1] $r2
	@DEBUG_VALUE: CLK_EnableAPLL:u32PllClkSrc <- [DW_OP_LLVM_entry_value 1] $r0
	@DEBUG_VALUE: CLK_EnableAPLL:u32Min <- $r6
	@DEBUG_VALUE: CLK_EnableAPLL:u32MinNR <- [DW_OP_plus_uconst 96] [$sp+0]
	@DEBUG_VALUE: CLK_EnableAPLL:u32MinNF <- $r0
	@DEBUG_VALUE: CLK_EnableAPLL:u32NF <- [DW_OP_constu 2, DW_OP_minus, DW_OP_stack_value] $r12
	@DEBUG_VALUE: CLK_EnableAPLL:u32Tmp2 <- undef
	.loc	9 1449 50 is_stmt 1             @ ../../../../Library/StdDriver/src/clk.c:1449:50
	ldr	r1, [sp, #88]                   @ 4-byte Reload
	adds	r3, r1, r7
	cmp	r3, r5
	bhs	.LBB19_69
.Ltmp461:
@ %bb.66:                               @   in Loop: Header=BB19_61 Depth=2
	@DEBUG_VALUE: CLK_EnableAPLL:u32NF <- [DW_OP_constu 2, DW_OP_minus, DW_OP_stack_value] $r12
	@DEBUG_VALUE: CLK_EnableAPLL:u32NR <- [DW_OP_plus_uconst 92] [$sp+0]
	@DEBUG_VALUE: CLK_EnableAPLL:u32MinNF <- $r0
	@DEBUG_VALUE: CLK_EnableAPLL:u32MinNR <- [DW_OP_plus_uconst 96] [$sp+0]
	@DEBUG_VALUE: CLK_EnableAPLL:u32Min <- $r6
	@DEBUG_VALUE: CLK_EnableAPLL:u32NO <- [$sp+0]
	@DEBUG_VALUE: CLK_EnableAPLL:u32PllFreq <- $r8
	@DEBUG_VALUE: CLK_EnableAPLL:u32PllSelect <- [DW_OP_LLVM_entry_value 1] $r2
	@DEBUG_VALUE: CLK_EnableAPLL:u32PllClkSrc <- [DW_OP_LLVM_entry_value 1] $r0
	@DEBUG_VALUE: CLK_EnableAPLL:u32Tmp2 <- undef
	.loc	9 1451 44                       @ ../../../../Library/StdDriver/src/clk.c:1451:44
	ldr	r1, [sp, #60]                   @ 4-byte Reload
	.loc	9 1451 35 is_stmt 0             @ ../../../../Library/StdDriver/src/clk.c:1451:35
	ldr	r3, [sp, #64]                   @ 4-byte Reload
	.loc	9 1451 44                       @ ../../../../Library/StdDriver/src/clk.c:1451:44
	add	r1, r9
	.loc	9 1451 35                       @ ../../../../Library/StdDriver/src/clk.c:1451:35
	add	r3, r2
	cmp	r1, r8
	ldr	r1, [sp, #56]                   @ 4-byte Reload
	it	hi
	addhi.w	r3, r1, r9
.Ltmp462:
	@DEBUG_VALUE: CLK_EnableAPLL:u32Tmp3 <- $r3
	.loc	9 1453 29 is_stmt 1             @ ../../../../Library/StdDriver/src/clk.c:1453:29
	cmp	r3, r6
	bhs	.LBB19_69
.Ltmp463:
@ %bb.67:                               @   in Loop: Header=BB19_61 Depth=2
	@DEBUG_VALUE: CLK_EnableAPLL:u32Tmp3 <- $r3
	@DEBUG_VALUE: CLK_EnableAPLL:u32NF <- [DW_OP_constu 2, DW_OP_minus, DW_OP_stack_value] $r12
	@DEBUG_VALUE: CLK_EnableAPLL:u32NR <- [DW_OP_plus_uconst 92] [$sp+0]
	@DEBUG_VALUE: CLK_EnableAPLL:u32MinNF <- $r0
	@DEBUG_VALUE: CLK_EnableAPLL:u32MinNR <- [DW_OP_plus_uconst 96] [$sp+0]
	@DEBUG_VALUE: CLK_EnableAPLL:u32Min <- $r6
	@DEBUG_VALUE: CLK_EnableAPLL:u32NO <- [$sp+0]
	@DEBUG_VALUE: CLK_EnableAPLL:u32PllFreq <- $r8
	@DEBUG_VALUE: CLK_EnableAPLL:u32PllSelect <- [DW_OP_LLVM_entry_value 1] $r2
	@DEBUG_VALUE: CLK_EnableAPLL:u32PllClkSrc <- [DW_OP_LLVM_entry_value 1] $r0
	.loc	9 1460 33                       @ ../../../../Library/StdDriver/src/clk.c:1460:33
	cmp	r3, #0
.Ltmp464:
	.loc	9 0 0 is_stmt 0                 @ ../../../../Library/StdDriver/src/clk.c:0:0
	sub.w	r0, r12, #2
.Ltmp465:
	@DEBUG_VALUE: CLK_EnableAPLL:u32MinNF <- [DW_OP_constu 2, DW_OP_minus, DW_OP_stack_value] $r12
	@DEBUG_VALUE: CLK_EnableAPLL:u32MinNR <- [DW_OP_plus_uconst 92] [$sp+0]
	@DEBUG_VALUE: CLK_EnableAPLL:u32Min <- $r3
	.loc	9 1460 33                       @ ../../../../Library/StdDriver/src/clk.c:1460:33
	beq.w	.LBB19_32
.Ltmp466:
@ %bb.68:                               @   in Loop: Header=BB19_61 Depth=2
	@DEBUG_VALUE: CLK_EnableAPLL:u32Min <- $r3
	@DEBUG_VALUE: CLK_EnableAPLL:u32MinNF <- [DW_OP_constu 2, DW_OP_minus, DW_OP_stack_value] $r12
	@DEBUG_VALUE: CLK_EnableAPLL:u32Tmp3 <- $r3
	@DEBUG_VALUE: CLK_EnableAPLL:u32NF <- [DW_OP_constu 2, DW_OP_minus, DW_OP_stack_value] $r12
	@DEBUG_VALUE: CLK_EnableAPLL:u32MinNR <- [DW_OP_plus_uconst 92] [$sp+0]
	@DEBUG_VALUE: CLK_EnableAPLL:u32NR <- [DW_OP_plus_uconst 92] [$sp+0]
	@DEBUG_VALUE: CLK_EnableAPLL:u32NO <- [$sp+0]
	@DEBUG_VALUE: CLK_EnableAPLL:u32PllFreq <- $r8
	@DEBUG_VALUE: CLK_EnableAPLL:u32PllSelect <- [DW_OP_LLVM_entry_value 1] $r2
	@DEBUG_VALUE: CLK_EnableAPLL:u32PllClkSrc <- [DW_OP_LLVM_entry_value 1] $r0
	@DEBUG_VALUE: CLK_EnableAPLL:u32Min <- $r3
	.loc	9 0 33                          @ ../../../../Library/StdDriver/src/clk.c:0:33
	ldr	r1, [sp, #92]                   @ 4-byte Reload
	mov	r6, r3
.Ltmp467:
	@DEBUG_VALUE: CLK_EnableAPLL:u32Tmp3 <- $r6
	@DEBUG_VALUE: CLK_EnableAPLL:u32Min <- $r6
	str	r1, [sp, #96]                   @ 4-byte Spill
.Ltmp468:
.LBB19_69:                              @   in Loop: Header=BB19_61 Depth=2
	@DEBUG_VALUE: CLK_EnableAPLL:u32NF <- [DW_OP_constu 2, DW_OP_minus, DW_OP_stack_value] $r12
	@DEBUG_VALUE: CLK_EnableAPLL:u32NR <- [DW_OP_plus_uconst 92] [$sp+0]
	@DEBUG_VALUE: CLK_EnableAPLL:u32Min <- $r6
	@DEBUG_VALUE: CLK_EnableAPLL:u32NO <- [$sp+0]
	@DEBUG_VALUE: CLK_EnableAPLL:u32PllFreq <- $r8
	@DEBUG_VALUE: CLK_EnableAPLL:u32PllSelect <- [DW_OP_LLVM_entry_value 1] $r2
	@DEBUG_VALUE: CLK_EnableAPLL:u32PllClkSrc <- [DW_OP_LLVM_entry_value 1] $r0
	@DEBUG_VALUE: CLK_EnableAPLL:u32Min <- $r6
	@DEBUG_VALUE: CLK_EnableAPLL:u32MinNR <- [DW_OP_plus_uconst 96] [$sp+0]
	@DEBUG_VALUE: CLK_EnableAPLL:u32MinNF <- $r0
	@DEBUG_VALUE: CLK_EnableAPLL:u32NF <- [DW_OP_constu 1, DW_OP_minus, DW_OP_stack_value] $r12
	@DEBUG_VALUE: CLK_EnableAPLL:u32Tmp2 <- undef
	.loc	9 1449 50 is_stmt 1             @ ../../../../Library/StdDriver/src/clk.c:1449:50
	ldr	r1, [sp, #84]                   @ 4-byte Reload
	add	r1, r7
	cmp	r1, r5
	bhs	.LBB19_73
.Ltmp469:
@ %bb.70:                               @   in Loop: Header=BB19_61 Depth=2
	@DEBUG_VALUE: CLK_EnableAPLL:u32NF <- [DW_OP_constu 1, DW_OP_minus, DW_OP_stack_value] $r12
	@DEBUG_VALUE: CLK_EnableAPLL:u32NR <- [DW_OP_plus_uconst 92] [$sp+0]
	@DEBUG_VALUE: CLK_EnableAPLL:u32MinNF <- $r0
	@DEBUG_VALUE: CLK_EnableAPLL:u32MinNR <- [DW_OP_plus_uconst 96] [$sp+0]
	@DEBUG_VALUE: CLK_EnableAPLL:u32Min <- $r6
	@DEBUG_VALUE: CLK_EnableAPLL:u32NO <- [$sp+0]
	@DEBUG_VALUE: CLK_EnableAPLL:u32PllFreq <- $r8
	@DEBUG_VALUE: CLK_EnableAPLL:u32PllSelect <- [DW_OP_LLVM_entry_value 1] $r2
	@DEBUG_VALUE: CLK_EnableAPLL:u32PllClkSrc <- [DW_OP_LLVM_entry_value 1] $r0
	@DEBUG_VALUE: CLK_EnableAPLL:u32Tmp2 <- undef
	.loc	9 1451 44                       @ ../../../../Library/StdDriver/src/clk.c:1451:44
	ldr	r1, [sp, #48]                   @ 4-byte Reload
	.loc	9 1451 35 is_stmt 0             @ ../../../../Library/StdDriver/src/clk.c:1451:35
	ldr	r3, [sp, #52]                   @ 4-byte Reload
	.loc	9 1451 44                       @ ../../../../Library/StdDriver/src/clk.c:1451:44
	add	r1, r9
	.loc	9 1451 35                       @ ../../../../Library/StdDriver/src/clk.c:1451:35
	add	r3, r2
	cmp	r1, r8
	ldr	r1, [sp, #44]                   @ 4-byte Reload
	it	hi
	addhi.w	r3, r1, r9
.Ltmp470:
	@DEBUG_VALUE: CLK_EnableAPLL:u32Tmp3 <- $r3
	.loc	9 1453 29 is_stmt 1             @ ../../../../Library/StdDriver/src/clk.c:1453:29
	cmp	r3, r6
	bhs	.LBB19_73
.Ltmp471:
@ %bb.71:                               @   in Loop: Header=BB19_61 Depth=2
	@DEBUG_VALUE: CLK_EnableAPLL:u32NF <- [DW_OP_constu 1, DW_OP_minus, DW_OP_stack_value] $r12
	@DEBUG_VALUE: CLK_EnableAPLL:u32Tmp3 <- $r3
	@DEBUG_VALUE: CLK_EnableAPLL:u32NR <- [DW_OP_plus_uconst 92] [$sp+0]
	@DEBUG_VALUE: CLK_EnableAPLL:u32MinNF <- $r0
	@DEBUG_VALUE: CLK_EnableAPLL:u32MinNR <- [DW_OP_plus_uconst 96] [$sp+0]
	@DEBUG_VALUE: CLK_EnableAPLL:u32Min <- $r6
	@DEBUG_VALUE: CLK_EnableAPLL:u32NO <- [$sp+0]
	@DEBUG_VALUE: CLK_EnableAPLL:u32PllFreq <- $r8
	@DEBUG_VALUE: CLK_EnableAPLL:u32PllSelect <- [DW_OP_LLVM_entry_value 1] $r2
	@DEBUG_VALUE: CLK_EnableAPLL:u32PllClkSrc <- [DW_OP_LLVM_entry_value 1] $r0
	.loc	9 1460 33                       @ ../../../../Library/StdDriver/src/clk.c:1460:33
	cmp	r3, #0
.Ltmp472:
	.loc	9 0 0 is_stmt 0                 @ ../../../../Library/StdDriver/src/clk.c:0:0
	sub.w	r0, r12, #1
.Ltmp473:
	@DEBUG_VALUE: CLK_EnableAPLL:u32MinNF <- [DW_OP_constu 1, DW_OP_minus, DW_OP_stack_value] $r12
	@DEBUG_VALUE: CLK_EnableAPLL:u32MinNR <- [DW_OP_plus_uconst 92] [$sp+0]
	@DEBUG_VALUE: CLK_EnableAPLL:u32Min <- $r3
	.loc	9 1460 33                       @ ../../../../Library/StdDriver/src/clk.c:1460:33
	beq.w	.LBB19_32
.Ltmp474:
@ %bb.72:                               @   in Loop: Header=BB19_61 Depth=2
	@DEBUG_VALUE: CLK_EnableAPLL:u32MinNF <- [DW_OP_constu 1, DW_OP_minus, DW_OP_stack_value] $r12
	@DEBUG_VALUE: CLK_EnableAPLL:u32NF <- [DW_OP_constu 1, DW_OP_minus, DW_OP_stack_value] $r12
	@DEBUG_VALUE: CLK_EnableAPLL:u32Min <- $r3
	@DEBUG_VALUE: CLK_EnableAPLL:u32Tmp3 <- $r3
	@DEBUG_VALUE: CLK_EnableAPLL:u32MinNR <- [DW_OP_plus_uconst 92] [$sp+0]
	@DEBUG_VALUE: CLK_EnableAPLL:u32NR <- [DW_OP_plus_uconst 92] [$sp+0]
	@DEBUG_VALUE: CLK_EnableAPLL:u32NO <- [$sp+0]
	@DEBUG_VALUE: CLK_EnableAPLL:u32PllFreq <- $r8
	@DEBUG_VALUE: CLK_EnableAPLL:u32PllSelect <- [DW_OP_LLVM_entry_value 1] $r2
	@DEBUG_VALUE: CLK_EnableAPLL:u32PllClkSrc <- [DW_OP_LLVM_entry_value 1] $r0
	@DEBUG_VALUE: CLK_EnableAPLL:u32Min <- $r3
	.loc	9 0 33                          @ ../../../../Library/StdDriver/src/clk.c:0:33
	ldr	r1, [sp, #92]                   @ 4-byte Reload
	mov	r6, r3
.Ltmp475:
	@DEBUG_VALUE: CLK_EnableAPLL:u32Tmp3 <- $r6
	@DEBUG_VALUE: CLK_EnableAPLL:u32Min <- $r6
	str	r1, [sp, #96]                   @ 4-byte Spill
.Ltmp476:
.LBB19_73:                              @   in Loop: Header=BB19_61 Depth=2
	@DEBUG_VALUE: CLK_EnableAPLL:u32NF <- [DW_OP_constu 1, DW_OP_minus, DW_OP_stack_value] $r12
	@DEBUG_VALUE: CLK_EnableAPLL:u32NR <- [DW_OP_plus_uconst 92] [$sp+0]
	@DEBUG_VALUE: CLK_EnableAPLL:u32Min <- $r6
	@DEBUG_VALUE: CLK_EnableAPLL:u32NO <- [$sp+0]
	@DEBUG_VALUE: CLK_EnableAPLL:u32PllFreq <- $r8
	@DEBUG_VALUE: CLK_EnableAPLL:u32PllSelect <- [DW_OP_LLVM_entry_value 1] $r2
	@DEBUG_VALUE: CLK_EnableAPLL:u32PllClkSrc <- [DW_OP_LLVM_entry_value 1] $r0
	@DEBUG_VALUE: CLK_EnableAPLL:u32Min <- $r6
	@DEBUG_VALUE: CLK_EnableAPLL:u32MinNR <- [DW_OP_plus_uconst 96] [$sp+0]
	@DEBUG_VALUE: CLK_EnableAPLL:u32MinNF <- $r0
	@DEBUG_VALUE: CLK_EnableAPLL:u32NF <- $r12
	@DEBUG_VALUE: CLK_EnableAPLL:u32Tmp2 <- undef
	.loc	9 1449 50 is_stmt 1             @ ../../../../Library/StdDriver/src/clk.c:1449:50
	add.w	r1, r10, r7
	cmp	r1, r5
	bhs	.LBB19_60
.Ltmp477:
@ %bb.74:                               @   in Loop: Header=BB19_61 Depth=2
	@DEBUG_VALUE: CLK_EnableAPLL:u32NF <- $r12
	@DEBUG_VALUE: CLK_EnableAPLL:u32NR <- [DW_OP_plus_uconst 92] [$sp+0]
	@DEBUG_VALUE: CLK_EnableAPLL:u32MinNF <- $r0
	@DEBUG_VALUE: CLK_EnableAPLL:u32MinNR <- [DW_OP_plus_uconst 96] [$sp+0]
	@DEBUG_VALUE: CLK_EnableAPLL:u32Min <- $r6
	@DEBUG_VALUE: CLK_EnableAPLL:u32NO <- [$sp+0]
	@DEBUG_VALUE: CLK_EnableAPLL:u32PllFreq <- $r8
	@DEBUG_VALUE: CLK_EnableAPLL:u32PllSelect <- [DW_OP_LLVM_entry_value 1] $r2
	@DEBUG_VALUE: CLK_EnableAPLL:u32PllClkSrc <- [DW_OP_LLVM_entry_value 1] $r0
	@DEBUG_VALUE: CLK_EnableAPLL:u32Tmp2 <- undef
	.loc	9 1451 44                       @ ../../../../Library/StdDriver/src/clk.c:1451:44
	ldr	r1, [sp, #36]                   @ 4-byte Reload
	.loc	9 1451 35 is_stmt 0             @ ../../../../Library/StdDriver/src/clk.c:1451:35
	ldr	r3, [sp, #40]                   @ 4-byte Reload
	.loc	9 1451 44                       @ ../../../../Library/StdDriver/src/clk.c:1451:44
	add	r1, r9
	.loc	9 1451 35                       @ ../../../../Library/StdDriver/src/clk.c:1451:35
	add	r3, r2
	cmp	r1, r8
	ldr	r1, [sp, #32]                   @ 4-byte Reload
	it	hi
	addhi.w	r3, r1, r9
.Ltmp478:
	@DEBUG_VALUE: CLK_EnableAPLL:u32Tmp3 <- $r3
	.loc	9 1453 29 is_stmt 1             @ ../../../../Library/StdDriver/src/clk.c:1453:29
	cmp	r3, r6
	bhs	.LBB19_60
.Ltmp479:
@ %bb.75:                               @   in Loop: Header=BB19_61 Depth=2
	@DEBUG_VALUE: CLK_EnableAPLL:u32NF <- $r12
	@DEBUG_VALUE: CLK_EnableAPLL:u32Tmp3 <- $r3
	@DEBUG_VALUE: CLK_EnableAPLL:u32NR <- [DW_OP_plus_uconst 92] [$sp+0]
	@DEBUG_VALUE: CLK_EnableAPLL:u32MinNF <- $r0
	@DEBUG_VALUE: CLK_EnableAPLL:u32MinNR <- [DW_OP_plus_uconst 96] [$sp+0]
	@DEBUG_VALUE: CLK_EnableAPLL:u32Min <- $r6
	@DEBUG_VALUE: CLK_EnableAPLL:u32NO <- [$sp+0]
	@DEBUG_VALUE: CLK_EnableAPLL:u32PllFreq <- $r8
	@DEBUG_VALUE: CLK_EnableAPLL:u32PllSelect <- [DW_OP_LLVM_entry_value 1] $r2
	@DEBUG_VALUE: CLK_EnableAPLL:u32PllClkSrc <- [DW_OP_LLVM_entry_value 1] $r0
	@DEBUG_VALUE: CLK_EnableAPLL:u32Min <- $r3
	@DEBUG_VALUE: CLK_EnableAPLL:u32MinNR <- [DW_OP_plus_uconst 92] [$sp+0]
	@DEBUG_VALUE: CLK_EnableAPLL:u32MinNF <- $r12
	.loc	9 0 29 is_stmt 0                @ ../../../../Library/StdDriver/src/clk.c:0:29
	ldr	r1, [sp, #92]                   @ 4-byte Reload
.Ltmp480:
	@DEBUG_VALUE: CLK_EnableAPLL:u32MinNR <- $r1
	mov	r6, r3
.Ltmp481:
	@DEBUG_VALUE: CLK_EnableAPLL:u32Min <- $r6
	.loc	9 1460 33 is_stmt 1             @ ../../../../Library/StdDriver/src/clk.c:1460:33
	cmp	r3, #0
	mov	r0, r12
	str	r1, [sp, #96]                   @ 4-byte Spill
.Ltmp482:
	@DEBUG_VALUE: CLK_EnableAPLL:u32MinNR <- [DW_OP_plus_uconst 96] [$sp+0]
	@DEBUG_VALUE: CLK_EnableAPLL:u32MinNR <- [DW_OP_plus_uconst 92] [$sp+0]
	bne	.LBB19_60
.Ltmp483:
@ %bb.76:                               @   in Loop: Header=BB19_35 Depth=1
	@DEBUG_VALUE: CLK_EnableAPLL:u32MinNF <- $r12
	@DEBUG_VALUE: CLK_EnableAPLL:u32NF <- $r12
	@DEBUG_VALUE: CLK_EnableAPLL:u32Tmp3 <- $r3
	@DEBUG_VALUE: CLK_EnableAPLL:u32MinNR <- [DW_OP_plus_uconst 92] [$sp+0]
	@DEBUG_VALUE: CLK_EnableAPLL:u32NR <- [DW_OP_plus_uconst 92] [$sp+0]
	@DEBUG_VALUE: CLK_EnableAPLL:u32Min <- $r6
	@DEBUG_VALUE: CLK_EnableAPLL:u32NO <- [$sp+0]
	@DEBUG_VALUE: CLK_EnableAPLL:u32PllFreq <- $r8
	@DEBUG_VALUE: CLK_EnableAPLL:u32PllSelect <- [DW_OP_LLVM_entry_value 1] $r2
	@DEBUG_VALUE: CLK_EnableAPLL:u32PllClkSrc <- [DW_OP_LLVM_entry_value 1] $r0
	.loc	9 0 33 is_stmt 0                @ ../../../../Library/StdDriver/src/clk.c:0:33
	movs	r6, #0
.Ltmp484:
	mov	r0, r12
	b	.LBB19_33
.Ltmp485:
.LBB19_77:
	@DEBUG_VALUE: CLK_EnableAPLL:u32StableSel <- $r5
	@DEBUG_VALUE: CLK_EnableAPLL:u32PllSrcClk <- $r4
	@DEBUG_VALUE: CLK_EnableAPLL:u32PllClkSrc <- $r7
	@DEBUG_VALUE: CLK_EnableAPLL:u32PllSelect <- $r6
	@DEBUG_VALUE: CLK_EnableAPLL:u32PllFreq <- $r1
	movw	r0, #17451
.Ltmp486:
	orr.w	r0, r0, r5
.Ltmp487:
	@DEBUG_VALUE: CLK_EnableAPLL:u32PllClk <- 180000000
	.loc	9 1505 13 is_stmt 1             @ ../../../../Library/StdDriver/src/clk.c:1505:13
	cbz	r6, .LBB19_79
.Ltmp488:
@ %bb.78:
	@DEBUG_VALUE: CLK_EnableAPLL:u32PllClk <- 180000000
	@DEBUG_VALUE: CLK_EnableAPLL:u32StableSel <- $r5
	@DEBUG_VALUE: CLK_EnableAPLL:u32PllSrcClk <- $r4
	@DEBUG_VALUE: CLK_EnableAPLL:u32PllClkSrc <- $r7
	@DEBUG_VALUE: CLK_EnableAPLL:u32PllSelect <- $r6
	@DEBUG_VALUE: CLK_EnableAPLL:u32PllFreq <- $r1
	.loc	9 1517 27                       @ ../../../../Library/StdDriver/src/clk.c:1517:27
	str	r0, [r3, #28]
	movw	r1, #38144
.Ltmp489:
	@DEBUG_VALUE: CLK_EnableAPLL:u32PllFreq <- [DW_OP_LLVM_entry_value 1] $r1
	.loc	9 1520 35                       @ ../../../../Library/StdDriver/src/clk.c:1520:35
	ldr	r0, [r3, #32]
.Ltmp490:
	.loc	9 1531 9                        @ ../../../../Library/StdDriver/src/clk.c:1531:9
	cmp	r7, #0
.Ltmp491:
	.loc	9 1520 44                       @ ../../../../Library/StdDriver/src/clk.c:1520:44
	bic	r0, r0, #3
	.loc	9 1520 73 is_stmt 0             @ ../../../../Library/StdDriver/src/clk.c:1520:73
	orr.w	r0, r0, r7
	.loc	9 1520 27                       @ ../../../../Library/StdDriver/src/clk.c:1520:27
	str	r0, [r3, #32]
	.loc	9 1523 25 is_stmt 1             @ ../../../../Library/StdDriver/src/clk.c:1523:25
	ldr	r0, [r3, #-4]
	movt	r1, #2746
	orr	r0, r0, #128
	str	r0, [r3, #-4]
.Ltmp492:
	.loc	9 1531 9                        @ ../../../../Library/StdDriver/src/clk.c:1531:9
	bne	.LBB19_83
	b	.LBB19_102
.Ltmp493:
.LBB19_79:
	@DEBUG_VALUE: CLK_EnableAPLL:u32PllClk <- 180000000
	@DEBUG_VALUE: CLK_EnableAPLL:u32StableSel <- $r5
	@DEBUG_VALUE: CLK_EnableAPLL:u32PllSrcClk <- $r4
	@DEBUG_VALUE: CLK_EnableAPLL:u32PllClkSrc <- $r7
	@DEBUG_VALUE: CLK_EnableAPLL:u32PllSelect <- $r6
	@DEBUG_VALUE: CLK_EnableAPLL:u32PllFreq <- $r1
	.loc	9 1507 27                       @ ../../../../Library/StdDriver/src/clk.c:1507:27
	str	r0, [r3, #20]
	movw	r1, #38144
.Ltmp494:
	@DEBUG_VALUE: CLK_EnableAPLL:u32PllFreq <- [DW_OP_LLVM_entry_value 1] $r1
	.loc	9 1510 35                       @ ../../../../Library/StdDriver/src/clk.c:1510:35
	ldr	r0, [r3, #24]
.Ltmp495:
	.loc	9 1531 9                        @ ../../../../Library/StdDriver/src/clk.c:1531:9
	cmp	r7, #0
.Ltmp496:
	.loc	9 1510 44                       @ ../../../../Library/StdDriver/src/clk.c:1510:44
	bic	r0, r0, #3
	.loc	9 1510 73 is_stmt 0             @ ../../../../Library/StdDriver/src/clk.c:1510:73
	orr.w	r0, r0, r7
	.loc	9 1510 27                       @ ../../../../Library/StdDriver/src/clk.c:1510:27
	str	r0, [r3, #24]
	.loc	9 1513 25 is_stmt 1             @ ../../../../Library/StdDriver/src/clk.c:1513:25
	ldr	r0, [r3, #-4]
	movt	r1, #2746
	orr	r0, r0, #64
	str	r0, [r3, #-4]
.Ltmp497:
	.loc	9 1531 9                        @ ../../../../Library/StdDriver/src/clk.c:1531:9
	bne	.LBB19_93
	b	.LBB19_102
.Ltmp498:
.LBB19_80:
	@DEBUG_VALUE: CLK_EnableAPLL:u32MinNF <- $r0
	@DEBUG_VALUE: CLK_EnableAPLL:u32MinNR <- [DW_OP_plus_uconst 96] [$sp+0]
	@DEBUG_VALUE: CLK_EnableAPLL:u32Min <- $r6
	@DEBUG_VALUE: CLK_EnableAPLL:u32NO <- [$sp+0]
	@DEBUG_VALUE: CLK_EnableAPLL:u32PllFreq <- $r8
	@DEBUG_VALUE: CLK_EnableAPLL:u32PllSelect <- [DW_OP_LLVM_entry_value 1] $r2
	@DEBUG_VALUE: CLK_EnableAPLL:u32PllClkSrc <- [DW_OP_LLVM_entry_value 1] $r0
	.loc	9 0 9 is_stmt 0                 @ ../../../../Library/StdDriver/src/clk.c:0:9
	ldr	r4, [sp, #24]                   @ 4-byte Reload
.Ltmp499:
.LBB19_81:
	@DEBUG_VALUE: CLK_EnableAPLL:u32MinNF <- $r0
	@DEBUG_VALUE: CLK_EnableAPLL:u32MinNR <- [DW_OP_plus_uconst 96] [$sp+0]
	@DEBUG_VALUE: CLK_EnableAPLL:u32Min <- $r6
	@DEBUG_VALUE: CLK_EnableAPLL:u32NO <- [$sp+0]
	@DEBUG_VALUE: CLK_EnableAPLL:u32PllFreq <- $r8
	@DEBUG_VALUE: CLK_EnableAPLL:u32PllSelect <- [DW_OP_LLVM_entry_value 1] $r2
	@DEBUG_VALUE: CLK_EnableAPLL:u32PllClkSrc <- [DW_OP_LLVM_entry_value 1] $r0
	movw	r1, #65024
	ldr	r7, [sp, #96]                   @ 4-byte Reload
	ldr	r3, [sp]                        @ 4-byte Reload
.Ltmp500:
	subs	r2, r0, #2
	movt	r1, #65535
	add.w	r1, r1, r7, lsl #9
	orr.w	r2, r2, r3, lsl #14
.Ltmp501:
	.loc	9 1500 75 is_stmt 1             @ ../../../../Library/StdDriver/src/clk.c:1500:75
	lsls	r0, r0, #1
.Ltmp502:
	.loc	9 0 0 is_stmt 0                 @ ../../../../Library/StdDriver/src/clk.c:0:0
	orrs	r1, r2
	ldr	r2, [sp, #4]                    @ 4-byte Reload
	orrs	r2, r1
.Ltmp503:
	.loc	9 1500 44                       @ ../../../../Library/StdDriver/src/clk.c:1500:44
	adds	r1, r3, #1
	.loc	9 1470 13 is_stmt 1             @ ../../../../Library/StdDriver/src/clk.c:1470:13
	ldr	r3, [sp, #8]                    @ 4-byte Reload
	.loc	9 1500 51                       @ ../../../../Library/StdDriver/src/clk.c:1500:51
	muls	r1, r7, r1
	.loc	9 1470 13                       @ ../../../../Library/StdDriver/src/clk.c:1470:13
	cmp	r3, #0
	movw	r3, #4100
	movt	r3, #16384
	beq	.LBB19_92
.Ltmp504:
@ %bb.82:
	@DEBUG_VALUE: CLK_EnableAPLL:u32MinNR <- [DW_OP_plus_uconst 96] [$sp+0]
	@DEBUG_VALUE: CLK_EnableAPLL:u32Min <- $r6
	@DEBUG_VALUE: CLK_EnableAPLL:u32NO <- [$sp+0]
	@DEBUG_VALUE: CLK_EnableAPLL:u32PllFreq <- $r8
	@DEBUG_VALUE: CLK_EnableAPLL:u32PllSelect <- [DW_OP_LLVM_entry_value 1] $r2
	@DEBUG_VALUE: CLK_EnableAPLL:u32PllClkSrc <- [DW_OP_LLVM_entry_value 1] $r0
	.loc	9 1487 27                       @ ../../../../Library/StdDriver/src/clk.c:1487:27
	str	r2, [r3, #28]
	.loc	9 1493 35                       @ ../../../../Library/StdDriver/src/clk.c:1493:35
	ldr	r2, [r3, #32]
	ldr	r7, [sp, #12]                   @ 4-byte Reload
	.loc	9 1493 44 is_stmt 0             @ ../../../../Library/StdDriver/src/clk.c:1493:44
	bic	r2, r2, #3
	.loc	9 1493 73                       @ ../../../../Library/StdDriver/src/clk.c:1493:73
	orrs	r2, r7
	.loc	9 1493 27                       @ ../../../../Library/StdDriver/src/clk.c:1493:27
	str	r2, [r3, #32]
.Ltmp505:
	.loc	9 1500 34 is_stmt 1             @ ../../../../Library/StdDriver/src/clk.c:1500:34
	udiv	r1, r4, r1
.Ltmp506:
	.loc	9 1496 25                       @ ../../../../Library/StdDriver/src/clk.c:1496:25
	ldr	r2, [r3, #-4]
.Ltmp507:
	.loc	9 1500 63                       @ ../../../../Library/StdDriver/src/clk.c:1500:63
	muls	r1, r0, r1
.Ltmp508:
	@DEBUG_VALUE: CLK_EnableAPLL:u32PllClk <- $r1
	.loc	9 1496 25                       @ ../../../../Library/StdDriver/src/clk.c:1496:25
	orr	r2, r2, #128
.Ltmp509:
	.loc	9 1531 9                        @ ../../../../Library/StdDriver/src/clk.c:1531:9
	cmp	r7, #0
.Ltmp510:
	.loc	9 1496 25                       @ ../../../../Library/StdDriver/src/clk.c:1496:25
	str	r2, [r3, #-4]
.Ltmp511:
	.loc	9 1531 9                        @ ../../../../Library/StdDriver/src/clk.c:1531:9
	beq	.LBB19_102
.Ltmp512:
.LBB19_83:
	@DEBUG_VALUE: CLK_WaitClockReady:u32ClkMask <- 128
	.loc	9 1591 30                       @ ../../../../Library/StdDriver/src/clk.c:1591:30
	movw	r0, :lower16:SystemCoreClock
	movs	r2, #2
.Ltmp513:
	@DEBUG_VALUE: CLK_WaitClockReady:u32Ret <- 1
	@DEBUG_VALUE: CLK_WaitClockReady:u32TimeOutCnt <- undef
	movt	r0, :upper16:SystemCoreClock
	ldr	r0, [r0]
	.loc	9 1594 5                        @ ../../../../Library/StdDriver/src/clk.c:1594:5
	sub.w	r0, r2, r0, lsr #1
.Ltmp514:
	.p2align	2
.LBB19_84:                              @ =>This Inner Loop Header: Depth=1
	@DEBUG_VALUE: CLK_WaitClockReady:u32Ret <- 1
	@DEBUG_VALUE: CLK_WaitClockReady:u32ClkMask <- 128
	@DEBUG_VALUE: CLK_WaitClockReady:u32TimeOutCnt <- [DW_OP_LLVM_arg 0, DW_OP_consts 2, DW_OP_consts 18446744073709551615, DW_OP_LLVM_arg 0, DW_OP_consts 2, DW_OP_div, DW_OP_mul, DW_OP_plus, DW_OP_minus, DW_OP_consts 4, DW_OP_div, DW_OP_consts 18446744073709551612, DW_OP_mul, DW_OP_LLVM_arg 0, DW_OP_consts 2, DW_OP_div, DW_OP_plus, DW_OP_stack_value] undef
	.loc	9 1594 18 is_stmt 0             @ ../../../../Library/StdDriver/src/clk.c:1594:18
	ldr	r2, [r3]
.Ltmp515:
	@DEBUG_VALUE: CLK_WaitClockReady:u32TimeOutCnt <- [DW_OP_constu 1, DW_OP_minus, DW_OP_stack_value] $r0
	.loc	9 1594 5                        @ ../../../../Library/StdDriver/src/clk.c:1594:5
	lsls	r2, r2, #24
	bmi	.LBB19_110
.Ltmp516:
@ %bb.85:                               @   in Loop: Header=BB19_84 Depth=1
	@DEBUG_VALUE: CLK_WaitClockReady:u32TimeOutCnt <- [DW_OP_constu 1, DW_OP_minus, DW_OP_stack_value] $r0
	@DEBUG_VALUE: CLK_WaitClockReady:u32Ret <- 1
	@DEBUG_VALUE: CLK_WaitClockReady:u32ClkMask <- 128
	cmp	r0, #1
	beq	.LBB19_110
.Ltmp517:
@ %bb.86:                               @   in Loop: Header=BB19_84 Depth=1
	@DEBUG_VALUE: CLK_WaitClockReady:u32TimeOutCnt <- [DW_OP_constu 1, DW_OP_minus, DW_OP_stack_value] $r0
	@DEBUG_VALUE: CLK_WaitClockReady:u32Ret <- 1
	@DEBUG_VALUE: CLK_WaitClockReady:u32ClkMask <- 128
	@DEBUG_VALUE: CLK_WaitClockReady:u32TimeOutCnt <- [DW_OP_constu 1, DW_OP_minus, DW_OP_stack_value] $r0
	.loc	9 1594 18                       @ ../../../../Library/StdDriver/src/clk.c:1594:18
	ldr	r2, [r3]
.Ltmp518:
	@DEBUG_VALUE: CLK_WaitClockReady:u32TimeOutCnt <- [DW_OP_constu 2, DW_OP_minus, DW_OP_stack_value] $r0
	.loc	9 1594 5                        @ ../../../../Library/StdDriver/src/clk.c:1594:5
	lsls	r2, r2, #24
	bmi	.LBB19_110
.Ltmp519:
@ %bb.87:                               @   in Loop: Header=BB19_84 Depth=1
	@DEBUG_VALUE: CLK_WaitClockReady:u32TimeOutCnt <- [DW_OP_constu 2, DW_OP_minus, DW_OP_stack_value] $r0
	@DEBUG_VALUE: CLK_WaitClockReady:u32Ret <- 1
	@DEBUG_VALUE: CLK_WaitClockReady:u32ClkMask <- 128
	cmp	r0, #0
	beq	.LBB19_110
.Ltmp520:
@ %bb.88:                               @   in Loop: Header=BB19_84 Depth=1
	@DEBUG_VALUE: CLK_WaitClockReady:u32TimeOutCnt <- [DW_OP_constu 2, DW_OP_minus, DW_OP_stack_value] $r0
	@DEBUG_VALUE: CLK_WaitClockReady:u32Ret <- 1
	@DEBUG_VALUE: CLK_WaitClockReady:u32ClkMask <- 128
	@DEBUG_VALUE: CLK_WaitClockReady:u32TimeOutCnt <- [DW_OP_constu 2, DW_OP_minus, DW_OP_stack_value] $r0
	.loc	9 1594 18                       @ ../../../../Library/StdDriver/src/clk.c:1594:18
	ldr	r2, [r3]
.Ltmp521:
	@DEBUG_VALUE: CLK_WaitClockReady:u32TimeOutCnt <- [DW_OP_constu 3, DW_OP_minus, DW_OP_stack_value] $r0
	.loc	9 1594 5                        @ ../../../../Library/StdDriver/src/clk.c:1594:5
	lsls	r2, r2, #24
	bmi	.LBB19_110
.Ltmp522:
@ %bb.89:                               @   in Loop: Header=BB19_84 Depth=1
	@DEBUG_VALUE: CLK_WaitClockReady:u32TimeOutCnt <- [DW_OP_constu 3, DW_OP_minus, DW_OP_stack_value] $r0
	@DEBUG_VALUE: CLK_WaitClockReady:u32Ret <- 1
	@DEBUG_VALUE: CLK_WaitClockReady:u32ClkMask <- 128
	adds	r2, r0, #1
	beq	.LBB19_110
.Ltmp523:
@ %bb.90:                               @   in Loop: Header=BB19_84 Depth=1
	@DEBUG_VALUE: CLK_WaitClockReady:u32TimeOutCnt <- [DW_OP_constu 3, DW_OP_minus, DW_OP_stack_value] $r0
	@DEBUG_VALUE: CLK_WaitClockReady:u32Ret <- 1
	@DEBUG_VALUE: CLK_WaitClockReady:u32ClkMask <- 128
	@DEBUG_VALUE: CLK_WaitClockReady:u32TimeOutCnt <- [DW_OP_constu 3, DW_OP_minus, DW_OP_stack_value] $r0
	.loc	9 1594 18                       @ ../../../../Library/StdDriver/src/clk.c:1594:18
	ldr	r2, [r3]
.Ltmp524:
	@DEBUG_VALUE: CLK_WaitClockReady:u32TimeOutCnt <- [DW_OP_LLVM_arg 0, DW_OP_consts 2, DW_OP_consts 18446744073709551615, DW_OP_LLVM_arg 0, DW_OP_consts 2, DW_OP_div, DW_OP_mul, DW_OP_plus, DW_OP_minus, DW_OP_consts 4, DW_OP_div, DW_OP_consts 18446744073709551612, DW_OP_mul, DW_OP_consts 18446744073709551612, DW_OP_LLVM_arg 0, DW_OP_consts 2, DW_OP_div, DW_OP_plus, DW_OP_plus, DW_OP_stack_value] undef
	.loc	9 1594 5                        @ ../../../../Library/StdDriver/src/clk.c:1594:5
	lsls	r2, r2, #24
	bmi	.LBB19_110
.Ltmp525:
@ %bb.91:                               @   in Loop: Header=BB19_84 Depth=1
	@DEBUG_VALUE: CLK_WaitClockReady:u32Ret <- 1
	@DEBUG_VALUE: CLK_WaitClockReady:u32ClkMask <- 128
	adds	r2, r0, #2
	add.w	r0, r0, #4
	bne	.LBB19_84
	b	.LBB19_110
.Ltmp526:
.LBB19_92:
	@DEBUG_VALUE: CLK_EnableAPLL:u32MinNR <- [DW_OP_plus_uconst 96] [$sp+0]
	@DEBUG_VALUE: CLK_EnableAPLL:u32Min <- $r6
	@DEBUG_VALUE: CLK_EnableAPLL:u32NO <- [$sp+0]
	@DEBUG_VALUE: CLK_EnableAPLL:u32PllFreq <- $r8
	@DEBUG_VALUE: CLK_EnableAPLL:u32PllSelect <- [DW_OP_LLVM_entry_value 1] $r2
	@DEBUG_VALUE: CLK_EnableAPLL:u32PllClkSrc <- [DW_OP_LLVM_entry_value 1] $r0
	.loc	9 1473 27 is_stmt 1             @ ../../../../Library/StdDriver/src/clk.c:1473:27
	str	r2, [r3, #20]
	.loc	9 1479 35                       @ ../../../../Library/StdDriver/src/clk.c:1479:35
	ldr	r2, [r3, #24]
	ldr	r7, [sp, #12]                   @ 4-byte Reload
	.loc	9 1479 44 is_stmt 0             @ ../../../../Library/StdDriver/src/clk.c:1479:44
	bic	r2, r2, #3
	.loc	9 1479 73                       @ ../../../../Library/StdDriver/src/clk.c:1479:73
	orrs	r2, r7
	.loc	9 1479 27                       @ ../../../../Library/StdDriver/src/clk.c:1479:27
	str	r2, [r3, #24]
.Ltmp527:
	.loc	9 1500 34 is_stmt 1             @ ../../../../Library/StdDriver/src/clk.c:1500:34
	udiv	r1, r4, r1
.Ltmp528:
	.loc	9 1482 25                       @ ../../../../Library/StdDriver/src/clk.c:1482:25
	ldr	r2, [r3, #-4]
.Ltmp529:
	.loc	9 1500 63                       @ ../../../../Library/StdDriver/src/clk.c:1500:63
	muls	r1, r0, r1
.Ltmp530:
	@DEBUG_VALUE: CLK_EnableAPLL:u32PllClk <- $r1
	.loc	9 1482 25                       @ ../../../../Library/StdDriver/src/clk.c:1482:25
	orr	r2, r2, #64
	str	r2, [r3, #-4]
.Ltmp531:
	.loc	9 1531 9                        @ ../../../../Library/StdDriver/src/clk.c:1531:9
	cbz	r7, .LBB19_102
.Ltmp532:
.LBB19_93:
	@DEBUG_VALUE: CLK_WaitClockReady:u32ClkMask <- 64
	.loc	9 1591 30                       @ ../../../../Library/StdDriver/src/clk.c:1591:30
	movw	r0, :lower16:SystemCoreClock
	movs	r2, #2
.Ltmp533:
	@DEBUG_VALUE: CLK_WaitClockReady:u32Ret <- 1
	@DEBUG_VALUE: CLK_WaitClockReady:u32TimeOutCnt <- undef
	movt	r0, :upper16:SystemCoreClock
	ldr	r0, [r0]
	.loc	9 1594 5                        @ ../../../../Library/StdDriver/src/clk.c:1594:5
	sub.w	r0, r2, r0, lsr #1
.Ltmp534:
	.p2align	2
.LBB19_94:                              @ =>This Inner Loop Header: Depth=1
	@DEBUG_VALUE: CLK_WaitClockReady:u32Ret <- 1
	@DEBUG_VALUE: CLK_WaitClockReady:u32ClkMask <- 64
	@DEBUG_VALUE: CLK_WaitClockReady:u32TimeOutCnt <- [DW_OP_LLVM_arg 0, DW_OP_consts 2, DW_OP_consts 18446744073709551615, DW_OP_LLVM_arg 0, DW_OP_consts 2, DW_OP_div, DW_OP_mul, DW_OP_plus, DW_OP_minus, DW_OP_consts 4, DW_OP_div, DW_OP_consts 18446744073709551612, DW_OP_mul, DW_OP_LLVM_arg 0, DW_OP_consts 2, DW_OP_div, DW_OP_plus, DW_OP_stack_value] undef
	.loc	9 1594 18 is_stmt 0             @ ../../../../Library/StdDriver/src/clk.c:1594:18
	ldr	r2, [r3]
.Ltmp535:
	@DEBUG_VALUE: CLK_WaitClockReady:u32TimeOutCnt <- [DW_OP_constu 1, DW_OP_minus, DW_OP_stack_value] $r0
	.loc	9 1594 5                        @ ../../../../Library/StdDriver/src/clk.c:1594:5
	lsls	r2, r2, #25
	bmi	.LBB19_110
.Ltmp536:
@ %bb.95:                               @   in Loop: Header=BB19_94 Depth=1
	@DEBUG_VALUE: CLK_WaitClockReady:u32TimeOutCnt <- [DW_OP_constu 1, DW_OP_minus, DW_OP_stack_value] $r0
	@DEBUG_VALUE: CLK_WaitClockReady:u32Ret <- 1
	@DEBUG_VALUE: CLK_WaitClockReady:u32ClkMask <- 64
	cmp	r0, #1
	beq	.LBB19_110
.Ltmp537:
@ %bb.96:                               @   in Loop: Header=BB19_94 Depth=1
	@DEBUG_VALUE: CLK_WaitClockReady:u32TimeOutCnt <- [DW_OP_constu 1, DW_OP_minus, DW_OP_stack_value] $r0
	@DEBUG_VALUE: CLK_WaitClockReady:u32Ret <- 1
	@DEBUG_VALUE: CLK_WaitClockReady:u32ClkMask <- 64
	@DEBUG_VALUE: CLK_WaitClockReady:u32TimeOutCnt <- [DW_OP_constu 1, DW_OP_minus, DW_OP_stack_value] $r0
	.loc	9 1594 18                       @ ../../../../Library/StdDriver/src/clk.c:1594:18
	ldr	r2, [r3]
.Ltmp538:
	@DEBUG_VALUE: CLK_WaitClockReady:u32TimeOutCnt <- [DW_OP_constu 2, DW_OP_minus, DW_OP_stack_value] $r0
	.loc	9 1594 5                        @ ../../../../Library/StdDriver/src/clk.c:1594:5
	lsls	r2, r2, #25
	bmi	.LBB19_110
.Ltmp539:
@ %bb.97:                               @   in Loop: Header=BB19_94 Depth=1
	@DEBUG_VALUE: CLK_WaitClockReady:u32TimeOutCnt <- [DW_OP_constu 2, DW_OP_minus, DW_OP_stack_value] $r0
	@DEBUG_VALUE: CLK_WaitClockReady:u32Ret <- 1
	@DEBUG_VALUE: CLK_WaitClockReady:u32ClkMask <- 64
	cbz	r0, .LBB19_110
.Ltmp540:
@ %bb.98:                               @   in Loop: Header=BB19_94 Depth=1
	@DEBUG_VALUE: CLK_WaitClockReady:u32TimeOutCnt <- [DW_OP_constu 2, DW_OP_minus, DW_OP_stack_value] $r0
	@DEBUG_VALUE: CLK_WaitClockReady:u32Ret <- 1
	@DEBUG_VALUE: CLK_WaitClockReady:u32ClkMask <- 64
	@DEBUG_VALUE: CLK_WaitClockReady:u32TimeOutCnt <- [DW_OP_constu 2, DW_OP_minus, DW_OP_stack_value] $r0
	.loc	9 1594 18                       @ ../../../../Library/StdDriver/src/clk.c:1594:18
	ldr	r2, [r3]
.Ltmp541:
	@DEBUG_VALUE: CLK_WaitClockReady:u32TimeOutCnt <- [DW_OP_constu 3, DW_OP_minus, DW_OP_stack_value] $r0
	.loc	9 1594 5                        @ ../../../../Library/StdDriver/src/clk.c:1594:5
	lsls	r2, r2, #25
	bmi	.LBB19_110
.Ltmp542:
@ %bb.99:                               @   in Loop: Header=BB19_94 Depth=1
	@DEBUG_VALUE: CLK_WaitClockReady:u32TimeOutCnt <- [DW_OP_constu 3, DW_OP_minus, DW_OP_stack_value] $r0
	@DEBUG_VALUE: CLK_WaitClockReady:u32Ret <- 1
	@DEBUG_VALUE: CLK_WaitClockReady:u32ClkMask <- 64
	adds	r2, r0, #1
	beq	.LBB19_110
.Ltmp543:
@ %bb.100:                              @   in Loop: Header=BB19_94 Depth=1
	@DEBUG_VALUE: CLK_WaitClockReady:u32TimeOutCnt <- [DW_OP_constu 3, DW_OP_minus, DW_OP_stack_value] $r0
	@DEBUG_VALUE: CLK_WaitClockReady:u32Ret <- 1
	@DEBUG_VALUE: CLK_WaitClockReady:u32ClkMask <- 64
	@DEBUG_VALUE: CLK_WaitClockReady:u32TimeOutCnt <- [DW_OP_constu 3, DW_OP_minus, DW_OP_stack_value] $r0
	.loc	9 1594 18                       @ ../../../../Library/StdDriver/src/clk.c:1594:18
	ldr	r2, [r3]
.Ltmp544:
	@DEBUG_VALUE: CLK_WaitClockReady:u32TimeOutCnt <- [DW_OP_LLVM_arg 0, DW_OP_consts 2, DW_OP_consts 18446744073709551615, DW_OP_LLVM_arg 0, DW_OP_consts 2, DW_OP_div, DW_OP_mul, DW_OP_plus, DW_OP_minus, DW_OP_consts 4, DW_OP_div, DW_OP_consts 18446744073709551612, DW_OP_mul, DW_OP_consts 18446744073709551612, DW_OP_LLVM_arg 0, DW_OP_consts 2, DW_OP_div, DW_OP_plus, DW_OP_plus, DW_OP_stack_value] undef
	.loc	9 1594 5                        @ ../../../../Library/StdDriver/src/clk.c:1594:5
	lsls	r2, r2, #25
	bmi	.LBB19_110
.Ltmp545:
@ %bb.101:                              @   in Loop: Header=BB19_94 Depth=1
	@DEBUG_VALUE: CLK_WaitClockReady:u32Ret <- 1
	@DEBUG_VALUE: CLK_WaitClockReady:u32ClkMask <- 64
	adds	r2, r0, #2
	add.w	r0, r0, #4
	bne	.LBB19_94
	b	.LBB19_110
.Ltmp546:
.LBB19_102:
	.loc	9 0 5                           @ ../../../../Library/StdDriver/src/clk.c:0:5
	movw	r0, #57360
.Ltmp547:
	movw	r3, :lower16:CyclesPerUs
	movt	r0, #57344
.Ltmp548:
	@DEBUG_VALUE: CLK_SysTickDelay:us <- 200
	.loc	9 2127 19 is_stmt 1             @ ../../../../Library/StdDriver/src/clk.c:2127:19
	ldr	r2, [r0]
	.loc	9 0 0 is_stmt 0                 @ ../../../../Library/StdDriver/src/clk.c:0:0
	movt	r3, :upper16:CyclesPerUs
	ldr	r3, [r3]
	.loc	9 2127 24                       @ ../../../../Library/StdDriver/src/clk.c:2127:24
	and	r7, r2, #5
	movs	r2, #200
	.loc	9 0 0                           @ ../../../../Library/StdDriver/src/clk.c:0:0
	muls	r2, r3, r2
.Ltmp549:
	.loc	9 2127 9                        @ ../../../../Library/StdDriver/src/clk.c:2127:9
	cmp	r7, #5
	bne	.LBB19_105
.Ltmp550:
@ %bb.103:
	@DEBUG_VALUE: CLK_SysTickDelay:us <- 200
	@DEBUG_VALUE: CLK_SysTickDelay:u32DelayCycles <- $r2
	.loc	9 2131 39 is_stmt 1             @ ../../../../Library/StdDriver/src/clk.c:2131:39
	ldr	r3, [r0, #4]
.Ltmp551:
	.loc	9 2131 13 is_stmt 0             @ ../../../../Library/StdDriver/src/clk.c:2131:13
	cmp	r2, r3
	bls	.LBB19_111
.Ltmp552:
@ %bb.104:
	@DEBUG_VALUE: CLK_SysTickDelay:u32DelayCycles <- $r2
	@DEBUG_VALUE: CLK_SysTickDelay:us <- 200
	.loc	9 2134 54 is_stmt 1             @ ../../../../Library/StdDriver/src/clk.c:2134:54
	ldr	r3, [r0, #4]
	.loc	9 2137 54                       @ ../../../../Library/StdDriver/src/clk.c:2137:54
	ldr	r6, [r0, #4]
	.loc	9 2134 43                       @ ../../../../Library/StdDriver/src/clk.c:2134:43
	udiv	r7, r2, r3
.Ltmp553:
	@DEBUG_VALUE: CLK_SysTickDelay:u32TargetInt <- $r7
	.loc	9 2137 43                       @ ../../../../Library/StdDriver/src/clk.c:2137:43
	udiv	r5, r2, r6
	mls	r2, r5, r6, r2
.Ltmp554:
	@DEBUG_VALUE: CLK_SysTickDelay:u32TargetRem <- $r2
	.loc	9 0 43 is_stmt 0                @ ../../../../Library/StdDriver/src/clk.c:0:43
	b	.LBB19_112
.Ltmp555:
.LBB19_105:
	@DEBUG_VALUE: CLK_SysTickDelay:us <- 200
	.loc	9 2173 23 is_stmt 1             @ ../../../../Library/StdDriver/src/clk.c:2173:23
	str	r2, [r0, #4]
	movs	r2, #0
	.loc	9 2174 23                       @ ../../../../Library/StdDriver/src/clk.c:2174:23
	str	r2, [r0, #8]
	movs	r2, #5
	.loc	9 2175 23                       @ ../../../../Library/StdDriver/src/clk.c:2175:23
	str	r2, [r0]
.Ltmp556:
.LBB19_106:                             @ =>This Inner Loop Header: Depth=1
	@DEBUG_VALUE: CLK_SysTickDelay:us <- 200
	.loc	9 2178 26                       @ ../../../../Library/StdDriver/src/clk.c:2178:26
	ldr	r2, [r0]
	.loc	9 2178 9 is_stmt 0              @ ../../../../Library/StdDriver/src/clk.c:2178:9
	lsls	r2, r2, #15
	bmi	.LBB19_109
.Ltmp557:
@ %bb.107:                              @   in Loop: Header=BB19_106 Depth=1
	@DEBUG_VALUE: CLK_SysTickDelay:us <- 200
	.loc	9 2178 26                       @ ../../../../Library/StdDriver/src/clk.c:2178:26
	ldr	r2, [r0]
	.loc	9 2178 9                        @ ../../../../Library/StdDriver/src/clk.c:2178:9
	lsls	r2, r2, #15
	.loc	9 2178 26                       @ ../../../../Library/StdDriver/src/clk.c:2178:26
	itt	pl
	ldrpl	r2, [r0]
	.loc	9 2178 9                        @ ../../../../Library/StdDriver/src/clk.c:2178:9
	lslspl.w	r2, r2, #15
	bmi	.LBB19_109
.Ltmp558:
@ %bb.108:                              @   in Loop: Header=BB19_106 Depth=1
	@DEBUG_VALUE: CLK_SysTickDelay:us <- 200
	.loc	9 2178 26                       @ ../../../../Library/StdDriver/src/clk.c:2178:26
	ldr	r2, [r0]
	.loc	9 2178 9                        @ ../../../../Library/StdDriver/src/clk.c:2178:9
	lsls	r2, r2, #15
	bpl	.LBB19_106
.Ltmp559:
.LBB19_109:
	@DEBUG_VALUE: CLK_SysTickDelay:us <- 200
	.loc	9 0 9                           @ ../../../../Library/StdDriver/src/clk.c:0:9
	movs	r2, #0
	.loc	9 2183 23 is_stmt 1             @ ../../../../Library/StdDriver/src/clk.c:2183:23
	str	r2, [r0]
.Ltmp560:
.LBB19_110:
	.loc	9 1550 5                        @ ../../../../Library/StdDriver/src/clk.c:1550:5
	mov	r0, r1
	.loc	9 1550 5 epilogue_begin is_stmt 0 @ ../../../../Library/StdDriver/src/clk.c:1550:5
	add	sp, #100
	pop.w	{r4, r5, r6, r7, r8, r9, r10, r11, pc}
.LBB19_111:
	@DEBUG_VALUE: CLK_SysTickDelay:u32DelayCycles <- $r2
	@DEBUG_VALUE: CLK_SysTickDelay:us <- 200
	.loc	9 0 5                           @ ../../../../Library/StdDriver/src/clk.c:0:5
	movs	r7, #0
.LBB19_112:
.Ltmp561:
	@DEBUG_VALUE: CLK_SysTickDelay:us <- 200
	@DEBUG_VALUE: CLK_SysTickDelay:u32TargetInt <- $r7
	@DEBUG_VALUE: CLK_SysTickDelay:u32TargetRem <- $r2
	.loc	9 2145 37 is_stmt 1             @ ../../../../Library/StdDriver/src/clk.c:2145:37
	ldr	r3, [r0, #8]
.Ltmp562:
	.loc	9 2145 13 is_stmt 0             @ ../../../../Library/StdDriver/src/clk.c:2145:13
	cmp	r2, r3
	bls	.LBB19_114
.Ltmp563:
@ %bb.113:
	@DEBUG_VALUE: CLK_SysTickDelay:u32TargetRem <- $r2
	@DEBUG_VALUE: CLK_SysTickDelay:u32TargetInt <- $r7
	@DEBUG_VALUE: CLK_SysTickDelay:us <- 200
	.loc	9 2147 39 is_stmt 1             @ ../../../../Library/StdDriver/src/clk.c:2147:39
	ldr	r3, [r0, #4]
.Ltmp564:
	@DEBUG_VALUE: CLK_SysTickDelay:u32TargetValue <- $r3
	.loc	9 2149 25                       @ ../../../../Library/StdDriver/src/clk.c:2149:25
	adds	r7, #1
.Ltmp565:
	@DEBUG_VALUE: CLK_SysTickDelay:u32TargetInt <- $r7
	.loc	9 2148 72                       @ ../../../../Library/StdDriver/src/clk.c:2148:72
	ldr	r6, [r0, #8]
	.loc	9 2148 61 is_stmt 0             @ ../../../../Library/StdDriver/src/clk.c:2148:61
	subs	r2, r3, r2
.Ltmp566:
	.loc	9 2148 45                       @ ../../../../Library/StdDriver/src/clk.c:2148:45
	add	r2, r6
.Ltmp567:
	@DEBUG_VALUE: CLK_SysTickDelay:u32TargetValue <- $r2
	@DEBUG_VALUE: CLK_SysTickDelay:u32TargetInt <- $r7
	@DEBUG_VALUE: CLK_SysTickDelay:u32TargetValue <- $r2
	.loc	9 0 45                          @ ../../../../Library/StdDriver/src/clk.c:0:45
	cbnz	r7, .LBB19_115
	b	.LBB19_131
.Ltmp568:
.LBB19_114:
	@DEBUG_VALUE: CLK_SysTickDelay:u32TargetRem <- $r2
	@DEBUG_VALUE: CLK_SysTickDelay:u32TargetInt <- $r7
	@DEBUG_VALUE: CLK_SysTickDelay:us <- 200
	.loc	9 2153 39 is_stmt 1             @ ../../../../Library/StdDriver/src/clk.c:2153:39
	ldr	r3, [r0, #8]
	.loc	9 2153 43 is_stmt 0             @ ../../../../Library/StdDriver/src/clk.c:2153:43
	subs	r2, r3, r2
.Ltmp569:
	@DEBUG_VALUE: CLK_SysTickDelay:u32TargetValue <- $r2
	@DEBUG_VALUE: CLK_SysTickDelay:u32TargetInt <- $r7
	@DEBUG_VALUE: CLK_SysTickDelay:u32TargetValue <- $r2
	.loc	9 2156 9 is_stmt 1              @ ../../../../Library/StdDriver/src/clk.c:2156:9
	cbz	r7, .LBB19_131
.Ltmp570:
.LBB19_115:
	@DEBUG_VALUE: CLK_SysTickDelay:u32TargetValue <- $r2
	@DEBUG_VALUE: CLK_SysTickDelay:u32TargetInt <- $r7
	@DEBUG_VALUE: CLK_SysTickDelay:us <- 200
	ands	r6, r7, #3
	mov	r3, r7
	beq	.LBB19_130
.Ltmp571:
.LBB19_116:                             @ =>This Inner Loop Header: Depth=1
	@DEBUG_VALUE: CLK_SysTickDelay:u32TargetValue <- $r2
	@DEBUG_VALUE: CLK_SysTickDelay:u32TargetInt <- $r7
	@DEBUG_VALUE: CLK_SysTickDelay:us <- 200
	.loc	9 2159 30                       @ ../../../../Library/StdDriver/src/clk.c:2159:30
	ldr	r3, [r0]
	.loc	9 2159 13 is_stmt 0             @ ../../../../Library/StdDriver/src/clk.c:2159:13
	lsls	r3, r3, #15
	bmi	.LBB19_119
.Ltmp572:
@ %bb.117:                              @   in Loop: Header=BB19_116 Depth=1
	@DEBUG_VALUE: CLK_SysTickDelay:u32TargetValue <- $r2
	@DEBUG_VALUE: CLK_SysTickDelay:u32TargetInt <- $r7
	@DEBUG_VALUE: CLK_SysTickDelay:us <- 200
	.loc	9 2159 30                       @ ../../../../Library/StdDriver/src/clk.c:2159:30
	ldr	r3, [r0]
	.loc	9 2159 13                       @ ../../../../Library/StdDriver/src/clk.c:2159:13
	lsls	r3, r3, #15
	.loc	9 2159 30                       @ ../../../../Library/StdDriver/src/clk.c:2159:30
	itt	pl
	ldrpl	r3, [r0]
	.loc	9 2159 13                       @ ../../../../Library/StdDriver/src/clk.c:2159:13
	lslspl.w	r3, r3, #15
	bmi	.LBB19_119
.Ltmp573:
@ %bb.118:                              @   in Loop: Header=BB19_116 Depth=1
	@DEBUG_VALUE: CLK_SysTickDelay:u32TargetValue <- $r2
	@DEBUG_VALUE: CLK_SysTickDelay:u32TargetInt <- $r7
	@DEBUG_VALUE: CLK_SysTickDelay:us <- 200
	.loc	9 2159 30                       @ ../../../../Library/StdDriver/src/clk.c:2159:30
	ldr	r3, [r0]
	.loc	9 2159 13                       @ ../../../../Library/StdDriver/src/clk.c:2159:13
	lsls	r3, r3, #15
	bpl	.LBB19_116
.Ltmp574:
.LBB19_119:
	@DEBUG_VALUE: CLK_SysTickDelay:u32TargetValue <- $r2
	@DEBUG_VALUE: CLK_SysTickDelay:u32TargetInt <- $r7
	@DEBUG_VALUE: CLK_SysTickDelay:us <- 200
	@DEBUG_VALUE: CLK_SysTickDelay:u32TargetInt <- undef
	.loc	9 2156 9 is_stmt 1              @ ../../../../Library/StdDriver/src/clk.c:2156:9
	cmp	r6, #1
	bne	.LBB19_121
.Ltmp575:
@ %bb.120:
	@DEBUG_VALUE: CLK_SysTickDelay:u32TargetValue <- $r2
	@DEBUG_VALUE: CLK_SysTickDelay:us <- 200
	.loc	9 0 9 is_stmt 0                 @ ../../../../Library/StdDriver/src/clk.c:0:9
	subs	r3, r7, #1
.Ltmp576:
	@DEBUG_VALUE: CLK_SysTickDelay:u32TargetInt <- $r3
	b	.LBB19_130
.Ltmp577:
.LBB19_121:                             @ =>This Inner Loop Header: Depth=1
	@DEBUG_VALUE: CLK_SysTickDelay:u32TargetValue <- $r2
	@DEBUG_VALUE: CLK_SysTickDelay:us <- 200
	.loc	9 2159 30 is_stmt 1             @ ../../../../Library/StdDriver/src/clk.c:2159:30
	ldr	r3, [r0]
	.loc	9 2159 13 is_stmt 0             @ ../../../../Library/StdDriver/src/clk.c:2159:13
	lsls	r3, r3, #15
	bmi	.LBB19_124
.Ltmp578:
@ %bb.122:                              @   in Loop: Header=BB19_121 Depth=1
	@DEBUG_VALUE: CLK_SysTickDelay:u32TargetValue <- $r2
	@DEBUG_VALUE: CLK_SysTickDelay:us <- 200
	.loc	9 2159 30                       @ ../../../../Library/StdDriver/src/clk.c:2159:30
	ldr	r3, [r0]
	.loc	9 2159 13                       @ ../../../../Library/StdDriver/src/clk.c:2159:13
	lsls	r3, r3, #15
	.loc	9 2159 30                       @ ../../../../Library/StdDriver/src/clk.c:2159:30
	itt	pl
	ldrpl	r3, [r0]
	.loc	9 2159 13                       @ ../../../../Library/StdDriver/src/clk.c:2159:13
	lslspl.w	r3, r3, #15
	bmi	.LBB19_124
.Ltmp579:
@ %bb.123:                              @   in Loop: Header=BB19_121 Depth=1
	@DEBUG_VALUE: CLK_SysTickDelay:u32TargetValue <- $r2
	@DEBUG_VALUE: CLK_SysTickDelay:us <- 200
	.loc	9 2159 30                       @ ../../../../Library/StdDriver/src/clk.c:2159:30
	ldr	r3, [r0]
	.loc	9 2159 13                       @ ../../../../Library/StdDriver/src/clk.c:2159:13
	lsls	r3, r3, #15
	bpl	.LBB19_121
.Ltmp580:
.LBB19_124:
	@DEBUG_VALUE: CLK_SysTickDelay:u32TargetValue <- $r2
	@DEBUG_VALUE: CLK_SysTickDelay:us <- 200
	@DEBUG_VALUE: CLK_SysTickDelay:u32TargetInt <- undef
	.loc	9 2156 9 is_stmt 1              @ ../../../../Library/StdDriver/src/clk.c:2156:9
	cmp	r6, #2
	bne	.LBB19_126
.Ltmp581:
@ %bb.125:
	@DEBUG_VALUE: CLK_SysTickDelay:u32TargetValue <- $r2
	@DEBUG_VALUE: CLK_SysTickDelay:us <- 200
	.loc	9 0 9 is_stmt 0                 @ ../../../../Library/StdDriver/src/clk.c:0:9
	subs	r3, r7, #2
.Ltmp582:
	@DEBUG_VALUE: CLK_SysTickDelay:u32TargetInt <- $r3
	b	.LBB19_130
.Ltmp583:
.LBB19_126:                             @ =>This Inner Loop Header: Depth=1
	@DEBUG_VALUE: CLK_SysTickDelay:u32TargetValue <- $r2
	@DEBUG_VALUE: CLK_SysTickDelay:us <- 200
	.loc	9 2159 30 is_stmt 1             @ ../../../../Library/StdDriver/src/clk.c:2159:30
	ldr	r3, [r0]
	.loc	9 2159 13 is_stmt 0             @ ../../../../Library/StdDriver/src/clk.c:2159:13
	lsls	r3, r3, #15
	bmi	.LBB19_129
.Ltmp584:
@ %bb.127:                              @   in Loop: Header=BB19_126 Depth=1
	@DEBUG_VALUE: CLK_SysTickDelay:u32TargetValue <- $r2
	@DEBUG_VALUE: CLK_SysTickDelay:us <- 200
	.loc	9 2159 30                       @ ../../../../Library/StdDriver/src/clk.c:2159:30
	ldr	r3, [r0]
	.loc	9 2159 13                       @ ../../../../Library/StdDriver/src/clk.c:2159:13
	lsls	r3, r3, #15
	.loc	9 2159 30                       @ ../../../../Library/StdDriver/src/clk.c:2159:30
	itt	pl
	ldrpl	r3, [r0]
	.loc	9 2159 13                       @ ../../../../Library/StdDriver/src/clk.c:2159:13
	lslspl.w	r3, r3, #15
	bmi	.LBB19_129
.Ltmp585:
@ %bb.128:                              @   in Loop: Header=BB19_126 Depth=1
	@DEBUG_VALUE: CLK_SysTickDelay:u32TargetValue <- $r2
	@DEBUG_VALUE: CLK_SysTickDelay:us <- 200
	.loc	9 2159 30                       @ ../../../../Library/StdDriver/src/clk.c:2159:30
	ldr	r3, [r0]
	.loc	9 2159 13                       @ ../../../../Library/StdDriver/src/clk.c:2159:13
	lsls	r3, r3, #15
	bpl	.LBB19_126
.Ltmp586:
.LBB19_129:
	@DEBUG_VALUE: CLK_SysTickDelay:u32TargetValue <- $r2
	@DEBUG_VALUE: CLK_SysTickDelay:us <- 200
	.loc	9 2163 25 is_stmt 1             @ ../../../../Library/StdDriver/src/clk.c:2163:25
	subs	r3, r7, #3
.Ltmp587:
	@DEBUG_VALUE: CLK_SysTickDelay:u32TargetInt <- $r3
.LBB19_130:
	@DEBUG_VALUE: CLK_SysTickDelay:u32TargetValue <- $r2
	@DEBUG_VALUE: CLK_SysTickDelay:us <- 200
	.loc	9 2156 9                        @ ../../../../Library/StdDriver/src/clk.c:2156:9
	cmp	r7, #4
	bhs	.LBB19_136
.Ltmp588:
	.p2align	2
.LBB19_131:                             @ =>This Inner Loop Header: Depth=1
	@DEBUG_VALUE: CLK_SysTickDelay:u32TargetValue <- $r2
	@DEBUG_VALUE: CLK_SysTickDelay:us <- 200
	.loc	9 2167 25                       @ ../../../../Library/StdDriver/src/clk.c:2167:25
	ldr	r3, [r0, #8]
	.loc	9 2167 9 is_stmt 0              @ ../../../../Library/StdDriver/src/clk.c:2167:9
	cmp	r3, r2
	bls	.LBB19_110
.Ltmp589:
@ %bb.132:                              @   in Loop: Header=BB19_131 Depth=1
	@DEBUG_VALUE: CLK_SysTickDelay:u32TargetValue <- $r2
	@DEBUG_VALUE: CLK_SysTickDelay:us <- 200
	.loc	9 2167 25                       @ ../../../../Library/StdDriver/src/clk.c:2167:25
	ldr	r3, [r0, #8]
	.loc	9 2167 9                        @ ../../../../Library/StdDriver/src/clk.c:2167:9
	cmp	r3, r2
	bls	.LBB19_110
.Ltmp590:
@ %bb.133:                              @   in Loop: Header=BB19_131 Depth=1
	@DEBUG_VALUE: CLK_SysTickDelay:u32TargetValue <- $r2
	@DEBUG_VALUE: CLK_SysTickDelay:us <- 200
	.loc	9 2167 25                       @ ../../../../Library/StdDriver/src/clk.c:2167:25
	ldr	r3, [r0, #8]
	.loc	9 2167 9                        @ ../../../../Library/StdDriver/src/clk.c:2167:9
	cmp	r3, r2
	bls	.LBB19_110
.Ltmp591:
@ %bb.134:                              @   in Loop: Header=BB19_131 Depth=1
	@DEBUG_VALUE: CLK_SysTickDelay:u32TargetValue <- $r2
	@DEBUG_VALUE: CLK_SysTickDelay:us <- 200
	.loc	9 2167 25                       @ ../../../../Library/StdDriver/src/clk.c:2167:25
	ldr	r3, [r0, #8]
	.loc	9 2167 9                        @ ../../../../Library/StdDriver/src/clk.c:2167:9
	cmp	r3, r2
	bhi	.LBB19_131
	b	.LBB19_110
.Ltmp592:
	.p2align	2
.LBB19_135:                             @   in Loop: Header=BB19_136 Depth=1
	@DEBUG_VALUE: CLK_SysTickDelay:u32TargetValue <- $r2
	@DEBUG_VALUE: CLK_SysTickDelay:us <- 200
	.loc	9 2163 25 is_stmt 1             @ ../../../../Library/StdDriver/src/clk.c:2163:25
	subs	r3, #4
.Ltmp593:
	@DEBUG_VALUE: CLK_SysTickDelay:u32TargetInt <- $r3
	.loc	9 2156 9                        @ ../../../../Library/StdDriver/src/clk.c:2156:9
	beq	.LBB19_131
.Ltmp594:
.LBB19_136:                             @ =>This Loop Header: Depth=1
                                        @     Child Loop BB19_138 Depth 2
                                        @     Child Loop BB19_141 Depth 2
                                        @     Child Loop BB19_144 Depth 2
	@DEBUG_VALUE: CLK_SysTickDelay:u32TargetValue <- $r2
	@DEBUG_VALUE: CLK_SysTickDelay:us <- 200
	.loc	9 2159 30                       @ ../../../../Library/StdDriver/src/clk.c:2159:30
	ldr	r7, [r0]
	.loc	9 2159 13 is_stmt 0             @ ../../../../Library/StdDriver/src/clk.c:2159:13
	lsls	r7, r7, #15
	bmi	.LBB19_138
.Ltmp595:
@ %bb.137:                              @   in Loop: Header=BB19_136 Depth=1
	@DEBUG_VALUE: CLK_SysTickDelay:u32TargetValue <- $r2
	@DEBUG_VALUE: CLK_SysTickDelay:us <- 200
	.loc	9 2159 30                       @ ../../../../Library/StdDriver/src/clk.c:2159:30
	ldr	r7, [r0]
	.loc	9 2159 13                       @ ../../../../Library/StdDriver/src/clk.c:2159:13
	lsls	r7, r7, #15
	.loc	9 2159 30                       @ ../../../../Library/StdDriver/src/clk.c:2159:30
	itt	pl
	ldrpl	r7, [r0]
	.loc	9 2159 13                       @ ../../../../Library/StdDriver/src/clk.c:2159:13
	lslspl.w	r7, r7, #15
	bpl	.LBB19_147
.Ltmp596:
.LBB19_138:                             @   Parent Loop BB19_136 Depth=1
                                        @ =>  This Inner Loop Header: Depth=2
	@DEBUG_VALUE: CLK_SysTickDelay:u32TargetValue <- $r2
	@DEBUG_VALUE: CLK_SysTickDelay:us <- 200
	.loc	9 2159 30                       @ ../../../../Library/StdDriver/src/clk.c:2159:30
	ldr	r7, [r0]
	.loc	9 2159 13                       @ ../../../../Library/StdDriver/src/clk.c:2159:13
	lsls	r7, r7, #15
	bmi	.LBB19_141
.Ltmp597:
@ %bb.139:                              @   in Loop: Header=BB19_138 Depth=2
	@DEBUG_VALUE: CLK_SysTickDelay:u32TargetValue <- $r2
	@DEBUG_VALUE: CLK_SysTickDelay:us <- 200
	.loc	9 2159 30                       @ ../../../../Library/StdDriver/src/clk.c:2159:30
	ldr	r7, [r0]
	.loc	9 2159 13                       @ ../../../../Library/StdDriver/src/clk.c:2159:13
	lsls	r7, r7, #15
	.loc	9 2159 30                       @ ../../../../Library/StdDriver/src/clk.c:2159:30
	itt	pl
	ldrpl	r7, [r0]
	.loc	9 2159 13                       @ ../../../../Library/StdDriver/src/clk.c:2159:13
	lslspl.w	r7, r7, #15
	bmi	.LBB19_141
.Ltmp598:
@ %bb.140:                              @   in Loop: Header=BB19_138 Depth=2
	@DEBUG_VALUE: CLK_SysTickDelay:u32TargetValue <- $r2
	@DEBUG_VALUE: CLK_SysTickDelay:us <- 200
	.loc	9 2159 30                       @ ../../../../Library/StdDriver/src/clk.c:2159:30
	ldr	r7, [r0]
	.loc	9 2159 13                       @ ../../../../Library/StdDriver/src/clk.c:2159:13
	lsls	r7, r7, #15
	bpl	.LBB19_138
.Ltmp599:
	.p2align	2
.LBB19_141:                             @   Parent Loop BB19_136 Depth=1
                                        @ =>  This Inner Loop Header: Depth=2
	@DEBUG_VALUE: CLK_SysTickDelay:u32TargetValue <- $r2
	@DEBUG_VALUE: CLK_SysTickDelay:us <- 200
	.loc	9 2159 30                       @ ../../../../Library/StdDriver/src/clk.c:2159:30
	ldr	r7, [r0]
	.loc	9 2159 13                       @ ../../../../Library/StdDriver/src/clk.c:2159:13
	lsls	r7, r7, #15
	bmi	.LBB19_144
.Ltmp600:
@ %bb.142:                              @   in Loop: Header=BB19_141 Depth=2
	@DEBUG_VALUE: CLK_SysTickDelay:u32TargetValue <- $r2
	@DEBUG_VALUE: CLK_SysTickDelay:us <- 200
	.loc	9 2159 30                       @ ../../../../Library/StdDriver/src/clk.c:2159:30
	ldr	r7, [r0]
	.loc	9 2159 13                       @ ../../../../Library/StdDriver/src/clk.c:2159:13
	lsls	r7, r7, #15
	.loc	9 2159 30                       @ ../../../../Library/StdDriver/src/clk.c:2159:30
	itt	pl
	ldrpl	r7, [r0]
	.loc	9 2159 13                       @ ../../../../Library/StdDriver/src/clk.c:2159:13
	lslspl.w	r7, r7, #15
	bmi	.LBB19_144
.Ltmp601:
@ %bb.143:                              @   in Loop: Header=BB19_141 Depth=2
	@DEBUG_VALUE: CLK_SysTickDelay:u32TargetValue <- $r2
	@DEBUG_VALUE: CLK_SysTickDelay:us <- 200
	.loc	9 2159 30                       @ ../../../../Library/StdDriver/src/clk.c:2159:30
	ldr	r7, [r0]
	.loc	9 2159 13                       @ ../../../../Library/StdDriver/src/clk.c:2159:13
	lsls	r7, r7, #15
	bpl	.LBB19_141
.Ltmp602:
	.p2align	2
.LBB19_144:                             @   Parent Loop BB19_136 Depth=1
                                        @ =>  This Inner Loop Header: Depth=2
	@DEBUG_VALUE: CLK_SysTickDelay:u32TargetValue <- $r2
	@DEBUG_VALUE: CLK_SysTickDelay:us <- 200
	.loc	9 2159 30                       @ ../../../../Library/StdDriver/src/clk.c:2159:30
	ldr	r7, [r0]
	.loc	9 2159 13                       @ ../../../../Library/StdDriver/src/clk.c:2159:13
	lsls	r7, r7, #15
	bmi	.LBB19_135
.Ltmp603:
@ %bb.145:                              @   in Loop: Header=BB19_144 Depth=2
	@DEBUG_VALUE: CLK_SysTickDelay:u32TargetValue <- $r2
	@DEBUG_VALUE: CLK_SysTickDelay:us <- 200
	.loc	9 2159 30                       @ ../../../../Library/StdDriver/src/clk.c:2159:30
	ldr	r7, [r0]
	.loc	9 2159 13                       @ ../../../../Library/StdDriver/src/clk.c:2159:13
	lsls	r7, r7, #15
	.loc	9 2159 30                       @ ../../../../Library/StdDriver/src/clk.c:2159:30
	itt	pl
	ldrpl	r7, [r0]
	.loc	9 2159 13                       @ ../../../../Library/StdDriver/src/clk.c:2159:13
	lslspl.w	r7, r7, #15
	bmi	.LBB19_135
.Ltmp604:
@ %bb.146:                              @   in Loop: Header=BB19_144 Depth=2
	@DEBUG_VALUE: CLK_SysTickDelay:u32TargetValue <- $r2
	@DEBUG_VALUE: CLK_SysTickDelay:us <- 200
	.loc	9 2159 30                       @ ../../../../Library/StdDriver/src/clk.c:2159:30
	ldr	r7, [r0]
	.loc	9 2159 13                       @ ../../../../Library/StdDriver/src/clk.c:2159:13
	lsls	r7, r7, #15
	bpl	.LBB19_144
	b	.LBB19_135
.Ltmp605:
	.p2align	2
.LBB19_147:                             @   in Loop: Header=BB19_136 Depth=1
	@DEBUG_VALUE: CLK_SysTickDelay:u32TargetValue <- $r2
	@DEBUG_VALUE: CLK_SysTickDelay:us <- 200
	.loc	9 2159 30                       @ ../../../../Library/StdDriver/src/clk.c:2159:30
	ldr	r7, [r0]
	.loc	9 2159 13                       @ ../../../../Library/StdDriver/src/clk.c:2159:13
	lsls	r7, r7, #15
	bpl	.LBB19_136
	b	.LBB19_138
.Ltmp606:
.Lfunc_end19:
	.size	CLK_EnableAPLL, .Lfunc_end19-CLK_EnableAPLL
	.cfi_endproc
	.cantunwind
	.fnend
                                        @ -- End function
	.section	.text.CLK_SetSCLK,"ax",%progbits
	.hidden	CLK_SetSCLK                     @ -- Begin function CLK_SetSCLK
	.globl	CLK_SetSCLK
	.p2align	2
	.type	CLK_SetSCLK,%function
	.code	16                              @ @CLK_SetSCLK
	.thumb_func
CLK_SetSCLK:
.Lfunc_begin20:
	.loc	9 459 0 is_stmt 1               @ ../../../../Library/StdDriver/src/clk.c:459:0
	.fnstart
	.cfi_startproc
@ %bb.0:
	@DEBUG_VALUE: CLK_SetSCLK:u32ClkSrc <- $r0
	.save	{r4, r5, r6, r7, r8, lr}
	push.w	{r4, r5, r6, r7, r8, lr}
	.cfi_def_cfa_offset 24
	.cfi_offset lr, -4
	.cfi_offset r8, -8
	.cfi_offset r7, -12
	.cfi_offset r6, -16
	.cfi_offset r5, -20
	.cfi_offset r4, -24
	movw	r4, #4100
.Ltmp607:
	.loc	9 1591 30 prologue_end          @ ../../../../Library/StdDriver/src/clk.c:1591:30
	movw	r7, :lower16:SystemCoreClock
	movt	r4, #16384
	movs	r2, #2
.Ltmp608:
	@DEBUG_VALUE: CLK_WaitClockReady:u32Ret <- 1
	@DEBUG_VALUE: CLK_WaitClockReady:u32TimeOutCnt <- undef
	.loc	9 463 23                        @ ../../../../Library/StdDriver/src/clk.c:463:23
	ldr.w	r8, [r4]
	.loc	9 466 17                        @ ../../../../Library/StdDriver/src/clk.c:466:17
	ldr	r1, [r4, #-4]
.Ltmp609:
	.loc	9 1591 30                       @ ../../../../Library/StdDriver/src/clk.c:1591:30
	movt	r7, :upper16:SystemCoreClock
.Ltmp610:
	.loc	9 466 17                        @ ../../../../Library/StdDriver/src/clk.c:466:17
	orr	r1, r1, #8
	str	r1, [r4, #-4]
.Ltmp611:
	@DEBUG_VALUE: CLK_WaitClockReady:u32ClkMask <- 8
	.loc	9 1591 30                       @ ../../../../Library/StdDriver/src/clk.c:1591:30
	ldr	r1, [r7]
	.loc	9 1594 5                        @ ../../../../Library/StdDriver/src/clk.c:1594:5
	sub.w	r1, r2, r1, lsr #1
.Ltmp612:
	.p2align	2
.LBB20_1:                               @ =>This Inner Loop Header: Depth=1
	@DEBUG_VALUE: CLK_WaitClockReady:u32ClkMask <- 8
	@DEBUG_VALUE: CLK_WaitClockReady:u32Ret <- 1
	@DEBUG_VALUE: CLK_SetSCLK:u32ClkSrc <- $r0
	@DEBUG_VALUE: CLK_WaitClockReady:u32TimeOutCnt <- [DW_OP_LLVM_arg 0, DW_OP_consts 2, DW_OP_consts 18446744073709551615, DW_OP_LLVM_arg 0, DW_OP_consts 2, DW_OP_div, DW_OP_mul, DW_OP_plus, DW_OP_minus, DW_OP_consts 4, DW_OP_div, DW_OP_consts 18446744073709551612, DW_OP_mul, DW_OP_LLVM_arg 0, DW_OP_consts 2, DW_OP_div, DW_OP_plus, DW_OP_stack_value] undef
	.loc	9 1594 18 is_stmt 0             @ ../../../../Library/StdDriver/src/clk.c:1594:18
	ldr	r2, [r4]
.Ltmp613:
	@DEBUG_VALUE: CLK_WaitClockReady:u32TimeOutCnt <- [DW_OP_constu 1, DW_OP_minus, DW_OP_stack_value] $r1
	.loc	9 1594 5                        @ ../../../../Library/StdDriver/src/clk.c:1594:5
	lsls	r2, r2, #28
	bmi	.LBB20_9
.Ltmp614:
@ %bb.2:                                @   in Loop: Header=BB20_1 Depth=1
	@DEBUG_VALUE: CLK_WaitClockReady:u32TimeOutCnt <- [DW_OP_constu 1, DW_OP_minus, DW_OP_stack_value] $r1
	@DEBUG_VALUE: CLK_WaitClockReady:u32ClkMask <- 8
	@DEBUG_VALUE: CLK_WaitClockReady:u32Ret <- 1
	@DEBUG_VALUE: CLK_SetSCLK:u32ClkSrc <- $r0
	cmp	r1, #1
	beq	.LBB20_9
.Ltmp615:
@ %bb.3:                                @   in Loop: Header=BB20_1 Depth=1
	@DEBUG_VALUE: CLK_WaitClockReady:u32TimeOutCnt <- [DW_OP_constu 1, DW_OP_minus, DW_OP_stack_value] $r1
	@DEBUG_VALUE: CLK_WaitClockReady:u32ClkMask <- 8
	@DEBUG_VALUE: CLK_WaitClockReady:u32Ret <- 1
	@DEBUG_VALUE: CLK_SetSCLK:u32ClkSrc <- $r0
	@DEBUG_VALUE: CLK_WaitClockReady:u32TimeOutCnt <- [DW_OP_constu 1, DW_OP_minus, DW_OP_stack_value] $r1
	.loc	9 1594 18                       @ ../../../../Library/StdDriver/src/clk.c:1594:18
	ldr	r2, [r4]
.Ltmp616:
	@DEBUG_VALUE: CLK_WaitClockReady:u32TimeOutCnt <- [DW_OP_constu 2, DW_OP_minus, DW_OP_stack_value] $r1
	.loc	9 1594 5                        @ ../../../../Library/StdDriver/src/clk.c:1594:5
	lsls	r2, r2, #28
	bmi	.LBB20_9
.Ltmp617:
@ %bb.4:                                @   in Loop: Header=BB20_1 Depth=1
	@DEBUG_VALUE: CLK_WaitClockReady:u32TimeOutCnt <- [DW_OP_constu 2, DW_OP_minus, DW_OP_stack_value] $r1
	@DEBUG_VALUE: CLK_WaitClockReady:u32ClkMask <- 8
	@DEBUG_VALUE: CLK_WaitClockReady:u32Ret <- 1
	@DEBUG_VALUE: CLK_SetSCLK:u32ClkSrc <- $r0
	cbz	r1, .LBB20_9
.Ltmp618:
@ %bb.5:                                @   in Loop: Header=BB20_1 Depth=1
	@DEBUG_VALUE: CLK_WaitClockReady:u32TimeOutCnt <- [DW_OP_constu 2, DW_OP_minus, DW_OP_stack_value] $r1
	@DEBUG_VALUE: CLK_WaitClockReady:u32ClkMask <- 8
	@DEBUG_VALUE: CLK_WaitClockReady:u32Ret <- 1
	@DEBUG_VALUE: CLK_SetSCLK:u32ClkSrc <- $r0
	@DEBUG_VALUE: CLK_WaitClockReady:u32TimeOutCnt <- [DW_OP_constu 2, DW_OP_minus, DW_OP_stack_value] $r1
	.loc	9 1594 18                       @ ../../../../Library/StdDriver/src/clk.c:1594:18
	ldr	r2, [r4]
.Ltmp619:
	@DEBUG_VALUE: CLK_WaitClockReady:u32TimeOutCnt <- [DW_OP_constu 3, DW_OP_minus, DW_OP_stack_value] $r1
	.loc	9 1594 5                        @ ../../../../Library/StdDriver/src/clk.c:1594:5
	lsls	r2, r2, #28
	bmi	.LBB20_9
.Ltmp620:
@ %bb.6:                                @   in Loop: Header=BB20_1 Depth=1
	@DEBUG_VALUE: CLK_WaitClockReady:u32TimeOutCnt <- [DW_OP_constu 3, DW_OP_minus, DW_OP_stack_value] $r1
	@DEBUG_VALUE: CLK_WaitClockReady:u32ClkMask <- 8
	@DEBUG_VALUE: CLK_WaitClockReady:u32Ret <- 1
	@DEBUG_VALUE: CLK_SetSCLK:u32ClkSrc <- $r0
	adds	r2, r1, #1
	beq	.LBB20_9
.Ltmp621:
@ %bb.7:                                @   in Loop: Header=BB20_1 Depth=1
	@DEBUG_VALUE: CLK_WaitClockReady:u32TimeOutCnt <- [DW_OP_constu 3, DW_OP_minus, DW_OP_stack_value] $r1
	@DEBUG_VALUE: CLK_WaitClockReady:u32ClkMask <- 8
	@DEBUG_VALUE: CLK_WaitClockReady:u32Ret <- 1
	@DEBUG_VALUE: CLK_SetSCLK:u32ClkSrc <- $r0
	@DEBUG_VALUE: CLK_WaitClockReady:u32TimeOutCnt <- [DW_OP_constu 3, DW_OP_minus, DW_OP_stack_value] $r1
	.loc	9 1594 18                       @ ../../../../Library/StdDriver/src/clk.c:1594:18
	ldr	r2, [r4]
.Ltmp622:
	@DEBUG_VALUE: CLK_WaitClockReady:u32TimeOutCnt <- [DW_OP_LLVM_arg 0, DW_OP_consts 2, DW_OP_consts 18446744073709551615, DW_OP_LLVM_arg 0, DW_OP_consts 2, DW_OP_div, DW_OP_mul, DW_OP_plus, DW_OP_minus, DW_OP_consts 4, DW_OP_div, DW_OP_consts 18446744073709551612, DW_OP_mul, DW_OP_consts 18446744073709551612, DW_OP_LLVM_arg 0, DW_OP_consts 2, DW_OP_div, DW_OP_plus, DW_OP_plus, DW_OP_stack_value] undef
	.loc	9 1594 5                        @ ../../../../Library/StdDriver/src/clk.c:1594:5
	lsls	r2, r2, #28
	bmi	.LBB20_9
.Ltmp623:
@ %bb.8:                                @   in Loop: Header=BB20_1 Depth=1
	@DEBUG_VALUE: CLK_WaitClockReady:u32ClkMask <- 8
	@DEBUG_VALUE: CLK_WaitClockReady:u32Ret <- 1
	@DEBUG_VALUE: CLK_SetSCLK:u32ClkSrc <- $r0
	adds	r2, r1, #2
	add.w	r1, r1, #4
	bne	.LBB20_1
.Ltmp624:
.LBB20_9:
	@DEBUG_VALUE: CLK_SetSCLK:u32ClkSrc <- $r0
	.loc	9 468 26 is_stmt 1              @ ../../../../Library/StdDriver/src/clk.c:468:26
	ldr.w	r1, [r4, #1020]
	movw	r5, #8212
	movt	r5, #16384
	@DEBUG_VALUE: CLK_WaitClockReady:u32Ret <- undef
	.loc	9 468 34 is_stmt 0              @ ../../../../Library/StdDriver/src/clk.c:468:34
	bic	r1, r1, #7
	.loc	9 468 18                        @ ../../../../Library/StdDriver/src/clk.c:468:18
	str.w	r1, [r4, #1020]
	.loc	9 471 24 is_stmt 1              @ ../../../../Library/StdDriver/src/clk.c:471:24
	ldr	r1, [r5, #-4]
	.loc	9 471 30 is_stmt 0              @ ../../../../Library/StdDriver/src/clk.c:471:30
	bic	r1, r1, #1
	.loc	9 471 16                        @ ../../../../Library/StdDriver/src/clk.c:471:16
	str	r1, [r5, #-4]
	.loc	9 472 23 is_stmt 1              @ ../../../../Library/StdDriver/src/clk.c:472:23
	ldr	r1, [r7]
.Ltmp625:
	@DEBUG_VALUE: CLK_SetSCLK:u32TimeOutCount <- $r1
	.p2align	2
.LBB20_10:                              @ =>This Inner Loop Header: Depth=1
	@DEBUG_VALUE: CLK_SetSCLK:u32TimeOutCount <- $r1
	@DEBUG_VALUE: CLK_SetSCLK:u32ClkSrc <- $r0
	@DEBUG_VALUE: CLK_SetSCLK:u32TimeOutCount <- $r1
	.loc	9 474 17                        @ ../../../../Library/StdDriver/src/clk.c:474:17
	ldr	r2, [r5]
.Ltmp626:
	@DEBUG_VALUE: CLK_SetSCLK:u32TimeOutCount <- [DW_OP_constu 1, DW_OP_minus, DW_OP_stack_value] $r1
	.loc	9 474 5 is_stmt 0               @ ../../../../Library/StdDriver/src/clk.c:474:5
	cmp.w	r2, #-1
	bgt	.LBB20_18
.Ltmp627:
@ %bb.11:                               @   in Loop: Header=BB20_10 Depth=1
	@DEBUG_VALUE: CLK_SetSCLK:u32TimeOutCount <- [DW_OP_constu 1, DW_OP_minus, DW_OP_stack_value] $r1
	@DEBUG_VALUE: CLK_SetSCLK:u32ClkSrc <- $r0
	cbz	r1, .LBB20_18
.Ltmp628:
@ %bb.12:                               @   in Loop: Header=BB20_10 Depth=1
	@DEBUG_VALUE: CLK_SetSCLK:u32TimeOutCount <- [DW_OP_constu 1, DW_OP_minus, DW_OP_stack_value] $r1
	@DEBUG_VALUE: CLK_SetSCLK:u32ClkSrc <- $r0
	@DEBUG_VALUE: CLK_SetSCLK:u32TimeOutCount <- [DW_OP_constu 1, DW_OP_minus, DW_OP_stack_value] $r1
	.loc	9 474 17                        @ ../../../../Library/StdDriver/src/clk.c:474:17
	ldr	r2, [r5]
.Ltmp629:
	@DEBUG_VALUE: CLK_SetSCLK:u32TimeOutCount <- [DW_OP_constu 2, DW_OP_minus, DW_OP_stack_value] $r1
	.loc	9 474 5                         @ ../../../../Library/StdDriver/src/clk.c:474:5
	cmp.w	r2, #-1
	bgt	.LBB20_18
.Ltmp630:
@ %bb.13:                               @   in Loop: Header=BB20_10 Depth=1
	@DEBUG_VALUE: CLK_SetSCLK:u32TimeOutCount <- [DW_OP_constu 2, DW_OP_minus, DW_OP_stack_value] $r1
	@DEBUG_VALUE: CLK_SetSCLK:u32ClkSrc <- $r0
	cmp	r1, #1
	beq	.LBB20_18
.Ltmp631:
@ %bb.14:                               @   in Loop: Header=BB20_10 Depth=1
	@DEBUG_VALUE: CLK_SetSCLK:u32TimeOutCount <- [DW_OP_constu 2, DW_OP_minus, DW_OP_stack_value] $r1
	@DEBUG_VALUE: CLK_SetSCLK:u32ClkSrc <- $r0
	@DEBUG_VALUE: CLK_SetSCLK:u32TimeOutCount <- [DW_OP_constu 2, DW_OP_minus, DW_OP_stack_value] $r1
	.loc	9 474 17                        @ ../../../../Library/StdDriver/src/clk.c:474:17
	ldr	r2, [r5]
.Ltmp632:
	@DEBUG_VALUE: CLK_SetSCLK:u32TimeOutCount <- [DW_OP_constu 3, DW_OP_minus, DW_OP_stack_value] $r1
	.loc	9 474 5                         @ ../../../../Library/StdDriver/src/clk.c:474:5
	cmp.w	r2, #-1
	bgt	.LBB20_18
.Ltmp633:
@ %bb.15:                               @   in Loop: Header=BB20_10 Depth=1
	@DEBUG_VALUE: CLK_SetSCLK:u32TimeOutCount <- [DW_OP_constu 3, DW_OP_minus, DW_OP_stack_value] $r1
	@DEBUG_VALUE: CLK_SetSCLK:u32ClkSrc <- $r0
	cmp	r1, #2
	beq	.LBB20_18
.Ltmp634:
@ %bb.16:                               @   in Loop: Header=BB20_10 Depth=1
	@DEBUG_VALUE: CLK_SetSCLK:u32TimeOutCount <- [DW_OP_constu 3, DW_OP_minus, DW_OP_stack_value] $r1
	@DEBUG_VALUE: CLK_SetSCLK:u32ClkSrc <- $r0
	@DEBUG_VALUE: CLK_SetSCLK:u32TimeOutCount <- [DW_OP_constu 3, DW_OP_minus, DW_OP_stack_value] $r1
	.loc	9 474 17                        @ ../../../../Library/StdDriver/src/clk.c:474:17
	ldr	r2, [r5]
.Ltmp635:
	@DEBUG_VALUE: CLK_SetSCLK:u32TimeOutCount <- undef
	.loc	9 474 5                         @ ../../../../Library/StdDriver/src/clk.c:474:5
	cmp.w	r2, #-1
	bgt	.LBB20_18
.Ltmp636:
@ %bb.17:                               @   in Loop: Header=BB20_10 Depth=1
	@DEBUG_VALUE: CLK_SetSCLK:u32ClkSrc <- $r0
	cmp	r1, #3
	sub.w	r1, r1, #4
.Ltmp637:
	@DEBUG_VALUE: CLK_SetSCLK:u32TimeOutCount <- $r1
	bne	.LBB20_10
.Ltmp638:
.LBB20_18:
	@DEBUG_VALUE: CLK_SetSCLK:u32ClkSrc <- $r0
	.loc	9 0 5                           @ ../../../../Library/StdDriver/src/clk.c:0:5
	movw	r6, #16460
	movs	r2, #7
	movt	r6, #16388
	.loc	9 480 25 is_stmt 1              @ ../../../../Library/StdDriver/src/clk.c:480:25
	ldr	r1, [r6]
	.loc	9 480 59 is_stmt 0              @ ../../../../Library/StdDriver/src/clk.c:480:59
	bfi	r1, r2, #0, #4
	.loc	9 480 17                        @ ../../../../Library/StdDriver/src/clk.c:480:17
	str	r1, [r6]
	.loc	9 483 26 is_stmt 1              @ ../../../../Library/StdDriver/src/clk.c:483:26
	ldr.w	r1, [r4, #1020]
	.loc	9 483 34 is_stmt 0              @ ../../../../Library/StdDriver/src/clk.c:483:34
	bic	r1, r1, #7
	.loc	9 483 64                        @ ../../../../Library/StdDriver/src/clk.c:483:64
	orrs	r0, r1
.Ltmp639:
	@DEBUG_VALUE: CLK_SetSCLK:u32ClkSrc <- [DW_OP_LLVM_entry_value 1] $r0
	.loc	9 483 18                        @ ../../../../Library/StdDriver/src/clk.c:483:18
	str.w	r0, [r4, #1020]
	.loc	9 486 5 is_stmt 1               @ ../../../../Library/StdDriver/src/clk.c:486:5
	bl	SystemCoreClockUpdate
.Ltmp640:
	.loc	9 489 9                         @ ../../../../Library/StdDriver/src/clk.c:489:9
	ldr	r0, [r7]
	movw	r1, #38144
	movt	r1, #2746
.Ltmp641:
	.loc	9 489 9 is_stmt 0               @ ../../../../Library/StdDriver/src/clk.c:489:9
	cmp	r0, r1
	bhi	.LBB20_20
.Ltmp642:
@ %bb.19:
	@DEBUG_VALUE: CLK_SetSCLK:u32ClkSrc <- [DW_OP_LLVM_entry_value 1] $r0
	.loc	9 491 28 is_stmt 1              @ ../../../../Library/StdDriver/src/clk.c:491:28
	ldr	r0, [r5, #-4]
	.loc	9 491 60 is_stmt 0              @ ../../../../Library/StdDriver/src/clk.c:491:60
	orr	r0, r0, #1
	.loc	9 491 20                        @ ../../../../Library/StdDriver/src/clk.c:491:20
	str	r0, [r5, #-4]
.Ltmp643:
	.loc	9 494 23 is_stmt 1              @ ../../../../Library/StdDriver/src/clk.c:494:23
	ldr	r0, [r7]
.Ltmp644:
.LBB20_20:
	@DEBUG_VALUE: CLK_SetSCLK:u32ClkSrc <- [DW_OP_LLVM_entry_value 1] $r0
	@DEBUG_VALUE: CLK_SetSCLK:u32TimeOutCount <- $r0
	.loc	9 0 23 is_stmt 0                @ ../../../../Library/StdDriver/src/clk.c:0:23
	mov	r1, r0
.Ltmp645:
	.p2align	2
.LBB20_21:                              @ =>This Inner Loop Header: Depth=1
	@DEBUG_VALUE: CLK_SetSCLK:u32ClkSrc <- [DW_OP_LLVM_entry_value 1] $r0
	@DEBUG_VALUE: CLK_SetSCLK:u32TimeOutCount <- $r1
	.loc	9 496 17 is_stmt 1              @ ../../../../Library/StdDriver/src/clk.c:496:17
	ldr	r2, [r5]
.Ltmp646:
	@DEBUG_VALUE: CLK_SetSCLK:u32TimeOutCount <- [DW_OP_constu 1, DW_OP_minus, DW_OP_stack_value] $r1
	.loc	9 496 5 is_stmt 0               @ ../../../../Library/StdDriver/src/clk.c:496:5
	cmp.w	r2, #-1
	bgt	.LBB20_29
.Ltmp647:
@ %bb.22:                               @   in Loop: Header=BB20_21 Depth=1
	@DEBUG_VALUE: CLK_SetSCLK:u32ClkSrc <- [DW_OP_LLVM_entry_value 1] $r0
	@DEBUG_VALUE: CLK_SetSCLK:u32TimeOutCount <- [DW_OP_constu 1, DW_OP_minus, DW_OP_stack_value] $r1
	cbz	r1, .LBB20_29
.Ltmp648:
@ %bb.23:                               @   in Loop: Header=BB20_21 Depth=1
	@DEBUG_VALUE: CLK_SetSCLK:u32ClkSrc <- [DW_OP_LLVM_entry_value 1] $r0
	@DEBUG_VALUE: CLK_SetSCLK:u32TimeOutCount <- [DW_OP_constu 1, DW_OP_minus, DW_OP_stack_value] $r1
	@DEBUG_VALUE: CLK_SetSCLK:u32TimeOutCount <- [DW_OP_constu 1, DW_OP_minus, DW_OP_stack_value] $r1
	.loc	9 496 17                        @ ../../../../Library/StdDriver/src/clk.c:496:17
	ldr	r2, [r5]
.Ltmp649:
	@DEBUG_VALUE: CLK_SetSCLK:u32TimeOutCount <- [DW_OP_constu 2, DW_OP_minus, DW_OP_stack_value] $r1
	.loc	9 496 5                         @ ../../../../Library/StdDriver/src/clk.c:496:5
	cmp.w	r2, #-1
	bgt	.LBB20_29
.Ltmp650:
@ %bb.24:                               @   in Loop: Header=BB20_21 Depth=1
	@DEBUG_VALUE: CLK_SetSCLK:u32ClkSrc <- [DW_OP_LLVM_entry_value 1] $r0
	@DEBUG_VALUE: CLK_SetSCLK:u32TimeOutCount <- [DW_OP_constu 2, DW_OP_minus, DW_OP_stack_value] $r1
	cmp	r1, #1
	beq	.LBB20_29
.Ltmp651:
@ %bb.25:                               @   in Loop: Header=BB20_21 Depth=1
	@DEBUG_VALUE: CLK_SetSCLK:u32ClkSrc <- [DW_OP_LLVM_entry_value 1] $r0
	@DEBUG_VALUE: CLK_SetSCLK:u32TimeOutCount <- [DW_OP_constu 2, DW_OP_minus, DW_OP_stack_value] $r1
	@DEBUG_VALUE: CLK_SetSCLK:u32TimeOutCount <- [DW_OP_constu 2, DW_OP_minus, DW_OP_stack_value] $r1
	.loc	9 496 17                        @ ../../../../Library/StdDriver/src/clk.c:496:17
	ldr	r2, [r5]
.Ltmp652:
	@DEBUG_VALUE: CLK_SetSCLK:u32TimeOutCount <- [DW_OP_constu 3, DW_OP_minus, DW_OP_stack_value] $r1
	.loc	9 496 5                         @ ../../../../Library/StdDriver/src/clk.c:496:5
	cmp.w	r2, #-1
	bgt	.LBB20_29
.Ltmp653:
@ %bb.26:                               @   in Loop: Header=BB20_21 Depth=1
	@DEBUG_VALUE: CLK_SetSCLK:u32ClkSrc <- [DW_OP_LLVM_entry_value 1] $r0
	@DEBUG_VALUE: CLK_SetSCLK:u32TimeOutCount <- [DW_OP_constu 3, DW_OP_minus, DW_OP_stack_value] $r1
	cmp	r1, #2
	beq	.LBB20_29
.Ltmp654:
@ %bb.27:                               @   in Loop: Header=BB20_21 Depth=1
	@DEBUG_VALUE: CLK_SetSCLK:u32ClkSrc <- [DW_OP_LLVM_entry_value 1] $r0
	@DEBUG_VALUE: CLK_SetSCLK:u32TimeOutCount <- [DW_OP_constu 3, DW_OP_minus, DW_OP_stack_value] $r1
	@DEBUG_VALUE: CLK_SetSCLK:u32TimeOutCount <- [DW_OP_constu 3, DW_OP_minus, DW_OP_stack_value] $r1
	.loc	9 496 17                        @ ../../../../Library/StdDriver/src/clk.c:496:17
	ldr	r2, [r5]
.Ltmp655:
	@DEBUG_VALUE: CLK_SetSCLK:u32TimeOutCount <- undef
	.loc	9 496 5                         @ ../../../../Library/StdDriver/src/clk.c:496:5
	cmp.w	r2, #-1
	bgt	.LBB20_29
.Ltmp656:
@ %bb.28:                               @   in Loop: Header=BB20_21 Depth=1
	@DEBUG_VALUE: CLK_SetSCLK:u32ClkSrc <- [DW_OP_LLVM_entry_value 1] $r0
	cmp	r1, #3
	sub.w	r1, r1, #4
.Ltmp657:
	@DEBUG_VALUE: CLK_SetSCLK:u32TimeOutCount <- $r1
	bne	.LBB20_21
.Ltmp658:
.LBB20_29:
	@DEBUG_VALUE: CLK_SetSCLK:u32ClkSrc <- [DW_OP_LLVM_entry_value 1] $r0
	.loc	9 0 5                           @ ../../../../Library/StdDriver/src/clk.c:0:5
	movw	r1, #41281
	movt	r1, #2395
	.loc	9 502 9 is_stmt 1               @ ../../../../Library/StdDriver/src/clk.c:502:9
	cmp	r0, r1
	blo	.LBB20_31
.Ltmp659:
@ %bb.30:
	@DEBUG_VALUE: CLK_SetSCLK:u32ClkSrc <- [DW_OP_LLVM_entry_value 1] $r0
	.loc	9 504 29                        @ ../../../../Library/StdDriver/src/clk.c:504:29
	ldr	r0, [r6]
	movs	r1, #7
	.loc	9 504 63 is_stmt 0              @ ../../../../Library/StdDriver/src/clk.c:504:63
	bfi	r0, r1, #0, #4
	b	.LBB20_40
.Ltmp660:
.LBB20_31:
	@DEBUG_VALUE: CLK_SetSCLK:u32ClkSrc <- [DW_OP_LLVM_entry_value 1] $r0
	.loc	9 0 63                          @ ../../../../Library/StdDriver/src/clk.c:0:63
	movw	r1, #27456
	movt	r1, #2029
	.loc	9 506 14 is_stmt 1              @ ../../../../Library/StdDriver/src/clk.c:506:14
	cmp	r0, r1
	blo	.LBB20_33
.Ltmp661:
@ %bb.32:
	@DEBUG_VALUE: CLK_SetSCLK:u32ClkSrc <- [DW_OP_LLVM_entry_value 1] $r0
	.loc	9 508 29                        @ ../../../../Library/StdDriver/src/clk.c:508:29
	ldr	r0, [r6]
	movs	r1, #6
	.loc	9 508 63 is_stmt 0              @ ../../../../Library/StdDriver/src/clk.c:508:63
	bfi	r0, r1, #0, #4
	b	.LBB20_40
.Ltmp662:
.LBB20_33:
	@DEBUG_VALUE: CLK_SetSCLK:u32ClkSrc <- [DW_OP_LLVM_entry_value 1] $r0
	.loc	9 0 63                          @ ../../../../Library/StdDriver/src/clk.c:0:63
	movw	r1, #42944
	movt	r1, #1571
	.loc	9 510 14 is_stmt 1              @ ../../../../Library/StdDriver/src/clk.c:510:14
	cmp	r0, r1
	blo	.LBB20_35
.Ltmp663:
@ %bb.34:
	@DEBUG_VALUE: CLK_SetSCLK:u32ClkSrc <- [DW_OP_LLVM_entry_value 1] $r0
	.loc	9 512 29                        @ ../../../../Library/StdDriver/src/clk.c:512:29
	ldr	r0, [r6]
	movs	r1, #5
	.loc	9 512 63 is_stmt 0              @ ../../../../Library/StdDriver/src/clk.c:512:63
	bfi	r0, r1, #0, #4
	b	.LBB20_40
.Ltmp664:
.LBB20_35:
	@DEBUG_VALUE: CLK_SetSCLK:u32ClkSrc <- [DW_OP_LLVM_entry_value 1] $r0
	.loc	9 0 63                          @ ../../../../Library/StdDriver/src/clk.c:0:63
	movw	r1, #29121
	movt	r1, #1205
	.loc	9 514 14 is_stmt 1              @ ../../../../Library/StdDriver/src/clk.c:514:14
	cmp	r0, r1
	blo	.LBB20_37
.Ltmp665:
@ %bb.36:
	@DEBUG_VALUE: CLK_SetSCLK:u32ClkSrc <- [DW_OP_LLVM_entry_value 1] $r0
	.loc	9 516 29                        @ ../../../../Library/StdDriver/src/clk.c:516:29
	ldr	r0, [r6]
	movs	r1, #4
	.loc	9 516 63 is_stmt 0              @ ../../../../Library/StdDriver/src/clk.c:516:63
	bfi	r0, r1, #0, #4
	b	.LBB20_40
.Ltmp666:
.LBB20_37:
	@DEBUG_VALUE: CLK_SetSCLK:u32ClkSrc <- [DW_OP_LLVM_entry_value 1] $r0
	.loc	9 0 63                          @ ../../../../Library/StdDriver/src/clk.c:0:63
	movw	r1, #46913
	movt	r1, #808
	.loc	9 518 14 is_stmt 1              @ ../../../../Library/StdDriver/src/clk.c:518:14
	cmp	r0, r1
	blo	.LBB20_39
.Ltmp667:
@ %bb.38:
	@DEBUG_VALUE: CLK_SetSCLK:u32ClkSrc <- [DW_OP_LLVM_entry_value 1] $r0
	.loc	9 520 29                        @ ../../../../Library/StdDriver/src/clk.c:520:29
	ldr	r0, [r6]
	movs	r1, #3
	.loc	9 520 63 is_stmt 0              @ ../../../../Library/StdDriver/src/clk.c:520:63
	bfi	r0, r1, #0, #4
	b	.LBB20_40
.Ltmp668:
.LBB20_39:
	@DEBUG_VALUE: CLK_SetSCLK:u32ClkSrc <- [DW_OP_LLVM_entry_value 1] $r0
	.loc	9 0 0                           @ ../../../../Library/StdDriver/src/clk.c:0:0
	ldr	r1, [r6]
	movw	r2, #47745
	movt	r2, #396
.Ltmp669:
	.loc	9 522 14 is_stmt 1              @ ../../../../Library/StdDriver/src/clk.c:522:14
	cmp	r0, r2
.Ltmp670:
	.loc	9 0 0 is_stmt 0                 @ ../../../../Library/StdDriver/src/clk.c:0:0
	bic	r0, r1, #15
.Ltmp671:
	.loc	9 528 63 is_stmt 1              @ ../../../../Library/StdDriver/src/clk.c:528:63
	ite	lo
	orrlo	r0, r0, #1
.Ltmp672:
	.loc	9 524 63                        @ ../../../../Library/StdDriver/src/clk.c:524:63
	orrhs	r0, r0, #2
.Ltmp673:
.LBB20_40:
	@DEBUG_VALUE: CLK_SetSCLK:u32ClkSrc <- [DW_OP_LLVM_entry_value 1] $r0
	.loc	9 0 0 is_stmt 0                 @ ../../../../Library/StdDriver/src/clk.c:0:0
	str	r0, [r6]
.Ltmp674:
	.loc	9 532 9 is_stmt 1               @ ../../../../Library/StdDriver/src/clk.c:532:9
	lsls.w	r1, r8, #28
.Ltmp675:
	.loc	9 534 21                        @ ../../../../Library/StdDriver/src/clk.c:534:21
	ittt	pl
	ldrpl	r0, [r4, #-4]
	bicpl	r0, r0, #8
	strpl	r0, [r4, #-4]
.Ltmp676:
	.loc	9 536 1 epilogue_begin          @ ../../../../Library/StdDriver/src/clk.c:536:1
	pop.w	{r4, r5, r6, r7, r8, pc}
.Ltmp677:
.Lfunc_end20:
	.size	CLK_SetSCLK, .Lfunc_end20-CLK_SetSCLK
	.cfi_endproc
	.cantunwind
	.fnend
                                        @ -- End function
	.section	.text.CLK_SetModuleClock,"ax",%progbits
	.hidden	CLK_SetModuleClock              @ -- Begin function CLK_SetModuleClock
	.globl	CLK_SetModuleClock
	.p2align	2
	.type	CLK_SetModuleClock,%function
	.code	16                              @ @CLK_SetModuleClock
	.thumb_func
CLK_SetModuleClock:
.Lfunc_begin21:
	.loc	9 794 0                         @ ../../../../Library/StdDriver/src/clk.c:794:0
	.fnstart
	.cfi_startproc
@ %bb.0:
	@DEBUG_VALUE: CLK_SetModuleClock:u32ClkSrc <- $r2
	@DEBUG_VALUE: CLK_SetModuleClock:u32ClkDiv <- $r3
	@DEBUG_VALUE: CLK_SetModuleClock:u64ModuleIdx <- [DW_OP_LLVM_fragment 32 32] $r1
	@DEBUG_VALUE: CLK_SetModuleClock:u64ModuleIdx <- [DW_OP_LLVM_fragment 0 32] $r0
	.save	{r4, r5, r6, lr}
	push	{r4, r5, r6, lr}
	.cfi_def_cfa_offset 16
	.cfi_offset lr, -4
	.cfi_offset r6, -8
	.cfi_offset r5, -12
	.cfi_offset r4, -16
	movw	r12, #4776
.Ltmp678:
	.loc	9 798 22 prologue_end           @ ../../../../Library/StdDriver/src/clk.c:798:22
	eor	r4, r1, #1376256
	movt	r12, #16384
.Ltmp679:
	@DEBUG_VALUE: CLK_SetModuleClock:u32Div <- 0
	@DEBUG_VALUE: CLK_SetModuleClock:u32Sel <- 0
	.loc	9 796 32                        @ ../../../../Library/StdDriver/src/clk.c:796:32
	ldr.w	lr, [r12]
.Ltmp680:
	@DEBUG_VALUE: CLK_SetModuleClock:u32RTCCKEN <- [DW_OP_constu 1, DW_OP_and, DW_OP_stack_value] $lr
	.loc	9 798 22                        @ ../../../../Library/StdDriver/src/clk.c:798:22
	orrs	r4, r0
.Ltmp681:
	.loc	9 798 9 is_stmt 0               @ ../../../../Library/StdDriver/src/clk.c:798:9
	bne	.LBB21_3
.Ltmp682:
@ %bb.1:
	@DEBUG_VALUE: CLK_SetModuleClock:u32RTCCKEN <- [DW_OP_constu 1, DW_OP_and, DW_OP_stack_value] $lr
	@DEBUG_VALUE: CLK_SetModuleClock:u32Sel <- 0
	@DEBUG_VALUE: CLK_SetModuleClock:u32Div <- 0
	@DEBUG_VALUE: CLK_SetModuleClock:u64ModuleIdx <- [DW_OP_LLVM_fragment 0 32] $r0
	@DEBUG_VALUE: CLK_SetModuleClock:u64ModuleIdx <- [DW_OP_LLVM_fragment 32 32] $r1
	@DEBUG_VALUE: CLK_SetModuleClock:u32ClkDiv <- $r3
	@DEBUG_VALUE: CLK_SetModuleClock:u32ClkSrc <- $r2
	.loc	9 800 13 is_stmt 1              @ ../../../../Library/StdDriver/src/clk.c:800:13
	lsls.w	r0, lr, #31
.Ltmp683:
	@DEBUG_VALUE: CLK_SetModuleClock:u32RTCCKEN <- $r0
	.loc	9 0 13 is_stmt 0                @ ../../../../Library/StdDriver/src/clk.c:0:13
	movw	r0, #28928
.Ltmp684:
	movt	r0, #16425
	.loc	9 800 13                        @ ../../../../Library/StdDriver/src/clk.c:800:13
	bne	.LBB21_7
.Ltmp685:
@ %bb.2:
	@DEBUG_VALUE: CLK_SetModuleClock:u32Sel <- 0
	@DEBUG_VALUE: CLK_SetModuleClock:u32Div <- 0
	@DEBUG_VALUE: CLK_SetModuleClock:u64ModuleIdx <- [DW_OP_LLVM_fragment 32 32] $r1
	@DEBUG_VALUE: CLK_SetModuleClock:u32ClkDiv <- $r3
	@DEBUG_VALUE: CLK_SetModuleClock:u32ClkSrc <- $r2
	.loc	9 802 25 is_stmt 1              @ ../../../../Library/StdDriver/src/clk.c:802:25
	ldr.w	r1, [r12]
.Ltmp686:
	orr	r1, r1, #1
	str.w	r1, [r12]
.Ltmp687:
	.loc	9 806 29                        @ ../../../../Library/StdDriver/src/clk.c:806:29
	ldr	r1, [r0]
	.loc	9 806 36 is_stmt 0              @ ../../../../Library/StdDriver/src/clk.c:806:36
	bic	r1, r1, #128
	.loc	9 806 66                        @ ../../../../Library/StdDriver/src/clk.c:806:66
	orrs	r1, r2
	.loc	9 806 21                        @ ../../../../Library/StdDriver/src/clk.c:806:21
	str	r1, [r0]
.Ltmp688:
	.loc	9 810 25 is_stmt 1              @ ../../../../Library/StdDriver/src/clk.c:810:25
	ldr.w	r0, [r12]
	bic	r0, r0, #1
	str.w	r0, [r12]
.Ltmp689:
	.loc	9 833 1 epilogue_begin          @ ../../../../Library/StdDriver/src/clk.c:833:1
	pop	{r4, r5, r6, pc}
.Ltmp690:
.LBB21_3:
	@DEBUG_VALUE: CLK_SetModuleClock:u32RTCCKEN <- [DW_OP_constu 1, DW_OP_and, DW_OP_stack_value] $lr
	@DEBUG_VALUE: CLK_SetModuleClock:u32Sel <- 0
	@DEBUG_VALUE: CLK_SetModuleClock:u32Div <- 0
	@DEBUG_VALUE: CLK_SetModuleClock:u64ModuleIdx <- [DW_OP_LLVM_fragment 0 32] $r0
	@DEBUG_VALUE: CLK_SetModuleClock:u64ModuleIdx <- [DW_OP_LLVM_fragment 32 32] $r1
	@DEBUG_VALUE: CLK_SetModuleClock:u32ClkDiv <- $r3
	@DEBUG_VALUE: CLK_SetModuleClock:u32ClkSrc <- $r2
	.loc	9 816 13                        @ ../../../../Library/StdDriver/src/clk.c:816:13
	mov	r4, r0
	lsrl	r4, r5, #15
	uxtb.w	lr, r4
.Ltmp691:
	.loc	9 816 13 is_stmt 0              @ ../../../../Library/StdDriver/src/clk.c:816:13
	cmp.w	lr, #0
	beq	.LBB21_5
.Ltmp692:
@ %bb.4:
	@DEBUG_VALUE: CLK_SetModuleClock:u32Sel <- 0
	@DEBUG_VALUE: CLK_SetModuleClock:u32Div <- 0
	@DEBUG_VALUE: CLK_SetModuleClock:u64ModuleIdx <- [DW_OP_LLVM_fragment 0 32] $r0
	@DEBUG_VALUE: CLK_SetModuleClock:u64ModuleIdx <- [DW_OP_LLVM_fragment 32 32] $r1
	@DEBUG_VALUE: CLK_SetModuleClock:u32ClkDiv <- $r3
	@DEBUG_VALUE: CLK_SetModuleClock:u32ClkSrc <- $r2
	.loc	9 819 92 is_stmt 1              @ ../../../../Library/StdDriver/src/clk.c:819:92
	mov	r5, r1
	mov	r4, r0
	lsrl	r4, r5, #29
	.loc	9 821 90                        @ ../../../../Library/StdDriver/src/clk.c:821:90
	and	r6, r0, #31
	.loc	9 819 92                        @ ../../../../Library/StdDriver/src/clk.c:819:92
	and	r4, r4, #1020
	.loc	9 819 51 is_stmt 0              @ ../../../../Library/StdDriver/src/clk.c:819:51
	add	r4, r12
.Ltmp693:
	@DEBUG_VALUE: CLK_SetModuleClock:u32Div <- [DW_OP_plus_uconst 600, DW_OP_stack_value] $r4
	.loc	9 821 28 is_stmt 1              @ ../../../../Library/StdDriver/src/clk.c:821:28
	ldr.w	r5, [r4, #600]
	.loc	9 821 87 is_stmt 0              @ ../../../../Library/StdDriver/src/clk.c:821:87
	lsl.w	r6, lr, r6
	.loc	9 821 40                        @ ../../../../Library/StdDriver/src/clk.c:821:40
	bic.w	r6, r5, r6
	.loc	9 821 135                       @ ../../../../Library/StdDriver/src/clk.c:821:135
	orrs	r3, r6
.Ltmp694:
	@DEBUG_VALUE: CLK_SetModuleClock:u32ClkDiv <- [DW_OP_LLVM_entry_value 1] $r3
	.loc	9 821 25                        @ ../../../../Library/StdDriver/src/clk.c:821:25
	str.w	r3, [r4, #600]
.Ltmp695:
.LBB21_5:
	@DEBUG_VALUE: CLK_SetModuleClock:u32Sel <- 0
	@DEBUG_VALUE: CLK_SetModuleClock:u64ModuleIdx <- [DW_OP_LLVM_fragment 0 32] $r0
	@DEBUG_VALUE: CLK_SetModuleClock:u64ModuleIdx <- [DW_OP_LLVM_fragment 32 32] $r1
	@DEBUG_VALUE: CLK_SetModuleClock:u32ClkSrc <- $r2
	.loc	9 825 13 is_stmt 1              @ ../../../../Library/StdDriver/src/clk.c:825:13
	mov	r4, r0
	lsrl	r4, r3, #23
	uxtb	r3, r4
.Ltmp696:
	.loc	9 825 13 is_stmt 0              @ ../../../../Library/StdDriver/src/clk.c:825:13
	cmp	r3, #0
.Ltmp697:
	.loc	9 833 1 is_stmt 1               @ ../../../../Library/StdDriver/src/clk.c:833:1
	it	eq
	.loc	9 833 1 epilogue_begin is_stmt 0 @ ../../../../Library/StdDriver/src/clk.c:833:1
	popeq	{r4, r5, r6, pc}
.Ltmp698:
.LBB21_6:
	@DEBUG_VALUE: CLK_SetModuleClock:u32Sel <- 0
	@DEBUG_VALUE: CLK_SetModuleClock:u64ModuleIdx <- [DW_OP_LLVM_fragment 0 32] $r0
	@DEBUG_VALUE: CLK_SetModuleClock:u64ModuleIdx <- [DW_OP_LLVM_fragment 32 32] $r1
	@DEBUG_VALUE: CLK_SetModuleClock:u32ClkSrc <- $r2
	.loc	9 828 92 is_stmt 1              @ ../../../../Library/StdDriver/src/clk.c:828:92
	ubfx	r1, r1, #7, #8
.Ltmp699:
	.loc	9 830 90                        @ ../../../../Library/StdDriver/src/clk.c:830:90
	ubfx	r0, r0, #5, #5
.Ltmp700:
	.loc	9 828 51                        @ ../../../../Library/StdDriver/src/clk.c:828:51
	add.w	r1, r12, r1, lsl #2
.Ltmp701:
	@DEBUG_VALUE: CLK_SetModuleClock:u32Sel <- [DW_OP_plus_uconst 344, DW_OP_stack_value] $r1
	.loc	9 830 87                        @ ../../../../Library/StdDriver/src/clk.c:830:87
	lsl.w	r0, r3, r0
	.loc	9 830 28 is_stmt 0              @ ../../../../Library/StdDriver/src/clk.c:830:28
	ldr.w	r6, [r1, #344]
	.loc	9 830 40                        @ ../../../../Library/StdDriver/src/clk.c:830:40
	bic.w	r0, r6, r0
	.loc	9 830 135                       @ ../../../../Library/StdDriver/src/clk.c:830:135
	orrs	r0, r2
	.loc	9 830 25                        @ ../../../../Library/StdDriver/src/clk.c:830:25
	str.w	r0, [r1, #344]
.Ltmp702:
	.loc	9 833 1 epilogue_begin is_stmt 1 @ ../../../../Library/StdDriver/src/clk.c:833:1
	pop	{r4, r5, r6, pc}
.Ltmp703:
.LBB21_7:
	@DEBUG_VALUE: CLK_SetModuleClock:u32Sel <- 0
	@DEBUG_VALUE: CLK_SetModuleClock:u32Div <- 0
	@DEBUG_VALUE: CLK_SetModuleClock:u64ModuleIdx <- [DW_OP_LLVM_fragment 32 32] $r1
	@DEBUG_VALUE: CLK_SetModuleClock:u32ClkDiv <- $r3
	@DEBUG_VALUE: CLK_SetModuleClock:u32ClkSrc <- $r2
	.loc	9 806 29                        @ ../../../../Library/StdDriver/src/clk.c:806:29
	ldr	r1, [r0]
.Ltmp704:
	.loc	9 806 36 is_stmt 0              @ ../../../../Library/StdDriver/src/clk.c:806:36
	bic	r1, r1, #128
	.loc	9 806 66                        @ ../../../../Library/StdDriver/src/clk.c:806:66
	orrs	r1, r2
	.loc	9 806 21                        @ ../../../../Library/StdDriver/src/clk.c:806:21
	str	r1, [r0]
.Ltmp705:
	.loc	9 833 1 epilogue_begin is_stmt 1 @ ../../../../Library/StdDriver/src/clk.c:833:1
	pop	{r4, r5, r6, pc}
.Ltmp706:
.Lfunc_end21:
	.size	CLK_SetModuleClock, .Lfunc_end21-CLK_SetModuleClock
	.cfi_endproc
	.cantunwind
	.fnend
                                        @ -- End function
	.section	.text.CLK_SetSysTickClockSrc,"ax",%progbits
	.hidden	CLK_SetSysTickClockSrc          @ -- Begin function CLK_SetSysTickClockSrc
	.globl	CLK_SetSysTickClockSrc
	.p2align	2
	.type	CLK_SetSysTickClockSrc,%function
	.code	16                              @ @CLK_SetSysTickClockSrc
	.thumb_func
CLK_SetSysTickClockSrc:
.Lfunc_begin22:
	.loc	9 848 0                         @ ../../../../Library/StdDriver/src/clk.c:848:0
	.fnstart
	.cfi_startproc
@ %bb.0:
	@DEBUG_VALUE: CLK_SetSysTickClockSrc:u32ClkSrc <- $r0
	movw	r1, #5204
	movt	r1, #16384
.Ltmp707:
	.loc	9 849 24 prologue_end           @ ../../../../Library/StdDriver/src/clk.c:849:24
	ldr	r2, [r1]
	.loc	9 849 30 is_stmt 0              @ ../../../../Library/StdDriver/src/clk.c:849:30
	bic	r2, r2, #7
	.loc	9 849 55                        @ ../../../../Library/StdDriver/src/clk.c:849:55
	orrs	r0, r2
.Ltmp708:
	@DEBUG_VALUE: CLK_SetSysTickClockSrc:u32ClkSrc <- [DW_OP_LLVM_entry_value 1] $r0
	.loc	9 849 16                        @ ../../../../Library/StdDriver/src/clk.c:849:16
	str	r0, [r1]
	.loc	9 850 1 is_stmt 1               @ ../../../../Library/StdDriver/src/clk.c:850:1
	bx	lr
.Ltmp709:
.Lfunc_end22:
	.size	CLK_SetSysTickClockSrc, .Lfunc_end22-CLK_SetSysTickClockSrc
	.cfi_endproc
	.cantunwind
	.fnend
                                        @ -- End function
	.section	.text.CLK_EnableXtalRC,"ax",%progbits
	.hidden	CLK_EnableXtalRC                @ -- Begin function CLK_EnableXtalRC
	.globl	CLK_EnableXtalRC
	.p2align	2
	.type	CLK_EnableXtalRC,%function
	.code	16                              @ @CLK_EnableXtalRC
	.thumb_func
CLK_EnableXtalRC:
.Lfunc_begin23:
	.loc	9 866 0                         @ ../../../../Library/StdDriver/src/clk.c:866:0
	.fnstart
	.cfi_startproc
@ %bb.0:
	@DEBUG_VALUE: CLK_EnableXtalRC:u32ClkMask <- $r0
	movw	r1, #4776
.Ltmp710:
	.loc	9 868 9 prologue_end            @ ../../../../Library/StdDriver/src/clk.c:868:9
	cmp	r0, #2
	movt	r1, #16384
	bne	.LBB23_11
.Ltmp711:
@ %bb.1:
	@DEBUG_VALUE: CLK_EnableXtalRC:u32ClkMask <- $r0
	@DEBUG_VALUE: CLK_EnableModuleClock:u64ModuleIdx <- 5910974510923776
	@DEBUG_VALUE: CLK_EnableModuleClock:u32Ret <- 1
	@DEBUG_VALUE: CLK_EnableModuleClock:u32TmpVal <- 1
	@DEBUG_VALUE: CLK_EnableModuleClock:u32TmpAddr <- 1073746600
	.loc	9 1034 38                       @ ../../../../Library/StdDriver/src/clk.c:1034:38
	ldr	r2, [r1]
	movs	r3, #2
.Ltmp712:
	@DEBUG_VALUE: CLK_WaitModuleClockReady:u32TimeOutCnt <- undef
	@DEBUG_VALUE: CLK_WaitModuleClockReady:u32TmpAddr <- 1073746600
	orr	r2, r2, #1
	str	r2, [r1]
.Ltmp713:
	@DEBUG_VALUE: CLK_WaitModuleClockReady:u32Ret <- 1
	@DEBUG_VALUE: CLK_WaitModuleClockReady:u32TmpAddr <- 0
	@DEBUG_VALUE: CLK_WaitModuleClockReady:u64ModuleIdx <- 5910974510923776
	.loc	9 1304 30                       @ ../../../../Library/StdDriver/src/clk.c:1304:30
	movw	r2, :lower16:SystemCoreClock
	movt	r2, :upper16:SystemCoreClock
	ldr	r2, [r2]
	.loc	9 1310 5                        @ ../../../../Library/StdDriver/src/clk.c:1310:5
	sub.w	r2, r3, r2, lsr #1
.Ltmp714:
	.p2align	2
.LBB23_2:                               @ =>This Inner Loop Header: Depth=1
	@DEBUG_VALUE: CLK_WaitModuleClockReady:u64ModuleIdx <- 5910974510923776
	@DEBUG_VALUE: CLK_WaitModuleClockReady:u32TmpAddr <- 0
	@DEBUG_VALUE: CLK_WaitModuleClockReady:u32Ret <- 1
	@DEBUG_VALUE: CLK_EnableModuleClock:u32TmpAddr <- 1073746600
	@DEBUG_VALUE: CLK_EnableModuleClock:u32TmpVal <- 1
	@DEBUG_VALUE: CLK_EnableModuleClock:u32Ret <- 1
	@DEBUG_VALUE: CLK_EnableModuleClock:u64ModuleIdx <- 5910974510923776
	@DEBUG_VALUE: CLK_EnableXtalRC:u32ClkMask <- $r0
	@DEBUG_VALUE: CLK_WaitModuleClockReady:u32TimeOutCnt <- [DW_OP_LLVM_arg 0, DW_OP_consts 2, DW_OP_consts 18446744073709551615, DW_OP_LLVM_arg 0, DW_OP_consts 2, DW_OP_div, DW_OP_mul, DW_OP_plus, DW_OP_minus, DW_OP_consts 4, DW_OP_div, DW_OP_consts 18446744073709551612, DW_OP_mul, DW_OP_LLVM_arg 0, DW_OP_consts 2, DW_OP_div, DW_OP_plus, DW_OP_stack_value] undef
	.loc	9 1310 13 is_stmt 0             @ ../../../../Library/StdDriver/src/clk.c:1310:13
	ldr	r3, [r1]
.Ltmp715:
	@DEBUG_VALUE: CLK_WaitModuleClockReady:u32TimeOutCnt <- [DW_OP_constu 1, DW_OP_minus, DW_OP_stack_value] $r2
	.loc	9 1310 5                        @ ../../../../Library/StdDriver/src/clk.c:1310:5
	cmp	r3, #0
	bmi	.LBB23_10
.Ltmp716:
@ %bb.3:                                @   in Loop: Header=BB23_2 Depth=1
	@DEBUG_VALUE: CLK_WaitModuleClockReady:u32TimeOutCnt <- [DW_OP_constu 1, DW_OP_minus, DW_OP_stack_value] $r2
	@DEBUG_VALUE: CLK_WaitModuleClockReady:u64ModuleIdx <- 5910974510923776
	@DEBUG_VALUE: CLK_WaitModuleClockReady:u32TmpAddr <- 0
	@DEBUG_VALUE: CLK_WaitModuleClockReady:u32Ret <- 1
	@DEBUG_VALUE: CLK_EnableModuleClock:u32TmpAddr <- 1073746600
	@DEBUG_VALUE: CLK_EnableModuleClock:u32TmpVal <- 1
	@DEBUG_VALUE: CLK_EnableModuleClock:u32Ret <- 1
	@DEBUG_VALUE: CLK_EnableModuleClock:u64ModuleIdx <- 5910974510923776
	@DEBUG_VALUE: CLK_EnableXtalRC:u32ClkMask <- $r0
	cmp	r2, #1
	beq	.LBB23_10
.Ltmp717:
@ %bb.4:                                @   in Loop: Header=BB23_2 Depth=1
	@DEBUG_VALUE: CLK_WaitModuleClockReady:u32TimeOutCnt <- [DW_OP_constu 1, DW_OP_minus, DW_OP_stack_value] $r2
	@DEBUG_VALUE: CLK_WaitModuleClockReady:u64ModuleIdx <- 5910974510923776
	@DEBUG_VALUE: CLK_WaitModuleClockReady:u32TmpAddr <- 0
	@DEBUG_VALUE: CLK_WaitModuleClockReady:u32Ret <- 1
	@DEBUG_VALUE: CLK_EnableModuleClock:u32TmpAddr <- 1073746600
	@DEBUG_VALUE: CLK_EnableModuleClock:u32TmpVal <- 1
	@DEBUG_VALUE: CLK_EnableModuleClock:u32Ret <- 1
	@DEBUG_VALUE: CLK_EnableModuleClock:u64ModuleIdx <- 5910974510923776
	@DEBUG_VALUE: CLK_EnableXtalRC:u32ClkMask <- $r0
	@DEBUG_VALUE: CLK_WaitModuleClockReady:u32TimeOutCnt <- [DW_OP_constu 1, DW_OP_minus, DW_OP_stack_value] $r2
	.loc	9 1310 13                       @ ../../../../Library/StdDriver/src/clk.c:1310:13
	ldr	r3, [r1]
.Ltmp718:
	@DEBUG_VALUE: CLK_WaitModuleClockReady:u32TimeOutCnt <- [DW_OP_constu 2, DW_OP_minus, DW_OP_stack_value] $r2
	.loc	9 1310 5                        @ ../../../../Library/StdDriver/src/clk.c:1310:5
	cmp	r3, #0
	bmi	.LBB23_10
.Ltmp719:
@ %bb.5:                                @   in Loop: Header=BB23_2 Depth=1
	@DEBUG_VALUE: CLK_WaitModuleClockReady:u32TimeOutCnt <- [DW_OP_constu 2, DW_OP_minus, DW_OP_stack_value] $r2
	@DEBUG_VALUE: CLK_WaitModuleClockReady:u64ModuleIdx <- 5910974510923776
	@DEBUG_VALUE: CLK_WaitModuleClockReady:u32TmpAddr <- 0
	@DEBUG_VALUE: CLK_WaitModuleClockReady:u32Ret <- 1
	@DEBUG_VALUE: CLK_EnableModuleClock:u32TmpAddr <- 1073746600
	@DEBUG_VALUE: CLK_EnableModuleClock:u32TmpVal <- 1
	@DEBUG_VALUE: CLK_EnableModuleClock:u32Ret <- 1
	@DEBUG_VALUE: CLK_EnableModuleClock:u64ModuleIdx <- 5910974510923776
	@DEBUG_VALUE: CLK_EnableXtalRC:u32ClkMask <- $r0
	cbz	r2, .LBB23_10
.Ltmp720:
@ %bb.6:                                @   in Loop: Header=BB23_2 Depth=1
	@DEBUG_VALUE: CLK_WaitModuleClockReady:u32TimeOutCnt <- [DW_OP_constu 2, DW_OP_minus, DW_OP_stack_value] $r2
	@DEBUG_VALUE: CLK_WaitModuleClockReady:u64ModuleIdx <- 5910974510923776
	@DEBUG_VALUE: CLK_WaitModuleClockReady:u32TmpAddr <- 0
	@DEBUG_VALUE: CLK_WaitModuleClockReady:u32Ret <- 1
	@DEBUG_VALUE: CLK_EnableModuleClock:u32TmpAddr <- 1073746600
	@DEBUG_VALUE: CLK_EnableModuleClock:u32TmpVal <- 1
	@DEBUG_VALUE: CLK_EnableModuleClock:u32Ret <- 1
	@DEBUG_VALUE: CLK_EnableModuleClock:u64ModuleIdx <- 5910974510923776
	@DEBUG_VALUE: CLK_EnableXtalRC:u32ClkMask <- $r0
	@DEBUG_VALUE: CLK_WaitModuleClockReady:u32TimeOutCnt <- [DW_OP_constu 2, DW_OP_minus, DW_OP_stack_value] $r2
	.loc	9 1310 13                       @ ../../../../Library/StdDriver/src/clk.c:1310:13
	ldr	r3, [r1]
.Ltmp721:
	@DEBUG_VALUE: CLK_WaitModuleClockReady:u32TimeOutCnt <- [DW_OP_constu 3, DW_OP_minus, DW_OP_stack_value] $r2
	.loc	9 1310 5                        @ ../../../../Library/StdDriver/src/clk.c:1310:5
	cmp	r3, #0
	bmi	.LBB23_10
.Ltmp722:
@ %bb.7:                                @   in Loop: Header=BB23_2 Depth=1
	@DEBUG_VALUE: CLK_WaitModuleClockReady:u32TimeOutCnt <- [DW_OP_constu 3, DW_OP_minus, DW_OP_stack_value] $r2
	@DEBUG_VALUE: CLK_WaitModuleClockReady:u64ModuleIdx <- 5910974510923776
	@DEBUG_VALUE: CLK_WaitModuleClockReady:u32TmpAddr <- 0
	@DEBUG_VALUE: CLK_WaitModuleClockReady:u32Ret <- 1
	@DEBUG_VALUE: CLK_EnableModuleClock:u32TmpAddr <- 1073746600
	@DEBUG_VALUE: CLK_EnableModuleClock:u32TmpVal <- 1
	@DEBUG_VALUE: CLK_EnableModuleClock:u32Ret <- 1
	@DEBUG_VALUE: CLK_EnableModuleClock:u64ModuleIdx <- 5910974510923776
	@DEBUG_VALUE: CLK_EnableXtalRC:u32ClkMask <- $r0
	adds	r3, r2, #1
	beq	.LBB23_10
.Ltmp723:
@ %bb.8:                                @   in Loop: Header=BB23_2 Depth=1
	@DEBUG_VALUE: CLK_WaitModuleClockReady:u32TimeOutCnt <- [DW_OP_constu 3, DW_OP_minus, DW_OP_stack_value] $r2
	@DEBUG_VALUE: CLK_WaitModuleClockReady:u64ModuleIdx <- 5910974510923776
	@DEBUG_VALUE: CLK_WaitModuleClockReady:u32TmpAddr <- 0
	@DEBUG_VALUE: CLK_WaitModuleClockReady:u32Ret <- 1
	@DEBUG_VALUE: CLK_EnableModuleClock:u32TmpAddr <- 1073746600
	@DEBUG_VALUE: CLK_EnableModuleClock:u32TmpVal <- 1
	@DEBUG_VALUE: CLK_EnableModuleClock:u32Ret <- 1
	@DEBUG_VALUE: CLK_EnableModuleClock:u64ModuleIdx <- 5910974510923776
	@DEBUG_VALUE: CLK_EnableXtalRC:u32ClkMask <- $r0
	@DEBUG_VALUE: CLK_WaitModuleClockReady:u32TimeOutCnt <- [DW_OP_constu 3, DW_OP_minus, DW_OP_stack_value] $r2
	.loc	9 1310 13                       @ ../../../../Library/StdDriver/src/clk.c:1310:13
	ldr	r3, [r1]
.Ltmp724:
	@DEBUG_VALUE: CLK_WaitModuleClockReady:u32TimeOutCnt <- [DW_OP_LLVM_arg 0, DW_OP_consts 2, DW_OP_consts 18446744073709551615, DW_OP_LLVM_arg 0, DW_OP_consts 2, DW_OP_div, DW_OP_mul, DW_OP_plus, DW_OP_minus, DW_OP_consts 4, DW_OP_div, DW_OP_consts 18446744073709551612, DW_OP_mul, DW_OP_consts 18446744073709551612, DW_OP_LLVM_arg 0, DW_OP_consts 2, DW_OP_div, DW_OP_plus, DW_OP_plus, DW_OP_stack_value] undef
	.loc	9 1310 5                        @ ../../../../Library/StdDriver/src/clk.c:1310:5
	cmp	r3, #0
	bmi	.LBB23_10
.Ltmp725:
@ %bb.9:                                @   in Loop: Header=BB23_2 Depth=1
	@DEBUG_VALUE: CLK_WaitModuleClockReady:u64ModuleIdx <- 5910974510923776
	@DEBUG_VALUE: CLK_WaitModuleClockReady:u32TmpAddr <- 0
	@DEBUG_VALUE: CLK_WaitModuleClockReady:u32Ret <- 1
	@DEBUG_VALUE: CLK_EnableModuleClock:u32TmpAddr <- 1073746600
	@DEBUG_VALUE: CLK_EnableModuleClock:u32TmpVal <- 1
	@DEBUG_VALUE: CLK_EnableModuleClock:u32Ret <- 1
	@DEBUG_VALUE: CLK_EnableModuleClock:u64ModuleIdx <- 5910974510923776
	@DEBUG_VALUE: CLK_EnableXtalRC:u32ClkMask <- $r0
	adds	r3, r2, #2
	add.w	r2, r2, #4
	bne	.LBB23_2
.Ltmp726:
.LBB23_10:
	@DEBUG_VALUE: CLK_EnableXtalRC:u32ClkMask <- $r0
	@DEBUG_VALUE: CLK_EnableModuleClock:u32Ret <- undef
	.loc	9 0 5                           @ ../../../../Library/StdDriver/src/clk.c:0:5
	movw	r12, #28928
	movs	r2, #7
	movt	r12, #16425
	.loc	9 872 29 is_stmt 1              @ ../../../../Library/StdDriver/src/clk.c:872:29
	ldr.w	r3, [r12]
	.loc	9 872 60 is_stmt 0              @ ../../../../Library/StdDriver/src/clk.c:872:60
	bfi	r3, r2, #1, #4
	.loc	9 872 21                        @ ../../../../Library/StdDriver/src/clk.c:872:21
	str.w	r3, [r12]
.Ltmp727:
	@DEBUG_VALUE: CLK_DisableModuleClock:u32TmpAddr <- 1073746600
	@DEBUG_VALUE: CLK_DisableModuleClock:u32TmpVal <- -2
	@DEBUG_VALUE: CLK_DisableModuleClock:u64ModuleIdx <- 5910974510923776
