	.text
	.syntax unified
	.eabi_attribute	67, "2.09"	@ Tag_conformance
	.cpu	cortex-m55
	.eabi_attribute	6, 21	@ Tag_CPU_arch
	.eabi_attribute	7, 77	@ Tag_CPU_arch_profile
	.eabi_attribute	8, 0	@ Tag_ARM_ISA_use
	.eabi_attribute	9, 3	@ Tag_THUMB_ISA_use
	.fpu	fpv5-d16
	.eabi_attribute	36, 1	@ Tag_FP_HP_extension
	.eabi_attribute	48, 2	@ Tag_MVE_arch
	.eabi_attribute	46, 1	@ Tag_DSP_extension
	.eabi_attribute	34, 1	@ Tag_CPU_unaligned_access
	.eabi_attribute	17, 1	@ Tag_ABI_PCS_GOT_use
	.eabi_attribute	20, 2	@ Tag_ABI_FP_denormal
	.eabi_attribute	21, 0	@ Tag_ABI_FP_exceptions
	.eabi_attribute	23, 1	@ Tag_ABI_FP_number_model
	.eabi_attribute	24, 1	@ Tag_ABI_align_needed
	.eabi_attribute	25, 1	@ Tag_ABI_align_preserved
	.eabi_attribute	28, 1	@ Tag_ABI_VFP_args
	.eabi_attribute	38, 1	@ Tag_ABI_FP_16bit_format
	.eabi_attribute	18, 2	@ Tag_ABI_PCS_wchar_t
	.eabi_attribute	26, 1	@ Tag_ABI_enum_size
	.eabi_attribute	14, 0	@ Tag_ABI_PCS_R9_use
	.file	"DetectorPostProcessing.cpp"
	.file	1 "C:\\Keil_v5\\ARM\\ARMCLANG\\Bin\\..\\include\\libcxx" "vector"
	.file	2 "C:\\CYCHEN38\\OpenNuvoton\\firmware\\M55M1BSP\\SampleCode\\MachineLearning\\ObjectDetection_FreeRTOS_yoloxn\\KEIL" "../../../../ThirdParty/tflite_micro\\tensorflow/lite/c/common.h"
	.file	3 "C:\\CYCHEN38\\OpenNuvoton\\firmware\\M55M1BSP\\SampleCode\\MachineLearning\\ObjectDetection_FreeRTOS_yoloxn\\KEIL" "../../../../ThirdParty/tflite_micro\\tensorflow/lite/c/c_api_types.h"
	.file	4 "C:\\Keil_v5\\ARM\\ARMCLANG\\Bin\\..\\include\\libcxx" "limits"
	.file	5 "C:\\CYCHEN38\\OpenNuvoton\\firmware\\M55M1BSP\\SampleCode\\MachineLearning\\ObjectDetection_FreeRTOS_yoloxn\\KEIL" "../DetectorPostProcessing.hpp"
	.file	6 "C:\\Keil_v5\\ARM\\ARMCLANG\\Bin\\..\\include" "stdint.h"
	.file	7 "C:\\Keil_v5\\ARM\\ARMCLANG\\Bin\\..\\include" "stdio.h"
	.file	8 "C:\\Keil_v5\\ARM\\ARMCLANG\\Bin\\..\\include\\libcxx\\__memory" "allocator.h"
	.file	9 "C:\\Keil_v5\\ARM\\ARMCLANG\\Bin\\..\\include" "stdlib.h"
	.file	10 "C:\\Keil_v5\\ARM\\ARMCLANG\\Bin\\..\\include\\libcxx\\__memory" "allocator_traits.h"
	.file	11 "C:\\Keil_v5\\ARM\\ARMCLANG\\Bin\\..\\include\\libcxx\\__memory" "compressed_pair.h"
	.file	12 "C:\\Keil_v5\\ARM\\ARMCLANG\\Bin\\..\\include\\libcxx\\__type_traits" "type_identity.h"
	.file	13 "C:\\Keil_v5\\ARM\\ARMCLANG\\Bin\\..\\include\\libcxx\\__type_traits" "integral_constant.h"
	.file	14 "C:\\Keil_v5\\ARM\\ARMCLANG\\Bin\\..\\include\\libcxx" "__split_buffer"
	.file	15 "C:\\Keil_v5\\ARM\\ARMCLANG\\Bin\\..\\include\\libcxx\\__type_traits" "remove_reference.h"
	.file	16 "C:\\Keil_v5\\ARM\\ARMCLANG\\Bin\\..\\include" "string.h"
	.file	17 "C:\\CYCHEN38\\OpenNuvoton\\firmware\\M55M1BSP\\SampleCode\\MachineLearning\\ObjectDetection_FreeRTOS_yoloxn\\KEIL" "../../../../ThirdParty/ml-embedded-evaluation-kit/source/application/api/common/include\\ImageUtils.hpp"
	.file	18 "C:\\Keil_v5\\ARM\\ARMCLANG\\Bin\\..\\include\\libcxx" "forward_list"
	.file	19 "C:\\Keil_v5\\ARM\\ARMCLANG\\Bin\\..\\include\\libcxx\\__memory" "pointer_traits.h"
	.file	20 "C:\\Keil_v5\\ARM\\ARMCLANG\\Bin\\..\\include\\libcxx\\__type_traits" "conditional.h"
	.file	21 "C:\\Keil_v5\\ARM\\ARMCLANG\\Bin\\..\\include\\libcxx" "stddef.h"
	.file	22 "C:\\CYCHEN38\\OpenNuvoton\\firmware\\M55M1BSP\\SampleCode\\MachineLearning\\ObjectDetection_FreeRTOS_yoloxn\\KEIL" "../DetectionResult.hpp"
	.file	23 "C:\\Keil_v5\\ARM\\ARMCLANG\\Bin\\..\\include\\libcxx\\__iterator" "iterator_traits.h"
	.file	24 "C:\\Keil_v5\\ARM\\ARMCLANG\\Bin\\..\\include\\libcxx\\__iterator" "iterator.h"
	.file	25 "C:\\Keil_v5\\ARM\\ARMCLANG\\Bin\\..\\include\\libcxx\\__iterator" "reverse_iterator.h"
	.file	26 "C:\\Keil_v5\\ARM\\ARMCLANG\\Bin\\..\\include" "stddef.h"
	.file	27 "C:\\Keil_v5\\ARM\\ARMCLANG\\Bin\\..\\include\\libcxx\\__iterator" "advance.h"
	.file	28 "C:\\Keil_v5\\ARM\\ARMCLANG\\Bin\\..\\include\\libcxx\\__utility" "pair.h"
	.file	29 "C:\\Keil_v5\\ARM\\ARMCLANG\\Bin\\..\\include\\libcxx\\__memory" "shared_ptr.h"
	.file	30 "C:\\Keil_v5\\ARM\\ARMCLANG\\Bin\\..\\include\\libcxx\\__memory" "unique_ptr.h"
	.file	31 "C:\\Keil_v5\\ARM\\ARMCLANG\\Bin\\..\\include\\libcxx\\__type_traits" "add_lvalue_reference.h"
	.file	32 "C:\\Keil_v5\\ARM\\ARMCLANG\\Bin\\..\\include\\libcxx" "cstddef"
	.file	33 "C:\\Keil_v5\\ARM\\ARMCLANG\\Bin\\..\\include\\libcxx" "cstdint"
	.file	34 "C:\\Keil_v5\\ARM\\ARMCLANG\\Bin\\..\\include\\libcxx" "cstdlib"
	.file	35 "C:\\Keil_v5\\ARM\\ARMCLANG\\Bin\\..\\include\\libcxx" "stdlib.h"
	.file	36 "C:\\Keil_v5\\ARM\\ARMCLANG\\Bin\\..\\include" "wchar.h"
	.file	37 "C:\\Keil_v5\\ARM\\ARMCLANG\\Bin\\..\\include" "time.h"
	.file	38 "C:\\CYCHEN38\\OpenNuvoton\\firmware\\M55M1BSP\\SampleCode\\MachineLearning\\ObjectDetection_FreeRTOS_yoloxn\\KEIL" "..\\DetectorPostProcessing.cpp"
	.file	39 "C:\\Keil_v5\\ARM\\ARMCLANG\\Bin\\..\\include\\libcxx" "__mbstate_t.h"
	.file	40 "C:\\Keil_v5\\ARM\\ARMCLANG\\Bin\\..\\include" "math.h"
	.file	41 "C:\\Keil_v5\\ARM\\ARMCLANG\\Bin\\..\\include\\libcxx" "math.h"
	.file	42 "C:\\Keil_v5\\ARM\\ARMCLANG\\Bin\\..\\include\\libcxx" "cmath"
	.file	43 "C:\\Keil_v5\\ARM\\ARMCLANG\\Bin\\..\\include\\libcxx" "cstring"
	.file	44 "C:\\Keil_v5\\ARM\\ARMCLANG\\Bin\\..\\include\\libcxx" "string.h"
	.file	45 "C:\\Keil_v5\\ARM\\ARMCLANG\\Bin\\..\\include\\libcxx" "ctime"
	.file	46 "C:\\Keil_v5\\ARM\\ARMCLANG\\Bin\\..\\include\\libcxx" "cstdio"
	.file	47 "C:\\Keil_v5\\ARM\\ARMCLANG\\Bin\\..\\include" "stdarg.h"
	.file	48 "C:\\Keil_v5\\ARM\\ARMCLANG\\Bin\\..\\include\\libcxx" "cstdarg"
	.file	49 "C:\\Keil_v5\\ARM\\ARMCLANG\\Bin\\..\\include" "ctype.h"
	.file	50 "C:\\Keil_v5\\ARM\\ARMCLANG\\Bin\\..\\include\\libcxx" "cctype"
	.file	51 "C:\\Keil_v5\\ARM\\ARMCLANG\\Bin\\..\\include" "wctype.h"
	.file	52 "C:\\Keil_v5\\ARM\\ARMCLANG\\Bin\\..\\include\\libcxx" "cwctype"
	.file	53 "C:\\Keil_v5\\ARM\\ARMCLANG\\Bin\\..\\include\\libcxx" "cwchar"
	.file	54 "C:\\Keil_v5\\ARM\\ARMCLANG\\Bin\\..\\include\\libcxx" "wchar.h"
	.file	55 "C:\\Keil_v5\\ARM\\ARMCLANG\\Bin\\..\\include" "errno.h"
	.file	56 "C:\\Keil_v5\\ARM\\ARMCLANG\\Bin\\..\\include" "locale.h"
	.file	57 "C:\\Keil_v5\\ARM\\ARMCLANG\\Bin\\..\\include\\libcxx" "clocale"
	.file	58 "C:\\Keil_v5\\ARM\\ARMCLANG\\Bin\\..\\include" "float.h"
	.section	.text._ZN3arm3app16object_detection22DetectorPostprocessingC2Effii,"ax",%progbits
	.hidden	_ZN3arm3app16object_detection22DetectorPostprocessingC2Effii @ -- Begin function _ZN3arm3app16object_detection22DetectorPostprocessingC2Effii
	.globl	_ZN3arm3app16object_detection22DetectorPostprocessingC2Effii
	.p2align	2
	.type	_ZN3arm3app16object_detection22DetectorPostprocessingC2Effii,%function
	.code	16                              @ @_ZN3arm3app16object_detection22DetectorPostprocessingC2Effii
	.thumb_func
_ZN3arm3app16object_detection22DetectorPostprocessingC2Effii:
.Lfunc_begin0:
	.file	59 "C:\\CYCHEN38\\OpenNuvoton\\firmware\\M55M1BSP\\SampleCode\\MachineLearning\\ObjectDetection_FreeRTOS_yoloxn\\KEIL" "../DetectorPostProcessing.cpp"
	.loc	59 39 0                         @ ../DetectorPostProcessing.cpp:39:0
	.fnstart
	.cfi_sections .debug_frame
	.cfi_startproc
@ %bb.0:
	@DEBUG_VALUE: DetectorPostprocessing:this <- $r0
	@DEBUG_VALUE: DetectorPostprocessing:threshold <- $s0
	@DEBUG_VALUE: DetectorPostprocessing:nms <- $s1
	@DEBUG_VALUE: DetectorPostprocessing:numClasses <- $r1
	@DEBUG_VALUE: DetectorPostprocessing:topN <- $r2
	.loc	59 35 9 prologue_end            @ ../DetectorPostProcessing.cpp:35:9
	vstmia	r0, {s0, s1}
	.loc	59 37 9                         @ ../DetectorPostProcessing.cpp:37:9
	strd	r1, r2, [r0, #8]
	.loc	59 39 2                         @ ../DetectorPostProcessing.cpp:39:2
	bx	lr
.Ltmp0:
.Lfunc_end0:
	.size	_ZN3arm3app16object_detection22DetectorPostprocessingC2Effii, .Lfunc_end0-_ZN3arm3app16object_detection22DetectorPostprocessingC2Effii
	.cfi_endproc
	.cantunwind
	.fnend
                                        @ -- End function
	.section	.text._ZN3arm3app16object_detection22DetectorPostprocessing17RunPostProcessingEjjjjP12TfLiteTensorRNSt3__26vectorINS1_15DetectionResultENS5_9allocatorIS7_EEEE,"ax",%progbits
	.hidden	_ZN3arm3app16object_detection22DetectorPostprocessing17RunPostProcessingEjjjjP12TfLiteTensorRNSt3__26vectorINS1_15DetectionResultENS5_9allocatorIS7_EEEE @ -- Begin function _ZN3arm3app16object_detection22DetectorPostprocessing17RunPostProcessingEjjjjP12TfLiteTensorRNSt3__26vectorINS1_15DetectionResultENS5_9allocatorIS7_EEEE
	.globl	_ZN3arm3app16object_detection22DetectorPostprocessing17RunPostProcessingEjjjjP12TfLiteTensorRNSt3__26vectorINS1_15DetectionResultENS5_9allocatorIS7_EEEE
	.p2align	2
	.type	_ZN3arm3app16object_detection22DetectorPostprocessing17RunPostProcessingEjjjjP12TfLiteTensorRNSt3__26vectorINS1_15DetectionResultENS5_9allocatorIS7_EEEE,%function
	.code	16                              @ @_ZN3arm3app16object_detection22DetectorPostprocessing17RunPostProcessingEjjjjP12TfLiteTensorRNSt3__26vectorINS1_15DetectionResultENS5_9allocatorIS7_EEEE
	.thumb_func
_ZN3arm3app16object_detection22DetectorPostprocessing17RunPostProcessingEjjjjP12TfLiteTensorRNSt3__26vectorINS1_15DetectionResultENS5_9allocatorIS7_EEEE:
.Lfunc_begin1:
	.loc	59 49 0                         @ ../DetectorPostProcessing.cpp:49:0
	.fnstart
	.cfi_startproc
@ %bb.0:
	@DEBUG_VALUE: RunPostProcessing:this <- $r0
	@DEBUG_VALUE: RunPostProcessing:imgNetRows <- $r1
	@DEBUG_VALUE: RunPostProcessing:imgNetCols <- $r2
	@DEBUG_VALUE: RunPostProcessing:imgSrcRows <- $r3
	.save	{r4, r5, r6, r7, r8, r9, r10, r11, lr}
	push.w	{r4, r5, r6, r7, r8, r9, r10, r11, lr}
	.cfi_def_cfa_offset 36
	.cfi_offset lr, -4
	.cfi_offset r11, -8
	.cfi_offset r10, -12
	.cfi_offset r9, -16
	.cfi_offset r8, -20
	.cfi_offset r7, -24
	.cfi_offset r6, -28
	.cfi_offset r5, -32
	.cfi_offset r4, -36
	.pad	#4
	sub	sp, #4
	.cfi_def_cfa_offset 40
	.vsave	{d8, d9, d10, d11, d12, d13, d14}
	vpush	{d8, d9, d10, d11, d12, d13, d14}
	.cfi_def_cfa_offset 96
	.cfi_offset d14, -48
	.cfi_offset d13, -56
	.cfi_offset d12, -64
	.cfi_offset d11, -72
	.cfi_offset d10, -80
	.cfi_offset d9, -88
	.cfi_offset d8, -96
	.pad	#64
	sub	sp, #64
	.cfi_def_cfa_offset 160
.Ltmp1:
	@DEBUG_VALUE: RunPostProcessing:imgSrcCols <- [DW_OP_plus_uconst 160] [$sp+0]
	@DEBUG_VALUE: RunPostProcessing:modelOutput0 <- [DW_OP_plus_uconst 164] [$sp+0]
	@DEBUG_VALUE: RunPostProcessing:resultsOut <- [DW_OP_plus_uconst 168] [$sp+0]
	mov	r6, r0
.Ltmp2:
	@DEBUG_VALUE: RunPostProcessing:this <- $r6
	@DEBUG_VALUE: RunPostProcessing:originalImageWidth <- undef
	@DEBUG_VALUE: RunPostProcessing:this <- $r6
	ldr	r0, [sp, #164]
	str	r1, [sp, #28]                   @ 4-byte Spill
.Ltmp3:
	@DEBUG_VALUE: RunPostProcessing:imgNetRows <- [DW_OP_plus_uconst 28] [$sp+0]
	.loc	59 69 5 prologue_end            @ ../DetectorPostProcessing.cpp:69:5
	strd	r2, r1, [sp, #36]
	.loc	59 77 83                        @ ../DetectorPostProcessing.cpp:77:83
	ldr	r1, [r0, #4]
	str	r2, [sp, #20]                   @ 4-byte Spill
.Ltmp4:
	@DEBUG_VALUE: RunPostProcessing:imgNetCols <- [DW_OP_plus_uconst 20] [$sp+0]
	@DEBUG_VALUE: RunPostProcessing:imgNetCols <- [DW_OP_plus_uconst 20] [$sp+0]
	.loc	59 76 51                        @ ../DetectorPostProcessing.cpp:76:51
	ldrd	r10, r2, [r0, #16]
	.loc	59 79 39                        @ ../DetectorPostProcessing.cpp:79:39
	ldr.w	r8, [r0, #24]
	.loc	59 77 93                        @ ../DetectorPostProcessing.cpp:77:93
	ldrd	r0, r1, [r1]
	.loc	59 72 23                        @ ../DetectorPostProcessing.cpp:72:23
	ldr.w	r9, [r6, #8]
	.loc	59 75 31                        @ ../DetectorPostProcessing.cpp:75:31
	ldr.w	r11, [r2, #8]
	.loc	59 77 26                        @ ../DetectorPostProcessing.cpp:77:26
	ldr	r5, [r0, #4]
.Ltmp5:
	.file	60 "C:\\Keil_v5\\ARM\\ARMCLANG\\Bin\\..\\include\\libcxx" "new"
	.loc	60 270 10                       @ C:\Keil_v5\ARM\ARMCLANG\Bin\..\include\libcxx\new:270:10
	movs	r0, #20
.Ltmp6:
	.loc	59 78 30                        @ ../DetectorPostProcessing.cpp:78:30
	ldr	r4, [r1, #4]
.Ltmp7:
	@DEBUG_VALUE: __compressed_pair_elem<std::nullptr_t, void>:__u <- undef
	@DEBUG_VALUE: __compressed_pair<std::nullptr_t, std::__2::__default_init_tag>:__t2 <- undef
	@DEBUG_VALUE: __compressed_pair<std::nullptr_t, std::__2::__default_init_tag>:__t1 <- undef
	.loc	59 0 30 is_stmt 0               @ ../DetectorPostProcessing.cpp:0:30
	str	r3, [sp, #24]                   @ 4-byte Spill
.Ltmp8:
	@DEBUG_VALUE: RunPostProcessing:imgSrcRows <- [DW_OP_plus_uconst 24] [$sp+0]
	@DEBUG_VALUE: RunPostProcessing:imgSrcRows <- [DW_OP_plus_uconst 24] [$sp+0]
	.loc	59 69 5 is_stmt 1               @ ../DetectorPostProcessing.cpp:69:5
	str.w	r9, [sp, #44]
.Ltmp9:
	@DEBUG_VALUE: __libcpp_operator_new<unsigned int>:__args <- 20
	@DEBUG_VALUE: __libcpp_allocate:__align <- 4
	@DEBUG_VALUE: __libcpp_allocate:__size <- 20
	@DEBUG_VALUE: allocate:__n <- 1
	@DEBUG_VALUE: __allocate_at_least<std::__2::allocator<arm::app::object_detection::Branch> >:__n <- 1
	@DEBUG_VALUE: __vallocate:__n <- 1
	.loc	60 270 10                       @ C:\Keil_v5\ARM\ARMCLANG\Bin\..\include\libcxx\new:270:10
	bl	_Znwj
.Ltmp10:
	.loc	59 82 17                        @ ../DetectorPostProcessing.cpp:82:17
	ldr	r1, [r6, #12]
.Ltmp11:
	.loc	60 270 10                       @ C:\Keil_v5\ARM\ARMCLANG\Bin\..\include\libcxx\new:270:10
	mov	r7, r0
.Ltmp12:
	@DEBUG_VALUE: __vallocate:__allocation <- [DW_OP_LLVM_fragment 32 32] 1
	@DEBUG_VALUE: __construct_at_end<const arm::app::object_detection::Branch *>:__tx <- [DW_OP_LLVM_fragment 32 32] $r7
	@DEBUG_VALUE: __vallocate:__allocation <- [DW_OP_LLVM_fragment 0 32] $r7
	.loc	1 684 18                        @ C:\Keil_v5\ARM\ARMCLANG\Bin\..\include\libcxx\vector:684:18
	str	r0, [sp, #48]
	.loc	1 686 32                        @ C:\Keil_v5\ARM\ARMCLANG\Bin\..\include\libcxx\vector:686:32
	adds	r0, #20
.Ltmp13:
	.loc	59 92 67                        @ ../DetectorPostProcessing.cpp:92:67
	vldr	s0, [r6]
.Ltmp14:
	@DEBUG_VALUE: __compressed_pair_elem<std::__2::__forward_begin_node<std::__2::__forward_list_node<arm::app::image::Detection, void *> *>, void>:this <- [DW_OP_plus_uconst 32, DW_OP_stack_value] $sp
	@DEBUG_VALUE: __compressed_pair<std::__2::__forward_begin_node<std::__2::__forward_list_node<arm::app::image::Detection, void *> *>, std::__2::__default_init_tag>:this <- [DW_OP_plus_uconst 32, DW_OP_stack_value] $sp
	@DEBUG_VALUE: __forward_list_base:this <- [DW_OP_plus_uconst 32, DW_OP_stack_value] $sp
	@DEBUG_VALUE: forward_list:this <- [DW_OP_plus_uconst 32, DW_OP_stack_value] $sp
	.loc	1 686 21                        @ C:\Keil_v5\ARM\ARMCLANG\Bin\..\include\libcxx\vector:686:21
	str	r0, [sp, #56]
.Ltmp15:
	@DEBUG_VALUE: ~_ConstructTransaction:this <- undef
	@DEBUG_VALUE: __copy<const arm::app::object_detection::Branch *, const arm::app::object_detection::Branch *, arm::app::object_detection::Branch *, 0>:__ret <- [DW_OP_LLVM_fragment 32 32] $r0
	@DEBUG_VALUE: __copy<const arm::app::object_detection::Branch *, const arm::app::object_detection::Branch *, arm::app::object_detection::Branch *, 0>:__ret <- [DW_OP_LLVM_arg 0, DW_OP_LLVM_arg 1, DW_OP_constu 20, DW_OP_mul, DW_OP_plus, DW_OP_stack_value, DW_OP_LLVM_fragment 0 32] undef, undef
	@DEBUG_VALUE: __copy_impl<const arm::app::object_detection::Branch, arm::app::object_detection::Branch, void>:__n <- 1
	@DEBUG_VALUE: __copy_impl<const arm::app::object_detection::Branch, arm::app::object_detection::Branch, void>:__last <- [DW_OP_plus_uconst 20, DW_OP_stack_value] undef
	@DEBUG_VALUE: __copy_impl<const arm::app::object_detection::Branch, arm::app::object_detection::Branch, void>:__first <- undef
	@DEBUG_VALUE: __copy<const arm::app::object_detection::Branch *, const arm::app::object_detection::Branch *, arm::app::object_detection::Branch *, 0>:__range <- [DW_OP_plus_uconst 20, DW_OP_stack_value, DW_OP_LLVM_fragment 32 32] undef
	@DEBUG_VALUE: __copy<const arm::app::object_detection::Branch *, const arm::app::object_detection::Branch *, arm::app::object_detection::Branch *, 0>:__range <- [DW_OP_LLVM_fragment 0 32] undef
	@DEBUG_VALUE: __copy<const arm::app::object_detection::Branch *, const arm::app::object_detection::Branch *, arm::app::object_detection::Branch *, 0>:__last <- [DW_OP_plus_uconst 20, DW_OP_stack_value] undef
	@DEBUG_VALUE: __copy<const arm::app::object_detection::Branch *, const arm::app::object_detection::Branch *, arm::app::object_detection::Branch *, 0>:__first <- undef
	@DEBUG_VALUE: copy<const arm::app::object_detection::Branch *, arm::app::object_detection::Branch *>:__last <- [DW_OP_plus_uconst 20, DW_OP_stack_value] undef
	@DEBUG_VALUE: copy<const arm::app::object_detection::Branch *, arm::app::object_detection::Branch *>:__first <- undef
	@DEBUG_VALUE: __uninitialized_allocator_copy<std::__2::allocator<arm::app::object_detection::Branch>, arm::app::object_detection::Branch, arm::app::object_detection::Branch, nullptr>:__last1 <- [DW_OP_plus_uconst 20, DW_OP_stack_value] undef
	@DEBUG_VALUE: __uninitialized_allocator_copy<std::__2::allocator<arm::app::object_detection::Branch>, arm::app::object_detection::Branch, arm::app::object_detection::Branch, nullptr>:__first1 <- undef
	@DEBUG_VALUE: __construct_at_end<const arm::app::object_detection::Branch *>:__n <- 1
	@DEBUG_VALUE: __construct_at_end<const arm::app::object_detection::Branch *>:__last <- [DW_OP_plus_uconst 20, DW_OP_stack_value] undef
	@DEBUG_VALUE: __construct_at_end<const arm::app::object_detection::Branch *>:__first <- undef
	@DEBUG_VALUE: __copy_impl<const arm::app::object_detection::Branch, arm::app::object_detection::Branch, void>:__result <- $r7
	@DEBUG_VALUE: __copy<const arm::app::object_detection::Branch *, const arm::app::object_detection::Branch *, arm::app::object_detection::Branch *, 0>:__result <- $r7
	@DEBUG_VALUE: copy<const arm::app::object_detection::Branch *, arm::app::object_detection::Branch *>:__result <- $r7
	@DEBUG_VALUE: __uninitialized_allocator_copy<std::__2::allocator<arm::app::object_detection::Branch>, arm::app::object_detection::Branch, arm::app::object_detection::Branch, nullptr>:__first2 <- $r7
	@DEBUG_VALUE: __construct_at_end<const arm::app::object_detection::Branch *>:__tx <- [DW_OP_LLVM_arg 0, DW_OP_LLVM_arg 1, DW_OP_constu 20, DW_OP_mul, DW_OP_plus, DW_OP_stack_value, DW_OP_LLVM_fragment 64 32] $r7, 1
	@DEBUG_VALUE: __construct_at_end<const arm::app::object_detection::Branch *>:__tx <- [DW_OP_LLVM_fragment 32 32] $r0
	.file	61 "C:\\Keil_v5\\ARM\\ARMCLANG\\Bin\\..\\include\\libcxx\\__algorithm" "copy.h"
	.loc	61 56 5                         @ C:\Keil_v5\ARM\ARMCLANG\Bin\..\include\libcxx\__algorithm/copy.h:56:5
	strd	r5, r4, [r7, #8]
	str.w	r8, [r7, #16]
	mov.w	r8, #0
.Ltmp16:
	@DEBUG_VALUE: __compressed_pair_elem<std::__2::__forward_begin_node<std::__2::__forward_list_node<arm::app::image::Detection, void *> *>, void>:__u <- undef
	@DEBUG_VALUE: __compressed_pair<std::__2::__forward_begin_node<std::__2::__forward_list_node<arm::app::image::Detection, void *> *>, std::__2::__default_init_tag>:__t2 <- undef
	@DEBUG_VALUE: __compressed_pair<std::__2::__forward_begin_node<std::__2::__forward_list_node<arm::app::image::Detection, void *> *>, std::__2::__default_init_tag>:__t1 <- undef
	.loc	1 788 19                        @ C:\Keil_v5\ARM\ARMCLANG\Bin\..\include\libcxx\vector:788:19
	str	r0, [sp, #52]
	@DEBUG_VALUE: __construct_at_end<const arm::app::object_detection::Branch *>:__n <- 1
.Ltmp17:
	@DEBUG_VALUE: __construct_at_end<const arm::app::object_detection::Branch *>:__tx <- [DW_OP_LLVM_arg 0, DW_OP_LLVM_arg 1, DW_OP_constu 20, DW_OP_mul, DW_OP_plus, DW_OP_stack_value, DW_OP_LLVM_fragment 64 32] $r7, 1
	@DEBUG_VALUE: __construct_at_end<const arm::app::object_detection::Branch *>:__tx <- [DW_OP_LLVM_fragment 32 32] $r0
	.loc	1 0 19 is_stmt 0                @ C:\Keil_v5\ARM\ARMCLANG\Bin\..\include\libcxx\vector:0:19
	add	r4, sp, #32
.Ltmp18:
	.loc	59 69 5 is_stmt 1               @ ../DetectorPostProcessing.cpp:69:5
	str	r1, [sp, #60]
.Ltmp19:
	@DEBUG_VALUE: RunPostProcessing:originalImageHeight <- undef
	.loc	59 0 5 is_stmt 0                @ ../DetectorPostProcessing.cpp:0:5
	add	r1, sp, #36
.Ltmp20:
	@DEBUG_VALUE: __uninitialized_allocator_copy<std::__2::allocator<arm::app::object_detection::Branch>, arm::app::object_detection::Branch, arm::app::object_detection::Branch, nullptr>: <- [DW_OP_plus_uconst 12, DW_OP_plus_uconst 8, DW_OP_stack_value] $r1
	@DEBUG_VALUE: __construct_at_end<const arm::app::object_detection::Branch *>:__tx <- [DW_OP_plus_uconst 12, DW_OP_stack_value, DW_OP_LLVM_fragment 0 32] $r1
	@DEBUG_VALUE: __construct_at_end<const arm::app::object_detection::Branch *>:this <- [DW_OP_plus_uconst 12, DW_OP_stack_value] $r1
	@DEBUG_VALUE: allocate:this <- [DW_OP_plus_uconst 12, DW_OP_plus_uconst 8, DW_OP_stack_value] $r1
	@DEBUG_VALUE: __allocate_at_least<std::__2::allocator<arm::app::object_detection::Branch> >:__alloc <- [DW_OP_plus_uconst 12, DW_OP_plus_uconst 8, DW_OP_stack_value] $r1
	@DEBUG_VALUE: __vallocate:this <- [DW_OP_plus_uconst 12, DW_OP_stack_value] $r1
	@DEBUG_VALUE: vector:this <- [DW_OP_plus_uconst 12, DW_OP_stack_value] $r1
	@DEBUG_VALUE: __compressed_pair_elem<std::nullptr_t, void>:this <- [DW_OP_plus_uconst 20, DW_OP_stack_value] $r1
	@DEBUG_VALUE: __compressed_pair<std::nullptr_t, std::__2::__default_init_tag>:this <- [DW_OP_plus_uconst 20, DW_OP_stack_value] $r1
	@DEBUG_VALUE: vector:__il <- [DW_OP_LLVM_fragment 32 32] 1
	@DEBUG_VALUE: vector:__il <- [DW_OP_LLVM_fragment 0 32] undef
	.loc	59 92 5 is_stmt 1               @ ../DetectorPostProcessing.cpp:92:5
	mov	r0, r6
.Ltmp21:
	.loc	11 41 48                        @ C:\Keil_v5\ARM\ARMCLANG\Bin\..\include\libcxx\__memory/compressed_pair.h:41:48
	str.w	r8, [sp, #32]
.Ltmp22:
	.loc	61 56 5                         @ C:\Keil_v5\ARM\ARMCLANG\Bin\..\include\libcxx\__algorithm/copy.h:56:5
	strd	r11, r10, [r7]
.Ltmp23:
	.loc	59 92 5                         @ ../DetectorPostProcessing.cpp:92:5
	str	r4, [sp]
	bl	_ZN3arm3app16object_detection22DetectorPostprocessing15GetNetworkBoxesERNS1_7NetworkEiifRNSt3__212forward_listINS0_5image9DetectionENS5_9allocatorIS8_EEEE
.Ltmp24:
	.loc	59 95 46                        @ ../DetectorPostProcessing.cpp:95:46
	vldr	s0, [r6, #4]
	.loc	59 95 5 is_stmt 0               @ ../DetectorPostProcessing.cpp:95:5
	mov	r0, r4
	mov	r1, r9
	str.w	r9, [sp, #8]                    @ 4-byte Spill
	bl	_ZN3arm3app5image12CalculateNMSERNSt3__212forward_listINS1_9DetectionENS2_9allocatorIS4_EEEEif
.Ltmp25:
	@DEBUG_VALUE: __end2 <- 0
	@DEBUG_VALUE: __begin2 <- undef
	@DEBUG_VALUE: __range2 <- [DW_OP_plus_uconst 32, DW_OP_stack_value] $sp
	.loc	59 0 0                          @ ../DetectorPostProcessing.cpp:0:0
	ldr	r4, [sp, #32]
.Ltmp26:
	@DEBUG_VALUE: operator==:__y <- undef
	@DEBUG_VALUE: operator==:__x <- undef
	@DEBUG_VALUE: operator!=:__y <- undef
	@DEBUG_VALUE: operator!=:__x <- undef
	@DEBUG_VALUE: tmpResult <- [DW_OP_LLVM_fragment 0 64] undef
	@DEBUG_VALUE: tmpResult <- [DW_OP_LLVM_fragment 64 32] undef
	@DEBUG_VALUE: tmpResult <- [DW_OP_LLVM_fragment 96 32] undef
	@DEBUG_VALUE: tmpResult <- [DW_OP_LLVM_fragment 128 32] undef
	@DEBUG_VALUE: tmpResult <- [DW_OP_LLVM_fragment 160 32] undef
	@DEBUG_VALUE: tmpResult <- [DW_OP_LLVM_fragment 192 32] undef
	@DEBUG_VALUE: __begin2 <- $r4
	.loc	59 97 19 is_stmt 1              @ ../DetectorPostProcessing.cpp:97:19
	cmp	r4, #0
	beq.w	.LBB1_17
.Ltmp27:
@ %bb.1:
	@DEBUG_VALUE: __begin2 <- $r4
	@DEBUG_VALUE: __range2 <- [DW_OP_plus_uconst 32, DW_OP_stack_value] $sp
	@DEBUG_VALUE: __end2 <- 0
	@DEBUG_VALUE: vector:__il <- [DW_OP_LLVM_fragment 32 32] 1
	@DEBUG_VALUE: __construct_at_end<const arm::app::object_detection::Branch *>:__tx <- [DW_OP_LLVM_arg 0, DW_OP_LLVM_arg 1, DW_OP_constu 20, DW_OP_mul, DW_OP_plus, DW_OP_stack_value, DW_OP_LLVM_fragment 64 32] $r7, 1
	@DEBUG_VALUE: __uninitialized_allocator_copy<std::__2::allocator<arm::app::object_detection::Branch>, arm::app::object_detection::Branch, arm::app::object_detection::Branch, nullptr>:__first2 <- $r7
	@DEBUG_VALUE: copy<const arm::app::object_detection::Branch *, arm::app::object_detection::Branch *>:__result <- $r7
	@DEBUG_VALUE: __copy<const arm::app::object_detection::Branch *, const arm::app::object_detection::Branch *, arm::app::object_detection::Branch *, 0>:__result <- $r7
	@DEBUG_VALUE: __copy_impl<const arm::app::object_detection::Branch, arm::app::object_detection::Branch, void>:__result <- $r7
	@DEBUG_VALUE: __construct_at_end<const arm::app::object_detection::Branch *>:__n <- 1
	@DEBUG_VALUE: __copy_impl<const arm::app::object_detection::Branch, arm::app::object_detection::Branch, void>:__n <- 1
	@DEBUG_VALUE: forward_list:this <- [DW_OP_plus_uconst 32, DW_OP_stack_value] $sp
	@DEBUG_VALUE: __forward_list_base:this <- [DW_OP_plus_uconst 32, DW_OP_stack_value] $sp
	@DEBUG_VALUE: __compressed_pair<std::__2::__forward_begin_node<std::__2::__forward_list_node<arm::app::image::Detection, void *> *>, std::__2::__default_init_tag>:this <- [DW_OP_plus_uconst 32, DW_OP_stack_value] $sp
	@DEBUG_VALUE: __compressed_pair_elem<std::__2::__forward_begin_node<std::__2::__forward_list_node<arm::app::image::Detection, void *> *>, void>:this <- [DW_OP_plus_uconst 32, DW_OP_stack_value] $sp
	@DEBUG_VALUE: __vallocate:__allocation <- [DW_OP_LLVM_fragment 0 32] $r7
	@DEBUG_VALUE: __vallocate:__allocation <- [DW_OP_LLVM_fragment 32 32] 1
	@DEBUG_VALUE: __vallocate:__n <- 1
	@DEBUG_VALUE: __allocate_at_least<std::__2::allocator<arm::app::object_detection::Branch> >:__n <- 1
	@DEBUG_VALUE: allocate:__n <- 1
	@DEBUG_VALUE: __libcpp_allocate:__size <- 20
	@DEBUG_VALUE: __libcpp_allocate:__align <- 4
	@DEBUG_VALUE: __libcpp_operator_new<unsigned int>:__args <- 20
	@DEBUG_VALUE: RunPostProcessing:imgSrcRows <- [DW_OP_plus_uconst 24] [$sp+0]
	@DEBUG_VALUE: RunPostProcessing:imgNetCols <- [DW_OP_plus_uconst 20] [$sp+0]
	@DEBUG_VALUE: RunPostProcessing:imgNetRows <- [DW_OP_plus_uconst 28] [$sp+0]
	@DEBUG_VALUE: RunPostProcessing:this <- $r6
	@DEBUG_VALUE: RunPostProcessing:resultsOut <- [DW_OP_plus_uconst 168] [$sp+0]
	@DEBUG_VALUE: RunPostProcessing:modelOutput0 <- [DW_OP_plus_uconst 164] [$sp+0]
	@DEBUG_VALUE: RunPostProcessing:imgSrcCols <- [DW_OP_plus_uconst 160] [$sp+0]
	.loc	59 0 19 is_stmt 0               @ ../DetectorPostProcessing.cpp:0:19
	ldr	r0, [sp, #160]
.Ltmp28:
	@DEBUG_VALUE: RunPostProcessing:originalImageWidth <- $r0
	str	r7, [sp, #4]                    @ 4-byte Spill
	@DEBUG_VALUE: __vallocate:__allocation <- [DW_OP_plus_uconst 4, DW_OP_LLVM_fragment 0 32] [$sp+0]
	vmov	s0, r0
.Ltmp29:
	@DEBUG_VALUE: RunPostProcessing:originalImageWidth <- $s0
	ldr	r0, [sp, #20]                   @ 4-byte Reload
	vcvt.f32.s32	s16, s0
	vmov	s0, r0
.Ltmp30:
	ldr	r0, [sp, #24]                   @ 4-byte Reload
	vcvt.f32.s32	s18, s0
	vmov	s0, r0
	ldr	r0, [sp, #28]                   @ 4-byte Reload
	vcvt.f32.s32	s20, s0
	vmov	s0, r0
	ldr	r7, [sp, #168]
	vcvt.f32.s32	s22, s0
	vldr	s26, .LCPI1_0
	vmov.f32	s24, #5.000000e-01
	b	.LBB1_3
.Ltmp31:
	.p2align	2
.LBB1_2:                                @   in Loop: Header=BB1_3 Depth=1
	@DEBUG_VALUE: __range2 <- [DW_OP_plus_uconst 32, DW_OP_stack_value] $sp
	@DEBUG_VALUE: __end2 <- 0
	@DEBUG_VALUE: RunPostProcessing:imgSrcRows <- [DW_OP_plus_uconst 24] [$sp+0]
	@DEBUG_VALUE: RunPostProcessing:imgNetCols <- [DW_OP_plus_uconst 20] [$sp+0]
	@DEBUG_VALUE: RunPostProcessing:imgNetRows <- [DW_OP_plus_uconst 28] [$sp+0]
	@DEBUG_VALUE: RunPostProcessing:resultsOut <- [DW_OP_plus_uconst 168] [$sp+0]
	@DEBUG_VALUE: RunPostProcessing:modelOutput0 <- [DW_OP_plus_uconst 164] [$sp+0]
	@DEBUG_VALUE: RunPostProcessing:imgSrcCols <- [DW_OP_plus_uconst 160] [$sp+0]
	ldr	r4, [r4]
.Ltmp32:
	@DEBUG_VALUE: operator==:__y <- undef
	@DEBUG_VALUE: operator==:__x <- undef
	@DEBUG_VALUE: operator!=:__y <- undef
	@DEBUG_VALUE: operator!=:__x <- undef
	@DEBUG_VALUE: tmpResult <- [DW_OP_LLVM_fragment 0 64] undef
	@DEBUG_VALUE: tmpResult <- [DW_OP_LLVM_fragment 64 32] undef
	@DEBUG_VALUE: tmpResult <- [DW_OP_LLVM_fragment 96 32] undef
	@DEBUG_VALUE: tmpResult <- [DW_OP_LLVM_fragment 128 32] undef
	@DEBUG_VALUE: tmpResult <- [DW_OP_LLVM_fragment 160 32] undef
	@DEBUG_VALUE: tmpResult <- [DW_OP_LLVM_fragment 192 32] undef
	@DEBUG_VALUE: __begin2 <- $r4
	.loc	59 97 19                        @ ../DetectorPostProcessing.cpp:97:19
	cmp	r4, #0
	beq.w	.LBB1_15
.Ltmp33:
.LBB1_3:                                @ =>This Loop Header: Depth=1
                                        @     Child Loop BB1_7 Depth 2
	@DEBUG_VALUE: __begin2 <- $r4
	@DEBUG_VALUE: __range2 <- [DW_OP_plus_uconst 32, DW_OP_stack_value] $sp
	@DEBUG_VALUE: __end2 <- 0
	@DEBUG_VALUE: RunPostProcessing:imgSrcRows <- [DW_OP_plus_uconst 24] [$sp+0]
	@DEBUG_VALUE: RunPostProcessing:imgNetCols <- [DW_OP_plus_uconst 20] [$sp+0]
	@DEBUG_VALUE: RunPostProcessing:imgNetRows <- [DW_OP_plus_uconst 28] [$sp+0]
	@DEBUG_VALUE: RunPostProcessing:resultsOut <- [DW_OP_plus_uconst 168] [$sp+0]
	@DEBUG_VALUE: RunPostProcessing:modelOutput0 <- [DW_OP_plus_uconst 164] [$sp+0]
	@DEBUG_VALUE: RunPostProcessing:imgSrcCols <- [DW_OP_plus_uconst 160] [$sp+0]
	@DEBUG_VALUE: tmpResult <- [DW_OP_LLVM_fragment 192 32] undef
	@DEBUG_VALUE: tmpResult <- [DW_OP_LLVM_fragment 160 32] undef
	@DEBUG_VALUE: tmpResult <- [DW_OP_LLVM_fragment 128 32] undef
	@DEBUG_VALUE: tmpResult <- [DW_OP_LLVM_fragment 96 32] undef
	@DEBUG_VALUE: tmpResult <- [DW_OP_LLVM_fragment 64 32] undef
	@DEBUG_VALUE: tmpResult <- [DW_OP_LLVM_fragment 0 64] undef
	@DEBUG_VALUE: operator*:this <- undef
	@DEBUG_VALUE: it <- [DW_OP_plus_uconst 4, DW_OP_stack_value] $r4
	.loc	59 101 30 is_stmt 1             @ ../DetectorPostProcessing.cpp:101:30
	vldr	s0, [r4, #4]
	.loc	59 102 30                       @ ../DetectorPostProcessing.cpp:102:30
	vldr	s2, [r4, #8]
	.loc	59 103 30                       @ ../DetectorPostProcessing.cpp:103:30
	vldr	s4, [r4, #12]
	.loc	59 104 30                       @ ../DetectorPostProcessing.cpp:104:30
	vldr	s6, [r4, #16]
	.loc	59 101 32                       @ ../DetectorPostProcessing.cpp:101:32
	vmul.f32	s0, s0, s16
	.loc	59 102 32                       @ ../DetectorPostProcessing.cpp:102:32
	vmul.f32	s2, s2, s20
	.loc	59 103 32                       @ ../DetectorPostProcessing.cpp:103:32
	vmul.f32	s4, s4, s16
	.loc	59 104 32                       @ ../DetectorPostProcessing.cpp:104:32
	vmul.f32	s6, s6, s20
	.loc	59 101 54                       @ ../DetectorPostProcessing.cpp:101:54
	vdiv.f32	s0, s0, s18
	.loc	59 102 55                       @ ../DetectorPostProcessing.cpp:102:55
	vdiv.f32	s2, s2, s22
	.loc	59 103 54                       @ ../DetectorPostProcessing.cpp:103:54
	vdiv.f32	s4, s4, s18
	.loc	59 104 55                       @ ../DetectorPostProcessing.cpp:104:55
	vdiv.f32	s6, s6, s22
.Ltmp34:
	@DEBUG_VALUE: j <- 0
	@DEBUG_VALUE: boxHeight <- undef
	@DEBUG_VALUE: boxWidth <- undef
	@DEBUG_VALUE: boxY <- undef
	@DEBUG_VALUE: boxX <- undef
	@DEBUG_VALUE: yMax <- undef
	@DEBUG_VALUE: xMax <- undef
	@DEBUG_VALUE: yMin <- undef
	@DEBUG_VALUE: xMin <- undef
	@DEBUG_VALUE: tmpResult <- [DW_OP_LLVM_fragment 64 32] undef
	@DEBUG_VALUE: tmpResult <- [DW_OP_LLVM_fragment 96 32] undef
	@DEBUG_VALUE: tmpResult <- [DW_OP_LLVM_fragment 128 32] undef
	@DEBUG_VALUE: tmpResult <- [DW_OP_LLVM_fragment 160 32] undef
	@DEBUG_VALUE: tmpResult <- [DW_OP_LLVM_fragment 192 32] undef
	.loc	59 136 9                        @ ../DetectorPostProcessing.cpp:136:9
	ldr	r0, [sp, #8]                    @ 4-byte Reload
	cmp	r0, #1
.Ltmp35:
	.loc	59 101 19                       @ ../DetectorPostProcessing.cpp:101:19
	vstr	s0, [r4, #4]
	.loc	59 102 19                       @ ../DetectorPostProcessing.cpp:102:19
	vstr	s2, [r4, #8]
	.loc	59 103 19                       @ ../DetectorPostProcessing.cpp:103:19
	vstr	s4, [r4, #12]
	.loc	59 104 19                       @ ../DetectorPostProcessing.cpp:104:19
	vstr	s6, [r4, #16]
	blt	.LBB1_2
.Ltmp36:
@ %bb.4:                                @   in Loop: Header=BB1_3 Depth=1
	@DEBUG_VALUE: it <- [DW_OP_plus_uconst 4, DW_OP_stack_value] $r4
	@DEBUG_VALUE: __begin2 <- $r4
	@DEBUG_VALUE: __range2 <- [DW_OP_plus_uconst 32, DW_OP_stack_value] $sp
	@DEBUG_VALUE: __end2 <- 0
	@DEBUG_VALUE: RunPostProcessing:imgSrcRows <- [DW_OP_plus_uconst 24] [$sp+0]
	@DEBUG_VALUE: RunPostProcessing:imgNetCols <- [DW_OP_plus_uconst 20] [$sp+0]
	@DEBUG_VALUE: RunPostProcessing:imgNetRows <- [DW_OP_plus_uconst 28] [$sp+0]
	@DEBUG_VALUE: RunPostProcessing:resultsOut <- [DW_OP_plus_uconst 168] [$sp+0]
	@DEBUG_VALUE: RunPostProcessing:modelOutput0 <- [DW_OP_plus_uconst 164] [$sp+0]
	@DEBUG_VALUE: RunPostProcessing:imgSrcCols <- [DW_OP_plus_uconst 160] [$sp+0]
	.loc	59 108 44                       @ ../DetectorPostProcessing.cpp:108:44
	vmul.f32	s6, s6, s24
	.loc	59 106 44                       @ ../DetectorPostProcessing.cpp:106:44
	vmul.f32	s4, s4, s24
	.loc	59 109 32                       @ ../DetectorPostProcessing.cpp:109:32
	vadd.f32	s8, s2, s6
.Ltmp37:
	@DEBUG_VALUE: yMax <- $s8
	.loc	59 108 32                       @ ../DetectorPostProcessing.cpp:108:32
	vsub.f32	s2, s2, s6
.Ltmp38:
	@DEBUG_VALUE: yMin <- $s2
	.loc	59 107 32                       @ ../DetectorPostProcessing.cpp:107:32
	vadd.f32	s6, s0, s4
.Ltmp39:
	@DEBUG_VALUE: xMax <- $s6
	.loc	59 106 32                       @ ../DetectorPostProcessing.cpp:106:32
	vsub.f32	s0, s0, s4
.Ltmp40:
	@DEBUG_VALUE: xMin <- $s0
	.loc	59 121 13                       @ ../DetectorPostProcessing.cpp:121:13
	vminnm.f32	s6, s6, s16
.Ltmp41:
	@DEBUG_VALUE: xMax <- $s6
	.loc	59 111 13                       @ ../DetectorPostProcessing.cpp:111:13
	vmaxnm.f32	s0, s0, s26
.Ltmp42:
	@DEBUG_VALUE: boxX <- $s0
	@DEBUG_VALUE: xMin <- $s0
	.loc	59 126 13                       @ ../DetectorPostProcessing.cpp:126:13
	vminnm.f32	s4, s8, s20
.Ltmp43:
	@DEBUG_VALUE: yMax <- $s4
	.loc	59 116 13                       @ ../DetectorPostProcessing.cpp:116:13
	vmaxnm.f32	s2, s2, s26
.Ltmp44:
	@DEBUG_VALUE: boxY <- $s2
	@DEBUG_VALUE: yMin <- $s2
	.loc	59 133 31                       @ ../DetectorPostProcessing.cpp:133:31
	vsub.f32	s6, s6, s0
.Ltmp45:
	@DEBUG_VALUE: boxWidth <- $s6
	.loc	59 0 31 is_stmt 0               @ ../DetectorPostProcessing.cpp:0:31
	vcvt.s32.f32	s0, s0
.Ltmp46:
	.loc	59 134 32 is_stmt 1             @ ../DetectorPostProcessing.cpp:134:32
	vsub.f32	s4, s4, s2
.Ltmp47:
	@DEBUG_VALUE: boxHeight <- $s4
	.loc	59 0 32 is_stmt 0               @ ../DetectorPostProcessing.cpp:0:32
	vcvt.s32.f32	s2, s2
.Ltmp48:
	vmov	r0, s0
	vcvt.s32.f32	s0, s6
	str	r0, [sp, #28]                   @ 4-byte Spill
	movs	r5, #0
	vmov	r0, s2
	vcvt.s32.f32	s2, s4
	str	r0, [sp, #24]                   @ 4-byte Spill
	mov.w	r10, #0
	vmov	r0, s0
	ldr.w	r11, [sp, #8]                   @ 4-byte Reload
	str	r0, [sp, #20]                   @ 4-byte Spill
	vmov	r0, s2
	str	r0, [sp, #16]                   @ 4-byte Spill
	str	r4, [sp, #12]                   @ 4-byte Spill
	b	.LBB1_7
.Ltmp49:
	.p2align	2
.LBB1_5:                                @   in Loop: Header=BB1_7 Depth=2
	@DEBUG_VALUE: tmpResult <- [DW_OP_LLVM_fragment 192 32] $r10
	@DEBUG_VALUE: tmpResult <- [DW_OP_plus_uconst 16, DW_OP_LLVM_fragment 160 32] [$sp+0]
	@DEBUG_VALUE: tmpResult <- [DW_OP_plus_uconst 20, DW_OP_LLVM_fragment 128 32] [$sp+0]
	@DEBUG_VALUE: tmpResult <- [DW_OP_plus_uconst 24, DW_OP_LLVM_fragment 96 32] [$sp+0]
	@DEBUG_VALUE: tmpResult <- [DW_OP_plus_uconst 28, DW_OP_LLVM_fragment 64 32] [$sp+0]
	@DEBUG_VALUE: tmpResult <- [DW_OP_LLVM_fragment 0 64] $d14
	@DEBUG_VALUE: push_back:this <- $r7
	@DEBUG_VALUE: tmpResult <- [DW_OP_LLVM_fragment 224 32] 0
	@DEBUG_VALUE: j <- $r10
	@DEBUG_VALUE: __range2 <- [DW_OP_plus_uconst 32, DW_OP_stack_value] $sp
	@DEBUG_VALUE: __end2 <- 0
	@DEBUG_VALUE: RunPostProcessing:imgSrcRows <- [DW_OP_plus_uconst 24] [$sp+0]
	@DEBUG_VALUE: RunPostProcessing:imgNetCols <- [DW_OP_plus_uconst 20] [$sp+0]
	@DEBUG_VALUE: RunPostProcessing:imgNetRows <- [DW_OP_plus_uconst 28] [$sp+0]
	@DEBUG_VALUE: RunPostProcessing:resultsOut <- [DW_OP_plus_uconst 168] [$sp+0]
	@DEBUG_VALUE: RunPostProcessing:modelOutput0 <- [DW_OP_plus_uconst 164] [$sp+0]
	@DEBUG_VALUE: RunPostProcessing:imgSrcCols <- [DW_OP_plus_uconst 160] [$sp+0]
	@DEBUG_VALUE: __construct_one_at_end<const arm::app::object_detection::DetectionResult &>:this <- $r7
	@DEBUG_VALUE: __construct_one_at_end<const arm::app::object_detection::DetectionResult &>:__args <- undef
	@DEBUG_VALUE: __construct_one_at_end<const arm::app::object_detection::DetectionResult &>:__tx <- [DW_OP_LLVM_fragment 0 32] $r7
	@DEBUG_VALUE: __construct_one_at_end<const arm::app::object_detection::DetectionResult &>:__tx <- [DW_OP_LLVM_fragment 32 32] $r0
	@DEBUG_VALUE: __construct_one_at_end<const arm::app::object_detection::DetectionResult &>:__tx <- [DW_OP_plus_uconst 32, DW_OP_stack_value, DW_OP_LLVM_fragment 64 32] $r0
	@DEBUG_VALUE: construct<arm::app::object_detection::DetectionResult, const arm::app::object_detection::DetectionResult &, void>:__a <- [DW_OP_plus_uconst 8, DW_OP_stack_value] $r7
	@DEBUG_VALUE: construct<arm::app::object_detection::DetectionResult, const arm::app::object_detection::DetectionResult &, void>:__p <- $r0
	@DEBUG_VALUE: construct<arm::app::object_detection::DetectionResult, const arm::app::object_detection::DetectionResult &, void>:__args <- undef
	@DEBUG_VALUE: construct<arm::app::object_detection::DetectionResult, const arm::app::object_detection::DetectionResult &>:this <- [DW_OP_plus_uconst 8, DW_OP_stack_value] $r7
	@DEBUG_VALUE: construct<arm::app::object_detection::DetectionResult, const arm::app::object_detection::DetectionResult &>:__p <- $r0
	@DEBUG_VALUE: construct<arm::app::object_detection::DetectionResult, const arm::app::object_detection::DetectionResult &>:__args <- undef
	.loc	8 165 28 is_stmt 1              @ C:\Keil_v5\ARM\ARMCLANG\Bin\..\include\libcxx\__memory/allocator.h:165:28
	ldr	r1, [sp, #28]                   @ 4-byte Reload
	vstr	d14, [r0]
	str	r1, [r0, #8]
	ldr	r1, [sp, #24]                   @ 4-byte Reload
	str.w	r8, [r0, #28]
	str	r1, [r0, #12]
	ldr	r1, [sp, #20]                   @ 4-byte Reload
	str	r1, [r0, #16]
	ldr	r1, [sp, #16]                   @ 4-byte Reload
	strd	r1, r10, [r0, #20]
.Ltmp50:
	.loc	1 811 5                         @ C:\Keil_v5\ARM\ARMCLANG\Bin\..\include\libcxx\vector:811:5
	adds	r0, #32
.Ltmp51:
	@DEBUG_VALUE: ~_ConstructTransaction:this <- undef
	@DEBUG_VALUE: __construct_one_at_end<const arm::app::object_detection::DetectionResult &>:__tx <- [DW_OP_LLVM_fragment 32 32] $r0
	.loc	1 788 19                        @ C:\Keil_v5\ARM\ARMCLANG\Bin\..\include\libcxx\vector:788:19
	str	r0, [r7, #4]
.Ltmp52:
.LBB1_6:                                @   in Loop: Header=BB1_7 Depth=2
	@DEBUG_VALUE: j <- $r10
	@DEBUG_VALUE: __range2 <- [DW_OP_plus_uconst 32, DW_OP_stack_value] $sp
	@DEBUG_VALUE: __end2 <- 0
	@DEBUG_VALUE: RunPostProcessing:imgSrcRows <- [DW_OP_plus_uconst 24] [$sp+0]
	@DEBUG_VALUE: RunPostProcessing:imgNetCols <- [DW_OP_plus_uconst 20] [$sp+0]
	@DEBUG_VALUE: RunPostProcessing:imgNetRows <- [DW_OP_plus_uconst 28] [$sp+0]
	@DEBUG_VALUE: RunPostProcessing:resultsOut <- [DW_OP_plus_uconst 168] [$sp+0]
	@DEBUG_VALUE: RunPostProcessing:modelOutput0 <- [DW_OP_plus_uconst 164] [$sp+0]
	@DEBUG_VALUE: RunPostProcessing:imgSrcCols <- [DW_OP_plus_uconst 160] [$sp+0]
	@DEBUG_VALUE: tmpResult <- [DW_OP_LLVM_fragment 192 32] undef
	@DEBUG_VALUE: tmpResult <- [DW_OP_LLVM_fragment 160 32] undef
	@DEBUG_VALUE: tmpResult <- [DW_OP_LLVM_fragment 128 32] undef
	@DEBUG_VALUE: tmpResult <- [DW_OP_LLVM_fragment 96 32] undef
	@DEBUG_VALUE: tmpResult <- [DW_OP_LLVM_fragment 64 32] undef
	@DEBUG_VALUE: tmpResult <- [DW_OP_LLVM_fragment 0 64] undef
	.loc	59 136 27                       @ ../DetectorPostProcessing.cpp:136:27
	subs.w	r11, r11, #1
	.loc	59 136 45 is_stmt 0             @ ../DetectorPostProcessing.cpp:136:45
	add.w	r10, r10, #1
.Ltmp53:
	@DEBUG_VALUE: j <- $r10
	@DEBUG_VALUE: tmpResult <- [DW_OP_LLVM_fragment 64 32] undef
	@DEBUG_VALUE: tmpResult <- [DW_OP_LLVM_fragment 96 32] undef
	@DEBUG_VALUE: tmpResult <- [DW_OP_LLVM_fragment 128 32] undef
	@DEBUG_VALUE: tmpResult <- [DW_OP_LLVM_fragment 160 32] undef
	@DEBUG_VALUE: tmpResult <- [DW_OP_LLVM_fragment 192 32] undef
	.loc	59 136 27                       @ ../DetectorPostProcessing.cpp:136:27
	add.w	r5, r5, #4
.Ltmp54:
	.loc	59 136 9                        @ ../DetectorPostProcessing.cpp:136:9
	beq	.LBB1_2
.Ltmp55:
.LBB1_7:                                @   Parent Loop BB1_3 Depth=1
                                        @ =>  This Inner Loop Header: Depth=2
	@DEBUG_VALUE: __range2 <- [DW_OP_plus_uconst 32, DW_OP_stack_value] $sp
	@DEBUG_VALUE: __end2 <- 0
	@DEBUG_VALUE: RunPostProcessing:imgSrcRows <- [DW_OP_plus_uconst 24] [$sp+0]
	@DEBUG_VALUE: RunPostProcessing:imgNetCols <- [DW_OP_plus_uconst 20] [$sp+0]
	@DEBUG_VALUE: RunPostProcessing:imgNetRows <- [DW_OP_plus_uconst 28] [$sp+0]
	@DEBUG_VALUE: RunPostProcessing:resultsOut <- [DW_OP_plus_uconst 168] [$sp+0]
	@DEBUG_VALUE: RunPostProcessing:modelOutput0 <- [DW_OP_plus_uconst 164] [$sp+0]
	@DEBUG_VALUE: RunPostProcessing:imgSrcCols <- [DW_OP_plus_uconst 160] [$sp+0]
	@DEBUG_VALUE: tmpResult <- [DW_OP_LLVM_fragment 192 32] undef
	@DEBUG_VALUE: tmpResult <- [DW_OP_LLVM_fragment 160 32] undef
	@DEBUG_VALUE: tmpResult <- [DW_OP_LLVM_fragment 128 32] undef
	@DEBUG_VALUE: tmpResult <- [DW_OP_LLVM_fragment 96 32] undef
	@DEBUG_VALUE: tmpResult <- [DW_OP_LLVM_fragment 64 32] undef
	@DEBUG_VALUE: tmpResult <- [DW_OP_LLVM_fragment 0 64] undef
	@DEBUG_VALUE: j <- $r10
	@DEBUG_VALUE: operator[]:this <- [DW_OP_plus_uconst 12, DW_OP_deref_size 4, DW_OP_plus_uconst 20, DW_OP_stack_value] $sp
	@DEBUG_VALUE: operator[]:__n <- $r10
	.loc	1 1458 18 is_stmt 1             @ C:\Keil_v5\ARM\ARMCLANG\Bin\..\include\libcxx\vector:1458:18
	ldr	r0, [r4, #20]
.Ltmp56:
	.loc	59 138 17                       @ ../DetectorPostProcessing.cpp:138:17
	add	r0, r5
	vldr	s0, [r0]
.Ltmp57:
	.loc	59 138 17 is_stmt 0             @ ../DetectorPostProcessing.cpp:138:17
	vcmp.f32	s0, #0
	vmrs	APSR_nzcv, fpscr
	ble	.LBB1_6
.Ltmp58:
@ %bb.8:                                @   in Loop: Header=BB1_7 Depth=2
	@DEBUG_VALUE: j <- $r10
	@DEBUG_VALUE: __range2 <- [DW_OP_plus_uconst 32, DW_OP_stack_value] $sp
	@DEBUG_VALUE: __end2 <- 0
	@DEBUG_VALUE: RunPostProcessing:imgSrcRows <- [DW_OP_plus_uconst 24] [$sp+0]
	@DEBUG_VALUE: RunPostProcessing:imgNetCols <- [DW_OP_plus_uconst 20] [$sp+0]
	@DEBUG_VALUE: RunPostProcessing:imgNetRows <- [DW_OP_plus_uconst 28] [$sp+0]
	@DEBUG_VALUE: RunPostProcessing:resultsOut <- [DW_OP_plus_uconst 168] [$sp+0]
	@DEBUG_VALUE: RunPostProcessing:modelOutput0 <- [DW_OP_plus_uconst 164] [$sp+0]
	@DEBUG_VALUE: RunPostProcessing:imgSrcCols <- [DW_OP_plus_uconst 160] [$sp+0]
	@DEBUG_VALUE: tmpResult <- [DW_OP_LLVM_fragment 192 32] 0
	@DEBUG_VALUE: tmpResult <- [DW_OP_LLVM_fragment 160 32] 0
	@DEBUG_VALUE: tmpResult <- [DW_OP_LLVM_fragment 128 32] 0
	@DEBUG_VALUE: tmpResult <- [DW_OP_LLVM_fragment 96 32] 0
	@DEBUG_VALUE: tmpResult <- [DW_OP_LLVM_fragment 64 32] 0
	@DEBUG_VALUE: tmpResult <- [DW_OP_LLVM_fragment 0 64] 0.000000e+00
	@DEBUG_VALUE: tmpResult <- [DW_OP_LLVM_fragment 224 32] 0
	@DEBUG_VALUE: operator[]:this <- [DW_OP_plus_uconst 12, DW_OP_deref_size 4, DW_OP_plus_uconst 20, DW_OP_stack_value] $sp
	@DEBUG_VALUE: operator[]:__n <- $r10
	.loc	1 1549 15 is_stmt 1             @ C:\Keil_v5\ARM\ARMCLANG\Bin\..\include\libcxx\vector:1549:15
	ldrd	r0, r1, [r7, #4]
.Ltmp59:
	.loc	59 142 45                       @ ../DetectorPostProcessing.cpp:142:45
	vcvt.f64.f32	d14, s0
.Ltmp60:
	@DEBUG_VALUE: push_back:__x <- undef
	@DEBUG_VALUE: push_back:this <- $r7
	@DEBUG_VALUE: tmpResult <- [DW_OP_LLVM_fragment 0 64] $d14
	@DEBUG_VALUE: tmpResult <- [DW_OP_plus_uconst 28, DW_OP_LLVM_fragment 64 32] [$sp+0]
	@DEBUG_VALUE: tmpResult <- [DW_OP_plus_uconst 24, DW_OP_LLVM_fragment 96 32] [$sp+0]
	@DEBUG_VALUE: tmpResult <- [DW_OP_plus_uconst 20, DW_OP_LLVM_fragment 128 32] [$sp+0]
	@DEBUG_VALUE: tmpResult <- [DW_OP_plus_uconst 16, DW_OP_LLVM_fragment 160 32] [$sp+0]
	@DEBUG_VALUE: tmpResult <- [DW_OP_LLVM_fragment 192 32] $r10
	.loc	1 1549 9                        @ C:\Keil_v5\ARM\ARMCLANG\Bin\..\include\libcxx\vector:1549:9
	cmp	r0, r1
	bne	.LBB1_5
.Ltmp61:
@ %bb.9:                                @   in Loop: Header=BB1_7 Depth=2
	@DEBUG_VALUE: tmpResult <- [DW_OP_LLVM_fragment 192 32] $r10
	@DEBUG_VALUE: tmpResult <- [DW_OP_plus_uconst 16, DW_OP_LLVM_fragment 160 32] [$sp+0]
	@DEBUG_VALUE: tmpResult <- [DW_OP_plus_uconst 20, DW_OP_LLVM_fragment 128 32] [$sp+0]
	@DEBUG_VALUE: tmpResult <- [DW_OP_plus_uconst 24, DW_OP_LLVM_fragment 96 32] [$sp+0]
	@DEBUG_VALUE: tmpResult <- [DW_OP_plus_uconst 28, DW_OP_LLVM_fragment 64 32] [$sp+0]
	@DEBUG_VALUE: tmpResult <- [DW_OP_LLVM_fragment 0 64] $d14
	@DEBUG_VALUE: push_back:this <- $r7
	@DEBUG_VALUE: tmpResult <- [DW_OP_LLVM_fragment 224 32] 0
	@DEBUG_VALUE: j <- $r10
	@DEBUG_VALUE: __range2 <- [DW_OP_plus_uconst 32, DW_OP_stack_value] $sp
	@DEBUG_VALUE: __end2 <- 0
	@DEBUG_VALUE: RunPostProcessing:imgSrcRows <- [DW_OP_plus_uconst 24] [$sp+0]
	@DEBUG_VALUE: RunPostProcessing:imgNetCols <- [DW_OP_plus_uconst 20] [$sp+0]
	@DEBUG_VALUE: RunPostProcessing:imgNetRows <- [DW_OP_plus_uconst 28] [$sp+0]
	@DEBUG_VALUE: RunPostProcessing:resultsOut <- [DW_OP_plus_uconst 168] [$sp+0]
	@DEBUG_VALUE: RunPostProcessing:modelOutput0 <- [DW_OP_plus_uconst 164] [$sp+0]
	@DEBUG_VALUE: RunPostProcessing:imgSrcCols <- [DW_OP_plus_uconst 160] [$sp+0]
	@DEBUG_VALUE: __push_back_slow_path<const arm::app::object_detection::DetectionResult &>:this <- undef
	@DEBUG_VALUE: __push_back_slow_path<const arm::app::object_detection::DetectionResult &>:__x <- undef
	@DEBUG_VALUE: __push_back_slow_path<const arm::app::object_detection::DetectionResult &>:__a <- [DW_OP_plus_uconst 8, DW_OP_stack_value] undef
	@DEBUG_VALUE: size:this <- undef
	.loc	1 535 61                        @ C:\Keil_v5\ARM\ARMCLANG\Bin\..\include\libcxx\vector:535:61
	ldr	r6, [r7]
.Ltmp62:
	@DEBUG_VALUE: RunPostProcessing:this <- [DW_OP_LLVM_entry_value 1] $r0
	.loc	1 535 53 is_stmt 0              @ C:\Keil_v5\ARM\ARMCLANG\Bin\..\include\libcxx\vector:535:53
	subs	r7, r0, r6
.Ltmp63:
	.loc	1 1536 72 is_stmt 1             @ C:\Keil_v5\ARM\ARMCLANG\Bin\..\include\libcxx\vector:1536:72
	movs	r0, #1
	add.w	r9, r0, r7, asr #5
.Ltmp64:
	@DEBUG_VALUE: __recommend:__ms <- 134217727
	@DEBUG_VALUE: __recommend:this <- undef
	@DEBUG_VALUE: __recommend:__new_size <- $r9
	.loc	1 977 9                         @ C:\Keil_v5\ARM\ARMCLANG\Bin\..\include\libcxx\vector:977:9
	cmp.w	r9, #134217728
	bhs	.LBB1_18
.Ltmp65:
@ %bb.10:                               @   in Loop: Header=BB1_7 Depth=2
	@DEBUG_VALUE: __recommend:__new_size <- $r9
	@DEBUG_VALUE: __recommend:__ms <- 134217727
	@DEBUG_VALUE: tmpResult <- [DW_OP_LLVM_fragment 192 32] $r10
	@DEBUG_VALUE: tmpResult <- [DW_OP_plus_uconst 16, DW_OP_LLVM_fragment 160 32] [$sp+0]
	@DEBUG_VALUE: tmpResult <- [DW_OP_plus_uconst 20, DW_OP_LLVM_fragment 128 32] [$sp+0]
	@DEBUG_VALUE: tmpResult <- [DW_OP_plus_uconst 24, DW_OP_LLVM_fragment 96 32] [$sp+0]
	@DEBUG_VALUE: tmpResult <- [DW_OP_plus_uconst 28, DW_OP_LLVM_fragment 64 32] [$sp+0]
	@DEBUG_VALUE: tmpResult <- [DW_OP_LLVM_fragment 0 64] $d14
	@DEBUG_VALUE: tmpResult <- [DW_OP_LLVM_fragment 224 32] 0
	@DEBUG_VALUE: j <- $r10
	@DEBUG_VALUE: __range2 <- [DW_OP_plus_uconst 32, DW_OP_stack_value] $sp
	@DEBUG_VALUE: __end2 <- 0
	@DEBUG_VALUE: RunPostProcessing:imgSrcRows <- [DW_OP_plus_uconst 24] [$sp+0]
	@DEBUG_VALUE: RunPostProcessing:imgNetCols <- [DW_OP_plus_uconst 20] [$sp+0]
	@DEBUG_VALUE: RunPostProcessing:imgNetRows <- [DW_OP_plus_uconst 28] [$sp+0]
	@DEBUG_VALUE: RunPostProcessing:resultsOut <- [DW_OP_plus_uconst 168] [$sp+0]
	@DEBUG_VALUE: RunPostProcessing:modelOutput0 <- [DW_OP_plus_uconst 164] [$sp+0]
	@DEBUG_VALUE: RunPostProcessing:imgSrcCols <- [DW_OP_plus_uconst 160] [$sp+0]
	@DEBUG_VALUE: __recommend:__cap <- [DW_OP_constu 5, DW_OP_shra, DW_OP_stack_value] $r7
	.loc	1 980 9                         @ C:\Keil_v5\ARM\ARMCLANG\Bin\..\include\libcxx\vector:980:9
	movw	r0, #65504
	cmp.w	r9, r7, asr #4
	movt	r0, #32767
	it	lo
	asrlo.w	r9, r7, #4
.Ltmp66:
	cmp	r7, r0
	it	hs
	mvnhs	r9, #-134217728
.Ltmp67:
	@DEBUG_VALUE: __push_back_slow_path<const arm::app::object_detection::DetectionResult &>:__v <- [DW_OP_plus_uconst 8, DW_OP_stack_value, DW_OP_LLVM_fragment 128 32] undef
	@DEBUG_VALUE: __push_back_slow_path<const arm::app::object_detection::DetectionResult &>:__v <- [DW_OP_LLVM_fragment 96 32] 0
	@DEBUG_VALUE: __split_buffer:__a <- [DW_OP_plus_uconst 8, DW_OP_stack_value] undef
	@DEBUG_VALUE: __split_buffer:__start <- undef
	@DEBUG_VALUE: __split_buffer:this <- undef
	@DEBUG_VALUE: size:this <- undef
	@DEBUG_VALUE: __split_buffer:__cap <- $r9
	.loc	14 321 9                        @ C:\Keil_v5\ARM\ARMCLANG\Bin\..\include\libcxx\__split_buffer:321:9
	cmp.w	r9, #0
	beq	.LBB1_13
.Ltmp68:
@ %bb.11:                               @   in Loop: Header=BB1_7 Depth=2
	@DEBUG_VALUE: __split_buffer:__cap <- $r9
	@DEBUG_VALUE: __push_back_slow_path<const arm::app::object_detection::DetectionResult &>:__v <- [DW_OP_LLVM_fragment 96 32] 0
	@DEBUG_VALUE: tmpResult <- [DW_OP_LLVM_fragment 192 32] $r10
	@DEBUG_VALUE: tmpResult <- [DW_OP_plus_uconst 16, DW_OP_LLVM_fragment 160 32] [$sp+0]
	@DEBUG_VALUE: tmpResult <- [DW_OP_plus_uconst 20, DW_OP_LLVM_fragment 128 32] [$sp+0]
	@DEBUG_VALUE: tmpResult <- [DW_OP_plus_uconst 24, DW_OP_LLVM_fragment 96 32] [$sp+0]
	@DEBUG_VALUE: tmpResult <- [DW_OP_plus_uconst 28, DW_OP_LLVM_fragment 64 32] [$sp+0]
	@DEBUG_VALUE: tmpResult <- [DW_OP_LLVM_fragment 0 64] $d14
	@DEBUG_VALUE: tmpResult <- [DW_OP_LLVM_fragment 224 32] 0
	@DEBUG_VALUE: j <- $r10
	@DEBUG_VALUE: __range2 <- [DW_OP_plus_uconst 32, DW_OP_stack_value] $sp
	@DEBUG_VALUE: __end2 <- 0
	@DEBUG_VALUE: RunPostProcessing:imgSrcRows <- [DW_OP_plus_uconst 24] [$sp+0]
	@DEBUG_VALUE: RunPostProcessing:imgNetCols <- [DW_OP_plus_uconst 20] [$sp+0]
	@DEBUG_VALUE: RunPostProcessing:imgNetRows <- [DW_OP_plus_uconst 28] [$sp+0]
	@DEBUG_VALUE: RunPostProcessing:resultsOut <- [DW_OP_plus_uconst 168] [$sp+0]
	@DEBUG_VALUE: RunPostProcessing:modelOutput0 <- [DW_OP_plus_uconst 164] [$sp+0]
	@DEBUG_VALUE: RunPostProcessing:imgSrcCols <- [DW_OP_plus_uconst 160] [$sp+0]
	@DEBUG_VALUE: __allocate_at_least<std::__2::allocator<arm::app::object_detection::DetectionResult> >:__alloc <- undef
	@DEBUG_VALUE: __allocate_at_least<std::__2::allocator<arm::app::object_detection::DetectionResult> >:__n <- $r9
	@DEBUG_VALUE: allocate:this <- undef
	@DEBUG_VALUE: allocate:__n <- $r9
	.loc	8 107 13                        @ C:\Keil_v5\ARM\ARMCLANG\Bin\..\include\libcxx\__memory/allocator.h:107:13
	cmp.w	r9, #134217728
	bhs	.LBB1_19
.Ltmp69:
@ %bb.12:                               @   in Loop: Header=BB1_7 Depth=2
	@DEBUG_VALUE: allocate:__n <- $r9
	@DEBUG_VALUE: __allocate_at_least<std::__2::allocator<arm::app::object_detection::DetectionResult> >:__n <- $r9
	@DEBUG_VALUE: __split_buffer:__cap <- $r9
	@DEBUG_VALUE: __push_back_slow_path<const arm::app::object_detection::DetectionResult &>:__v <- [DW_OP_LLVM_fragment 96 32] 0
	@DEBUG_VALUE: tmpResult <- [DW_OP_LLVM_fragment 192 32] $r10
	@DEBUG_VALUE: tmpResult <- [DW_OP_plus_uconst 16, DW_OP_LLVM_fragment 160 32] [$sp+0]
	@DEBUG_VALUE: tmpResult <- [DW_OP_plus_uconst 20, DW_OP_LLVM_fragment 128 32] [$sp+0]
	@DEBUG_VALUE: tmpResult <- [DW_OP_plus_uconst 24, DW_OP_LLVM_fragment 96 32] [$sp+0]
	@DEBUG_VALUE: tmpResult <- [DW_OP_plus_uconst 28, DW_OP_LLVM_fragment 64 32] [$sp+0]
	@DEBUG_VALUE: tmpResult <- [DW_OP_LLVM_fragment 0 64] $d14
	@DEBUG_VALUE: tmpResult <- [DW_OP_LLVM_fragment 224 32] 0
	@DEBUG_VALUE: j <- $r10
	@DEBUG_VALUE: __range2 <- [DW_OP_plus_uconst 32, DW_OP_stack_value] $sp
	@DEBUG_VALUE: __end2 <- 0
	@DEBUG_VALUE: RunPostProcessing:imgSrcRows <- [DW_OP_plus_uconst 24] [$sp+0]
	@DEBUG_VALUE: RunPostProcessing:imgNetCols <- [DW_OP_plus_uconst 20] [$sp+0]
	@DEBUG_VALUE: RunPostProcessing:imgNetRows <- [DW_OP_plus_uconst 28] [$sp+0]
	@DEBUG_VALUE: RunPostProcessing:resultsOut <- [DW_OP_plus_uconst 168] [$sp+0]
	@DEBUG_VALUE: RunPostProcessing:modelOutput0 <- [DW_OP_plus_uconst 164] [$sp+0]
	@DEBUG_VALUE: RunPostProcessing:imgSrcCols <- [DW_OP_plus_uconst 160] [$sp+0]
	.loc	8 112 67                        @ C:\Keil_v5\ARM\ARMCLANG\Bin\..\include\libcxx\__memory/allocator.h:112:67
	lsl.w	r0, r9, #5
.Ltmp70:
	@DEBUG_VALUE: __libcpp_allocate:__align <- 8
	@DEBUG_VALUE: __libcpp_operator_new<unsigned int>:__args <- $r0
	@DEBUG_VALUE: __libcpp_allocate:__size <- $r0
	.loc	60 270 10                       @ C:\Keil_v5\ARM\ARMCLANG\Bin\..\include\libcxx\new:270:10
	bl	_Znwj
.Ltmp71:
	mov	r4, r0
.Ltmp72:
	@DEBUG_VALUE: __allocation <- [DW_OP_LLVM_fragment 32 32] $r9
	@DEBUG_VALUE: __allocation <- [DW_OP_LLVM_fragment 0 32] $r4
	@DEBUG_VALUE: __split_buffer:__cap <- $r9
	.loc	60 0 10 is_stmt 0               @ C:\Keil_v5\ARM\ARMCLANG\Bin\..\include\libcxx\new:0:10
	b	.LBB1_14
.Ltmp73:
.LBB1_13:                               @   in Loop: Header=BB1_7 Depth=2
	@DEBUG_VALUE: __split_buffer:__cap <- $r9
	@DEBUG_VALUE: __push_back_slow_path<const arm::app::object_detection::DetectionResult &>:__v <- [DW_OP_LLVM_fragment 96 32] 0
	@DEBUG_VALUE: __recommend:__cap <- [DW_OP_constu 5, DW_OP_shra, DW_OP_stack_value] $r7
	@DEBUG_VALUE: __recommend:__ms <- 134217727
	@DEBUG_VALUE: tmpResult <- [DW_OP_LLVM_fragment 192 32] $r10
	@DEBUG_VALUE: tmpResult <- [DW_OP_plus_uconst 16, DW_OP_LLVM_fragment 160 32] [$sp+0]
	@DEBUG_VALUE: tmpResult <- [DW_OP_plus_uconst 20, DW_OP_LLVM_fragment 128 32] [$sp+0]
	@DEBUG_VALUE: tmpResult <- [DW_OP_plus_uconst 24, DW_OP_LLVM_fragment 96 32] [$sp+0]
	@DEBUG_VALUE: tmpResult <- [DW_OP_plus_uconst 28, DW_OP_LLVM_fragment 64 32] [$sp+0]
	@DEBUG_VALUE: tmpResult <- [DW_OP_LLVM_fragment 0 64] $d14
	@DEBUG_VALUE: tmpResult <- [DW_OP_LLVM_fragment 224 32] 0
	@DEBUG_VALUE: j <- $r10
	@DEBUG_VALUE: __range2 <- [DW_OP_plus_uconst 32, DW_OP_stack_value] $sp
	@DEBUG_VALUE: __end2 <- 0
	@DEBUG_VALUE: RunPostProcessing:imgSrcRows <- [DW_OP_plus_uconst 24] [$sp+0]
	@DEBUG_VALUE: RunPostProcessing:imgNetCols <- [DW_OP_plus_uconst 20] [$sp+0]
	@DEBUG_VALUE: RunPostProcessing:imgNetRows <- [DW_OP_plus_uconst 28] [$sp+0]
	@DEBUG_VALUE: RunPostProcessing:resultsOut <- [DW_OP_plus_uconst 168] [$sp+0]
	@DEBUG_VALUE: RunPostProcessing:modelOutput0 <- [DW_OP_plus_uconst 164] [$sp+0]
	@DEBUG_VALUE: RunPostProcessing:imgSrcCols <- [DW_OP_plus_uconst 160] [$sp+0]
	movs	r4, #0
.Ltmp74:
.LBB1_14:                               @   in Loop: Header=BB1_7 Depth=2
	@DEBUG_VALUE: __split_buffer:__cap <- $r9
	@DEBUG_VALUE: __push_back_slow_path<const arm::app::object_detection::DetectionResult &>:__v <- [DW_OP_LLVM_fragment 96 32] 0
	@DEBUG_VALUE: tmpResult <- [DW_OP_LLVM_fragment 192 32] $r10
	@DEBUG_VALUE: tmpResult <- [DW_OP_plus_uconst 16, DW_OP_LLVM_fragment 160 32] [$sp+0]
	@DEBUG_VALUE: tmpResult <- [DW_OP_plus_uconst 20, DW_OP_LLVM_fragment 128 32] [$sp+0]
	@DEBUG_VALUE: tmpResult <- [DW_OP_plus_uconst 24, DW_OP_LLVM_fragment 96 32] [$sp+0]
	@DEBUG_VALUE: tmpResult <- [DW_OP_plus_uconst 28, DW_OP_LLVM_fragment 64 32] [$sp+0]
	@DEBUG_VALUE: tmpResult <- [DW_OP_LLVM_fragment 0 64] $d14
	@DEBUG_VALUE: tmpResult <- [DW_OP_LLVM_fragment 224 32] 0
	@DEBUG_VALUE: j <- $r10
	@DEBUG_VALUE: __range2 <- [DW_OP_plus_uconst 32, DW_OP_stack_value] $sp
	@DEBUG_VALUE: __end2 <- 0
	@DEBUG_VALUE: RunPostProcessing:imgSrcRows <- [DW_OP_plus_uconst 24] [$sp+0]
	@DEBUG_VALUE: RunPostProcessing:imgNetCols <- [DW_OP_plus_uconst 20] [$sp+0]
	@DEBUG_VALUE: RunPostProcessing:imgNetRows <- [DW_OP_plus_uconst 28] [$sp+0]
	@DEBUG_VALUE: RunPostProcessing:resultsOut <- [DW_OP_plus_uconst 168] [$sp+0]
	@DEBUG_VALUE: RunPostProcessing:modelOutput0 <- [DW_OP_plus_uconst 164] [$sp+0]
	@DEBUG_VALUE: RunPostProcessing:imgSrcCols <- [DW_OP_plus_uconst 160] [$sp+0]
	@DEBUG_VALUE: __recommend:__cap <- [DW_OP_constu 5, DW_OP_shra, DW_OP_stack_value] $r7
	asrs	r0, r7, #5
.Ltmp75:
	@DEBUG_VALUE: __push_back_slow_path<const arm::app::object_detection::DetectionResult &>:__v <- [DW_OP_LLVM_fragment 0 32] $r4
	@DEBUG_VALUE: __split_buffer:__start <- $r0
	@DEBUG_VALUE: __split_buffer:__cap <- $r9
	.file	62 "C:\\Keil_v5\\ARM\\ARMCLANG\\Bin\\..\\include\\libcxx\\__algorithm" "move.h"
	.loc	62 56 3 is_stmt 1               @ C:\Keil_v5\ARM\ARMCLANG\Bin\..\include\libcxx\__algorithm/move.h:56:3
	mov	r2, r7
.Ltmp76:
	.loc	14 328 34                       @ C:\Keil_v5\ARM\ARMCLANG\Bin\..\include\libcxx\__split_buffer:328:34
	add.w	r0, r4, r0, lsl #5
.Ltmp77:
	@DEBUG_VALUE: __push_back_slow_path<const arm::app::object_detection::DetectionResult &>:__v <- [DW_OP_LLVM_fragment 32 32] $r0
	@DEBUG_VALUE: __push_back_slow_path<const arm::app::object_detection::DetectionResult &>:__v <- [DW_OP_LLVM_fragment 64 32] $r0
	.loc	8 165 28                        @ C:\Keil_v5\ARM\ARMCLANG\Bin\..\include\libcxx\__memory/allocator.h:165:28
	ldr	r1, [sp, #28]                   @ 4-byte Reload
	vstr	d14, [r0]
	str	r1, [r0, #8]
	ldr	r1, [sp, #24]                   @ 4-byte Reload
	str.w	r8, [r0, #28]
.Ltmp78:
	.loc	1 1539 15                       @ C:\Keil_v5\ARM\ARMCLANG\Bin\..\include\libcxx\vector:1539:15
	add.w	r8, r0, #32
.Ltmp79:
	@DEBUG_VALUE: __move_impl<std::__2::_ClassicAlgPolicy, arm::app::object_detection::DetectionResult, arm::app::object_detection::DetectionResult, void>:__n <- undef
	@DEBUG_VALUE: __move_impl<std::__2::_ClassicAlgPolicy, arm::app::object_detection::DetectionResult, arm::app::object_detection::DetectionResult, void>:__result <- $r4
	@DEBUG_VALUE: __move_impl<std::__2::_ClassicAlgPolicy, arm::app::object_detection::DetectionResult, arm::app::object_detection::DetectionResult, void>:__first <- $r6
	@DEBUG_VALUE: __move_impl<std::__2::_ClassicAlgPolicy, arm::app::object_detection::DetectionResult *, arm::app::object_detection::DetectionResult *, 0>:__result_first <- $r4
	@DEBUG_VALUE: __move_impl<std::__2::_ClassicAlgPolicy, arm::app::object_detection::DetectionResult *, arm::app::object_detection::DetectionResult *, 0>:__result_base <- undef
	@DEBUG_VALUE: __move_impl<std::__2::_ClassicAlgPolicy, arm::app::object_detection::DetectionResult *, arm::app::object_detection::DetectionResult *, 0>:__last_base <- $r6
	@DEBUG_VALUE: __move_impl<std::__2::_ClassicAlgPolicy, arm::app::object_detection::DetectionResult *, arm::app::object_detection::DetectionResult *, 0>:__result <- [DW_OP_LLVM_fragment 32 32] undef
	@DEBUG_VALUE: __move_impl<std::__2::_ClassicAlgPolicy, arm::app::object_detection::DetectionResult *, arm::app::object_detection::DetectionResult *, 0>:__result <- [DW_OP_LLVM_fragment 0 32] undef
	@DEBUG_VALUE: __move_impl<std::__2::_ClassicAlgPolicy, arm::app::object_detection::DetectionResult *, arm::app::object_detection::DetectionResult *, 0>:__last <- [DW_OP_LLVM_fragment 32 32] $r6
	@DEBUG_VALUE: __move_impl<std::__2::_ClassicAlgPolicy, arm::app::object_detection::DetectionResult *, arm::app::object_detection::DetectionResult *, 0>:__last <- [DW_OP_LLVM_fragment 0 32] undef
	@DEBUG_VALUE: __move_impl<std::__2::_ClassicAlgPolicy, arm::app::object_detection::DetectionResult *, arm::app::object_detection::DetectionResult *, 0>:__first <- [DW_OP_LLVM_fragment 0 32] undef
	@DEBUG_VALUE: __move<std::__2::_ClassicAlgPolicy, std::__2::reverse_iterator<arm::app::object_detection::DetectionResult *>, std::__2::reverse_iterator<arm::app::object_detection::DetectionResult *>, std::__2::reverse_iterator<arm::app::object_detection::DetectionResult *> >:__result <- [DW_OP_LLVM_fragment 32 32] undef
	@DEBUG_VALUE: __move<std::__2::_ClassicAlgPolicy, std::__2::reverse_iterator<arm::app::object_detection::DetectionResult *>, std::__2::reverse_iterator<arm::app::object_detection::DetectionResult *>, std::__2::reverse_iterator<arm::app::object_detection::DetectionResult *> >:__result <- [DW_OP_LLVM_fragment 0 32] undef
	@DEBUG_VALUE: __move<std::__2::_ClassicAlgPolicy, std::__2::reverse_iterator<arm::app::object_detection::DetectionResult *>, std::__2::reverse_iterator<arm::app::object_detection::DetectionResult *>, std::__2::reverse_iterator<arm::app::object_detection::DetectionResult *> >:__last <- [DW_OP_LLVM_fragment 32 32] undef
	@DEBUG_VALUE: __move<std::__2::_ClassicAlgPolicy, std::__2::reverse_iterator<arm::app::object_detection::DetectionResult *>, std::__2::reverse_iterator<arm::app::object_detection::DetectionResult *>, std::__2::reverse_iterator<arm::app::object_detection::DetectionResult *> >:__last <- [DW_OP_LLVM_fragment 0 32] undef
	@DEBUG_VALUE: __move<std::__2::_ClassicAlgPolicy, std::__2::reverse_iterator<arm::app::object_detection::DetectionResult *>, std::__2::reverse_iterator<arm::app::object_detection::DetectionResult *>, std::__2::reverse_iterator<arm::app::object_detection::DetectionResult *> >:__first <- [DW_OP_LLVM_fragment 32 32] undef
	@DEBUG_VALUE: __move<std::__2::_ClassicAlgPolicy, std::__2::reverse_iterator<arm::app::object_detection::DetectionResult *>, std::__2::reverse_iterator<arm::app::object_detection::DetectionResult *>, std::__2::reverse_iterator<arm::app::object_detection::DetectionResult *> >:__first <- [DW_OP_LLVM_fragment 0 32] undef
	@DEBUG_VALUE: move<std::__2::reverse_iterator<arm::app::object_detection::DetectionResult *>, std::__2::reverse_iterator<arm::app::object_detection::DetectionResult *> >:__result <- [DW_OP_LLVM_fragment 32 32] undef
	@DEBUG_VALUE: move<std::__2::reverse_iterator<arm::app::object_detection::DetectionResult *>, std::__2::reverse_iterator<arm::app::object_detection::DetectionResult *> >:__result <- [DW_OP_LLVM_fragment 0 32] undef
	@DEBUG_VALUE: move<std::__2::reverse_iterator<arm::app::object_detection::DetectionResult *>, std::__2::reverse_iterator<arm::app::object_detection::DetectionResult *> >:__last <- [DW_OP_LLVM_fragment 32 32] undef
	@DEBUG_VALUE: move<std::__2::reverse_iterator<arm::app::object_detection::DetectionResult *>, std::__2::reverse_iterator<arm::app::object_detection::DetectionResult *> >:__last <- [DW_OP_LLVM_fragment 0 32] undef
	@DEBUG_VALUE: move<std::__2::reverse_iterator<arm::app::object_detection::DetectionResult *>, std::__2::reverse_iterator<arm::app::object_detection::DetectionResult *> >:__first <- [DW_OP_LLVM_fragment 32 32] undef
	@DEBUG_VALUE: move<std::__2::reverse_iterator<arm::app::object_detection::DetectionResult *>, std::__2::reverse_iterator<arm::app::object_detection::DetectionResult *> >:__first <- [DW_OP_LLVM_fragment 0 32] undef
	@DEBUG_VALUE: __uninitialized_allocator_move_if_noexcept<std::__2::allocator<arm::app::object_detection::DetectionResult>, std::__2::reverse_iterator<arm::app::object_detection::DetectionResult *>, std::__2::reverse_iterator<arm::app::object_detection::DetectionResult *>, arm::app::object_detection::DetectionResult, void>: <- [DW_OP_plus_uconst 8, DW_OP_stack_value] undef
	@DEBUG_VALUE: __uninitialized_allocator_move_if_noexcept<std::__2::allocator<arm::app::object_detection::DetectionResult>, std::__2::reverse_iterator<arm::app::object_detection::DetectionResult *>, std::__2::reverse_iterator<arm::app::object_detection::DetectionResult *>, arm::app::object_detection::DetectionResult, void>:__first2 <- [DW_OP_LLVM_fragment 32 32] undef
	@DEBUG_VALUE: __uninitialized_allocator_move_if_noexcept<std::__2::allocator<arm::app::object_detection::DetectionResult>, std::__2::reverse_iterator<arm::app::object_detection::DetectionResult *>, std::__2::reverse_iterator<arm::app::object_detection::DetectionResult *>, arm::app::object_detection::DetectionResult, void>:__first2 <- [DW_OP_LLVM_fragment 0 32] undef
	@DEBUG_VALUE: __uninitialized_allocator_move_if_noexcept<std::__2::allocator<arm::app::object_detection::DetectionResult>, std::__2::reverse_iterator<arm::app::object_detection::DetectionResult *>, std::__2::reverse_iterator<arm::app::object_detection::DetectionResult *>, arm::app::object_detection::DetectionResult, void>:__last1 <- [DW_OP_LLVM_fragment 32 32] undef
	@DEBUG_VALUE: __uninitialized_allocator_move_if_noexcept<std::__2::allocator<arm::app::object_detection::DetectionResult>, std::__2::reverse_iterator<arm::app::object_detection::DetectionResult *>, std::__2::reverse_iterator<arm::app::object_detection::DetectionResult *>, arm::app::object_detection::DetectionResult, void>:__last1 <- [DW_OP_LLVM_fragment 0 32] undef
	@DEBUG_VALUE: __uninitialized_allocator_move_if_noexcept<std::__2::allocator<arm::app::object_detection::DetectionResult>, std::__2::reverse_iterator<arm::app::object_detection::DetectionResult *>, std::__2::reverse_iterator<arm::app::object_detection::DetectionResult *>, arm::app::object_detection::DetectionResult, void>:__first1 <- [DW_OP_LLVM_fragment 32 32] undef
	@DEBUG_VALUE: __uninitialized_allocator_move_if_noexcept<std::__2::allocator<arm::app::object_detection::DetectionResult>, std::__2::reverse_iterator<arm::app::object_detection::DetectionResult *>, std::__2::reverse_iterator<arm::app::object_detection::DetectionResult *>, arm::app::object_detection::DetectionResult, void>:__first1 <- [DW_OP_LLVM_fragment 0 32] undef
	@DEBUG_VALUE: __swap_out_circular_buffer:__v <- undef
	@DEBUG_VALUE: __swap_out_circular_buffer:this <- undef
	@DEBUG_VALUE: __push_back_slow_path<const arm::app::object_detection::DetectionResult &>:__v <- [DW_OP_LLVM_fragment 64 32] $r8
	.loc	8 165 28                        @ C:\Keil_v5\ARM\ARMCLANG\Bin\..\include\libcxx\__memory/allocator.h:165:28
	str	r1, [r0, #12]
	ldr	r1, [sp, #20]                   @ 4-byte Reload
.Ltmp80:
	.loc	14 329 28                       @ C:\Keil_v5\ARM\ARMCLANG\Bin\..\include\libcxx\__split_buffer:329:28
	add.w	r9, r4, r9, lsl #5
.Ltmp81:
	@DEBUG_VALUE: construct<arm::app::object_detection::DetectionResult, const arm::app::object_detection::DetectionResult &>:__args <- undef
	@DEBUG_VALUE: construct<arm::app::object_detection::DetectionResult, const arm::app::object_detection::DetectionResult &>:__p <- $r0
	@DEBUG_VALUE: construct<arm::app::object_detection::DetectionResult, const arm::app::object_detection::DetectionResult &>:this <- [DW_OP_plus_uconst 8, DW_OP_stack_value] undef
	@DEBUG_VALUE: construct<arm::app::object_detection::DetectionResult, const arm::app::object_detection::DetectionResult &, void>:__args <- undef
	@DEBUG_VALUE: construct<arm::app::object_detection::DetectionResult, const arm::app::object_detection::DetectionResult &, void>:__p <- $r0
	@DEBUG_VALUE: construct<arm::app::object_detection::DetectionResult, const arm::app::object_detection::DetectionResult &, void>:__a <- [DW_OP_plus_uconst 8, DW_OP_stack_value] undef
	@DEBUG_VALUE: __push_back_slow_path<const arm::app::object_detection::DetectionResult &>:__v <- [DW_OP_LLVM_fragment 96 32] $r9
	.loc	8 165 28                        @ C:\Keil_v5\ARM\ARMCLANG\Bin\..\include\libcxx\__memory/allocator.h:165:28
	str	r1, [r0, #16]
	ldr	r1, [sp, #16]                   @ 4-byte Reload
	strd	r1, r10, [r0, #20]
.Ltmp82:
	.loc	62 56 3                         @ C:\Keil_v5\ARM\ARMCLANG\Bin\..\include\libcxx\__algorithm/move.h:56:3
	mov	r0, r4
.Ltmp83:
	mov	r1, r6
	bl	__aeabi_memmove8
.Ltmp84:
	@DEBUG_VALUE: ~__split_buffer:this <- undef
	@DEBUG_VALUE: swap<arm::app::object_detection::DetectionResult *>:__t <- undef
	@DEBUG_VALUE: swap<arm::app::object_detection::DetectionResult *>:__y <- undef
	@DEBUG_VALUE: swap<arm::app::object_detection::DetectionResult *>:__t <- undef
	@DEBUG_VALUE: swap<arm::app::object_detection::DetectionResult *>:__y <- undef
	@DEBUG_VALUE: swap<arm::app::object_detection::DetectionResult *>:__y <- undef
	@DEBUG_VALUE: __move<std::__2::_ClassicAlgPolicy, std::__2::reverse_iterator<arm::app::object_detection::DetectionResult *>, std::__2::reverse_iterator<arm::app::object_detection::DetectionResult *>, std::__2::reverse_iterator<arm::app::object_detection::DetectionResult *> >:__ret <- [DW_OP_LLVM_fragment 96 32] $r4
	@DEBUG_VALUE: __move<std::__2::_ClassicAlgPolicy, std::__2::reverse_iterator<arm::app::object_detection::DetectionResult *>, std::__2::reverse_iterator<arm::app::object_detection::DetectionResult *>, std::__2::reverse_iterator<arm::app::object_detection::DetectionResult *> >:__ret <- [DW_OP_LLVM_fragment 64 32] $r4
	@DEBUG_VALUE: __move<std::__2::_ClassicAlgPolicy, std::__2::reverse_iterator<arm::app::object_detection::DetectionResult *>, std::__2::reverse_iterator<arm::app::object_detection::DetectionResult *>, std::__2::reverse_iterator<arm::app::object_detection::DetectionResult *> >:__ret <- [DW_OP_LLVM_fragment 0 32] undef
	@DEBUG_VALUE: __push_back_slow_path<const arm::app::object_detection::DetectionResult &>:__v <- [DW_OP_LLVM_fragment 32 32] $r6
	@DEBUG_VALUE: __push_back_slow_path<const arm::app::object_detection::DetectionResult &>:__v <- [DW_OP_LLVM_fragment 64 32] undef
	@DEBUG_VALUE: __push_back_slow_path<const arm::app::object_detection::DetectionResult &>:__v <- [DW_OP_LLVM_fragment 0 32] $r6
	@DEBUG_VALUE: __push_back_slow_path<const arm::app::object_detection::DetectionResult &>:__v <- [DW_OP_LLVM_fragment 96 32] undef
	.loc	62 0 3 is_stmt 0                @ C:\Keil_v5\ARM\ARMCLANG\Bin\..\include\libcxx\__algorithm/move.h:0:3
	ldr	r7, [sp, #168]
.Ltmp85:
	@DEBUG_VALUE: swap<arm::app::object_detection::DetectionResult *>:__t <- $r6
	@DEBUG_VALUE: swap<arm::app::object_detection::DetectionResult *>:__x <- $r7
	@DEBUG_VALUE: __uninitialized_allocator_move_if_noexcept<std::__2::allocator<arm::app::object_detection::DetectionResult>, std::__2::reverse_iterator<arm::app::object_detection::DetectionResult *>, std::__2::reverse_iterator<arm::app::object_detection::DetectionResult *>, arm::app::object_detection::DetectionResult, void>: <- [DW_OP_plus_uconst 8, DW_OP_stack_value] $r7
	@DEBUG_VALUE: __swap_out_circular_buffer:this <- $r7
	@DEBUG_VALUE: swap<arm::app::object_detection::DetectionResult *>:__x <- [DW_OP_plus_uconst 4, DW_OP_stack_value] $r7
	.loc	14 362 9 is_stmt 1              @ C:\Keil_v5\ARM\ARMCLANG\Bin\..\include\libcxx\__split_buffer:362:9
	cmp	r6, #0
.Ltmp86:
	@DEBUG_VALUE: __move<std::__2::_ClassicAlgPolicy, std::__2::reverse_iterator<arm::app::object_detection::DetectionResult *>, std::__2::reverse_iterator<arm::app::object_detection::DetectionResult *>, std::__2::reverse_iterator<arm::app::object_detection::DetectionResult *> >:__ret <- [DW_OP_LLVM_fragment 32 32] $r6
	@DEBUG_VALUE: __move_impl<std::__2::_ClassicAlgPolicy, arm::app::object_detection::DetectionResult, arm::app::object_detection::DetectionResult, void>:__last <- undef
	@DEBUG_VALUE: __move_impl<std::__2::_ClassicAlgPolicy, arm::app::object_detection::DetectionResult *, arm::app::object_detection::DetectionResult *, 0>:__first_base <- undef
	@DEBUG_VALUE: __move_impl<std::__2::_ClassicAlgPolicy, arm::app::object_detection::DetectionResult *, arm::app::object_detection::DetectionResult *, 0>:__first <- [DW_OP_LLVM_fragment 32 32] undef
	@DEBUG_VALUE: swap<arm::app::object_detection::DetectionResult *>:__x <- [DW_OP_plus_uconst 8, DW_OP_stack_value] $r7
	.file	63 "C:\\Keil_v5\\ARM\\ARMCLANG\\Bin\\..\\include\\libcxx\\__utility" "swap.h"
	.loc	63 36 7                         @ C:\Keil_v5\ARM\ARMCLANG\Bin\..\include\libcxx\__utility/swap.h:36:7
	strd	r4, r8, [r7]
	ldr	r4, [sp, #12]                   @ 4-byte Reload
.Ltmp87:
	@DEBUG_VALUE: deallocate:__a <- undef
	@DEBUG_VALUE: deallocate:__p <- $r6
	@DEBUG_VALUE: deallocate:__n <- [DW_OP_LLVM_arg 0, DW_OP_LLVM_arg 1, DW_OP_minus, DW_OP_constu 5, DW_OP_shra, DW_OP_stack_value] undef, undef
	@DEBUG_VALUE: deallocate:this <- undef
	@DEBUG_VALUE: deallocate:__p <- $r6
	@DEBUG_VALUE: deallocate:__n <- [DW_OP_LLVM_arg 0, DW_OP_LLVM_arg 1, DW_OP_minus, DW_OP_constu 5, DW_OP_shra, DW_OP_stack_value] undef, undef
	@DEBUG_VALUE: __libcpp_deallocate:__ptr <- $r6
	@DEBUG_VALUE: __libcpp_deallocate:__size <- [DW_OP_LLVM_arg 0, DW_OP_LLVM_arg 1, DW_OP_minus, DW_OP_constu 5, DW_OP_shra, DW_OP_constu 5, DW_OP_shl, DW_OP_stack_value] undef, undef
	@DEBUG_VALUE: __libcpp_deallocate:__align <- 8
	@DEBUG_VALUE: __do_deallocate_handle_size<>:__ptr <- $r6
	@DEBUG_VALUE: __do_deallocate_handle_size<>:__size <- [DW_OP_LLVM_arg 0, DW_OP_LLVM_arg 1, DW_OP_minus, DW_OP_constu 5, DW_OP_shra, DW_OP_constu 5, DW_OP_shl, DW_OP_stack_value] undef, undef
	@DEBUG_VALUE: __libcpp_operator_delete<void *>:__args <- $r6
	.loc	63 0 7 is_stmt 0                @ C:\Keil_v5\ARM\ARMCLANG\Bin\..\include\libcxx\__utility/swap.h:0:7
	mov.w	r8, #0
.Ltmp88:
	.loc	63 36 7                         @ C:\Keil_v5\ARM\ARMCLANG\Bin\..\include\libcxx\__utility/swap.h:36:7
	str.w	r9, [r7, #8]
.Ltmp89:
	.loc	60 280 3 is_stmt 1              @ C:\Keil_v5\ARM\ARMCLANG\Bin\..\include\libcxx\new:280:3
	itt	ne
	movne	r0, r6
.Ltmp90:
	@DEBUG_VALUE: __move_impl<std::__2::_ClassicAlgPolicy, arm::app::object_detection::DetectionResult, arm::app::object_detection::DetectionResult, void>:__first <- $r0
	@DEBUG_VALUE: __move_impl<std::__2::_ClassicAlgPolicy, arm::app::object_detection::DetectionResult, arm::app::object_detection::DetectionResult, void>:__first <- $r0
	blne	_ZdlPv
.Ltmp91:
	.loc	60 0 3 is_stmt 0                @ C:\Keil_v5\ARM\ARMCLANG\Bin\..\include\libcxx\new:0:3
	b	.LBB1_6
.Ltmp92:
.LBB1_15:
	@DEBUG_VALUE: RunPostProcessing:imgSrcRows <- [DW_OP_plus_uconst 24] [$sp+0]
	@DEBUG_VALUE: RunPostProcessing:imgNetCols <- [DW_OP_plus_uconst 20] [$sp+0]
	@DEBUG_VALUE: RunPostProcessing:imgNetRows <- [DW_OP_plus_uconst 28] [$sp+0]
	@DEBUG_VALUE: RunPostProcessing:resultsOut <- [DW_OP_plus_uconst 168] [$sp+0]
	@DEBUG_VALUE: RunPostProcessing:modelOutput0 <- [DW_OP_plus_uconst 164] [$sp+0]
	@DEBUG_VALUE: RunPostProcessing:imgSrcCols <- [DW_OP_plus_uconst 160] [$sp+0]
	.loc	18 645 49 is_stmt 1             @ C:\Keil_v5\ARM\ARMCLANG\Bin\..\include\libcxx\forward_list:645:49
	ldr	r4, [sp, #32]
.Ltmp93:
	@DEBUG_VALUE: clear:__a <- [DW_OP_plus_uconst 32, DW_OP_stack_value] $sp
	@DEBUG_VALUE: clear:this <- [DW_OP_plus_uconst 32, DW_OP_stack_value] $sp
	@DEBUG_VALUE: ~__forward_list_base:this <- [DW_OP_plus_uconst 32, DW_OP_stack_value] $sp
	@DEBUG_VALUE: __p <- $r4
	.loc	18 0 49 is_stmt 0               @ C:\Keil_v5\ARM\ARMCLANG\Bin\..\include\libcxx\forward_list:0:49
	ldr	r7, [sp, #4]                    @ 4-byte Reload
	.loc	18 645 5                        @ C:\Keil_v5\ARM\ARMCLANG\Bin\..\include\libcxx\forward_list:645:5
	cbz	r4, .LBB1_17
.Ltmp94:
	.p2align	2
.LBB1_16:                               @ =>This Inner Loop Header: Depth=1
	@DEBUG_VALUE: __p <- $r4
	@DEBUG_VALUE: ~__forward_list_base:this <- [DW_OP_plus_uconst 32, DW_OP_stack_value] $sp
	@DEBUG_VALUE: clear:this <- [DW_OP_plus_uconst 32, DW_OP_stack_value] $sp
	@DEBUG_VALUE: clear:__a <- [DW_OP_plus_uconst 32, DW_OP_stack_value] $sp
	@DEBUG_VALUE: RunPostProcessing:imgSrcRows <- [DW_OP_plus_uconst 24] [$sp+0]
	@DEBUG_VALUE: RunPostProcessing:imgNetCols <- [DW_OP_plus_uconst 20] [$sp+0]
	@DEBUG_VALUE: RunPostProcessing:imgNetRows <- [DW_OP_plus_uconst 28] [$sp+0]
	@DEBUG_VALUE: RunPostProcessing:resultsOut <- [DW_OP_plus_uconst 168] [$sp+0]
	@DEBUG_VALUE: RunPostProcessing:modelOutput0 <- [DW_OP_plus_uconst 164] [$sp+0]
	@DEBUG_VALUE: RunPostProcessing:imgSrcCols <- [DW_OP_plus_uconst 160] [$sp+0]
	@DEBUG_VALUE: __p <- $r4
	.loc	1 431 17 is_stmt 1              @ C:\Keil_v5\ARM\ARMCLANG\Bin\..\include\libcxx\vector:431:17
	ldr	r0, [r4, #20]
.Ltmp95:
	.loc	18 647 38                       @ C:\Keil_v5\ARM\ARMCLANG\Bin\..\include\libcxx\forward_list:647:38
	ldr	r5, [r4]
.Ltmp96:
	@DEBUG_VALUE: ~vector:this <- [DW_OP_plus_uconst 20, DW_OP_stack_value] $r4
	@DEBUG_VALUE: ~Detection:this <- [DW_OP_plus_uconst 4, DW_OP_stack_value] $r4
	@DEBUG_VALUE: destroy<arm::app::image::Detection, void, void>:__p <- [DW_OP_plus_uconst 4, DW_OP_stack_value] $r4
	@DEBUG_VALUE: destroy<arm::app::image::Detection, void, void>: <- [DW_OP_plus_uconst 32, DW_OP_stack_value] $sp
	@DEBUG_VALUE: __next <- $r5
	.loc	1 431 11                        @ C:\Keil_v5\ARM\ARMCLANG\Bin\..\include\libcxx\vector:431:11
	cmp	r0, #0
	@DEBUG_VALUE: destroy<arm::app::image::Detection, void, void>:__p <- [DW_OP_plus_uconst 4, DW_OP_stack_value] $r4
	@DEBUG_VALUE: ~Detection:this <- [DW_OP_plus_uconst 4, DW_OP_stack_value] $r4
.Ltmp97:
	@DEBUG_VALUE: __base_destruct_at_end:__new_last <- $r0
	@DEBUG_VALUE: __base_destruct_at_end:__soon_to_be_end <- [DW_OP_constu 4, DW_OP_minus, DW_OP_stack_value] undef
	.loc	1 835 18                        @ C:\Keil_v5\ARM\ARMCLANG\Bin\..\include\libcxx\vector:835:18
	itt	ne
	strne	r0, [r4, #24]
.Ltmp98:
	@DEBUG_VALUE: __libcpp_operator_delete<void *>:__args <- $r0
	@DEBUG_VALUE: __do_deallocate_handle_size<>:__size <- [DW_OP_LLVM_arg 0, DW_OP_LLVM_arg 1, DW_OP_minus, DW_OP_constu 2, DW_OP_shra, DW_OP_constu 2, DW_OP_shl, DW_OP_stack_value] undef, undef
	@DEBUG_VALUE: __do_deallocate_handle_size<>:__ptr <- $r0
	@DEBUG_VALUE: __libcpp_deallocate:__align <- 4
	@DEBUG_VALUE: __libcpp_deallocate:__size <- [DW_OP_LLVM_arg 0, DW_OP_LLVM_arg 1, DW_OP_minus, DW_OP_constu 2, DW_OP_shra, DW_OP_constu 2, DW_OP_shl, DW_OP_stack_value] undef, undef
	@DEBUG_VALUE: __libcpp_deallocate:__ptr <- $r0
	@DEBUG_VALUE: deallocate:__n <- [DW_OP_LLVM_arg 0, DW_OP_LLVM_arg 1, DW_OP_minus, DW_OP_constu 2, DW_OP_shra, DW_OP_stack_value] undef, undef
	@DEBUG_VALUE: deallocate:__p <- $r0
	@DEBUG_VALUE: deallocate:__n <- [DW_OP_LLVM_arg 0, DW_OP_LLVM_arg 1, DW_OP_minus, DW_OP_constu 2, DW_OP_shra, DW_OP_stack_value] undef, undef
	@DEBUG_VALUE: deallocate:__p <- $r0
	.loc	60 280 3                        @ C:\Keil_v5\ARM\ARMCLANG\Bin\..\include\libcxx\new:280:3
	blne	_ZdlPv
.Ltmp99:
	@DEBUG_VALUE: deallocate:this <- [DW_OP_plus_uconst 20, DW_OP_plus_uconst 8, DW_OP_stack_value] $r4
	@DEBUG_VALUE: deallocate:__a <- [DW_OP_plus_uconst 20, DW_OP_plus_uconst 8, DW_OP_stack_value] $r4
	@DEBUG_VALUE: __base_destruct_at_end:this <- [DW_OP_plus_uconst 20, DW_OP_stack_value] $r4
	@DEBUG_VALUE: __clear:this <- [DW_OP_plus_uconst 20, DW_OP_stack_value] $r4
	@DEBUG_VALUE: deallocate:__a <- [DW_OP_plus_uconst 32, DW_OP_stack_value] $sp
	@DEBUG_VALUE: deallocate:__p <- $r4
	@DEBUG_VALUE: deallocate:__n <- 1
	@DEBUG_VALUE: deallocate:this <- [DW_OP_plus_uconst 32, DW_OP_stack_value] $sp
	@DEBUG_VALUE: deallocate:__p <- $r4
	@DEBUG_VALUE: deallocate:__n <- 1
	@DEBUG_VALUE: __libcpp_deallocate:__ptr <- $r4
	@DEBUG_VALUE: __libcpp_deallocate:__size <- [DW_OP_constu 36, DW_OP_mul, DW_OP_stack_value] 1
	@DEBUG_VALUE: __libcpp_deallocate:__align <- 4
	@DEBUG_VALUE: __do_deallocate_handle_size<>:__ptr <- $r4
	@DEBUG_VALUE: __do_deallocate_handle_size<>:__size <- [DW_OP_constu 36, DW_OP_mul, DW_OP_stack_value] 1
	@DEBUG_VALUE: __libcpp_operator_delete<void *>:__args <- $r4
	.loc	60 280 3 is_stmt 0              @ C:\Keil_v5\ARM\ARMCLANG\Bin\..\include\libcxx\new:280:3
	mov	r0, r4
.Ltmp100:
	@DEBUG_VALUE: __p <- $r0
	bl	_ZdlPv
.Ltmp101:
	@DEBUG_VALUE: __p <- $r5
	.loc	60 0 3                          @ C:\Keil_v5\ARM\ARMCLANG\Bin\..\include\libcxx\new:0:3
	mov	r4, r5
.Ltmp102:
	@DEBUG_VALUE: __next <- $r4
	@DEBUG_VALUE: __p <- $r4
	.loc	18 645 5 is_stmt 1              @ C:\Keil_v5\ARM\ARMCLANG\Bin\..\include\libcxx\forward_list:645:5
	cbz	r5, .LBB1_17
	le	.LBB1_16
.Ltmp103:
.LBB1_17:
	@DEBUG_VALUE: RunPostProcessing:imgSrcRows <- [DW_OP_plus_uconst 24] [$sp+0]
	@DEBUG_VALUE: RunPostProcessing:imgNetCols <- [DW_OP_plus_uconst 20] [$sp+0]
	@DEBUG_VALUE: RunPostProcessing:imgNetRows <- [DW_OP_plus_uconst 28] [$sp+0]
	@DEBUG_VALUE: RunPostProcessing:resultsOut <- [DW_OP_plus_uconst 168] [$sp+0]
	@DEBUG_VALUE: RunPostProcessing:modelOutput0 <- [DW_OP_plus_uconst 164] [$sp+0]
	@DEBUG_VALUE: RunPostProcessing:imgSrcCols <- [DW_OP_plus_uconst 160] [$sp+0]
	@DEBUG_VALUE: ~Network:this <- [DW_OP_plus_uconst 36, DW_OP_stack_value] $sp
	@DEBUG_VALUE: __base_destruct_at_end:__new_last <- $r7
	@DEBUG_VALUE: __base_destruct_at_end:__soon_to_be_end <- [DW_OP_constu 20, DW_OP_minus, DW_OP_stack_value] undef
	@DEBUG_VALUE: deallocate:__p <- $r7
	@DEBUG_VALUE: deallocate:__n <- [DW_OP_LLVM_arg 0, DW_OP_LLVM_arg 1, DW_OP_minus, DW_OP_constu 20, DW_OP_div, DW_OP_stack_value] undef, undef
	@DEBUG_VALUE: deallocate:__p <- $r7
	@DEBUG_VALUE: deallocate:__n <- [DW_OP_LLVM_arg 0, DW_OP_LLVM_arg 1, DW_OP_minus, DW_OP_constu 20, DW_OP_div, DW_OP_stack_value] undef, undef
	@DEBUG_VALUE: __libcpp_deallocate:__ptr <- $r7
	@DEBUG_VALUE: __libcpp_deallocate:__size <- [DW_OP_LLVM_arg 0, DW_OP_LLVM_arg 1, DW_OP_minus, DW_OP_constu 20, DW_OP_div, DW_OP_constu 20, DW_OP_mul, DW_OP_stack_value] undef, undef
	@DEBUG_VALUE: __libcpp_deallocate:__align <- 4
	@DEBUG_VALUE: __do_deallocate_handle_size<>:__ptr <- $r7
	@DEBUG_VALUE: __do_deallocate_handle_size<>:__size <- [DW_OP_LLVM_arg 0, DW_OP_LLVM_arg 1, DW_OP_minus, DW_OP_constu 20, DW_OP_div, DW_OP_constu 20, DW_OP_mul, DW_OP_stack_value] undef, undef
	@DEBUG_VALUE: __libcpp_operator_delete<void *>:__args <- $r7
	.loc	60 280 3                        @ C:\Keil_v5\ARM\ARMCLANG\Bin\..\include\libcxx\new:280:3
	mov	r0, r7
.Ltmp104:
	@DEBUG_VALUE: __base_destruct_at_end:__new_last <- $r0
	bl	_ZdlPv
.Ltmp105:
	@DEBUG_VALUE: deallocate:this <- [DW_OP_plus_uconst 36, DW_OP_plus_uconst 12, DW_OP_plus_uconst 8, DW_OP_stack_value] $sp
	@DEBUG_VALUE: deallocate:__a <- [DW_OP_plus_uconst 36, DW_OP_plus_uconst 12, DW_OP_plus_uconst 8, DW_OP_stack_value] $sp
	@DEBUG_VALUE: __base_destruct_at_end:this <- [DW_OP_plus_uconst 36, DW_OP_plus_uconst 12, DW_OP_stack_value] $sp
	@DEBUG_VALUE: __clear:this <- [DW_OP_plus_uconst 36, DW_OP_plus_uconst 12, DW_OP_stack_value] $sp
	@DEBUG_VALUE: ~vector:this <- [DW_OP_plus_uconst 36, DW_OP_plus_uconst 12, DW_OP_stack_value] $sp
	.loc	59 157 1                        @ ../DetectorPostProcessing.cpp:157:1
	add	sp, #64
	vpop	{d8, d9, d10, d11, d12, d13, d14}
	add	sp, #4
	pop.w	{r4, r5, r6, r7, r8, r9, r10, r11, pc}
.Ltmp106:
.LBB1_18:
	@DEBUG_VALUE: __recommend:__new_size <- $r9
	@DEBUG_VALUE: __recommend:__ms <- 134217727
	@DEBUG_VALUE: tmpResult <- [DW_OP_LLVM_fragment 192 32] $r10
	@DEBUG_VALUE: tmpResult <- [DW_OP_plus_uconst 16, DW_OP_LLVM_fragment 160 32] [$sp+0]
	@DEBUG_VALUE: tmpResult <- [DW_OP_plus_uconst 20, DW_OP_LLVM_fragment 128 32] [$sp+0]
	@DEBUG_VALUE: tmpResult <- [DW_OP_plus_uconst 24, DW_OP_LLVM_fragment 96 32] [$sp+0]
	@DEBUG_VALUE: tmpResult <- [DW_OP_plus_uconst 28, DW_OP_LLVM_fragment 64 32] [$sp+0]
	@DEBUG_VALUE: tmpResult <- [DW_OP_LLVM_fragment 0 64] $d14
	@DEBUG_VALUE: tmpResult <- [DW_OP_LLVM_fragment 224 32] 0
	@DEBUG_VALUE: j <- $r10
	@DEBUG_VALUE: __range2 <- [DW_OP_plus_uconst 32, DW_OP_stack_value] $sp
	@DEBUG_VALUE: __end2 <- 0
	@DEBUG_VALUE: RunPostProcessing:imgSrcRows <- [DW_OP_plus_uconst 24] [$sp+0]
	@DEBUG_VALUE: RunPostProcessing:imgNetCols <- [DW_OP_plus_uconst 20] [$sp+0]
	@DEBUG_VALUE: RunPostProcessing:imgNetRows <- [DW_OP_plus_uconst 28] [$sp+0]
	@DEBUG_VALUE: RunPostProcessing:resultsOut <- [DW_OP_plus_uconst 168] [$sp+0]
	@DEBUG_VALUE: RunPostProcessing:modelOutput0 <- [DW_OP_plus_uconst 164] [$sp+0]
	@DEBUG_VALUE: RunPostProcessing:imgSrcCols <- [DW_OP_plus_uconst 160] [$sp+0]
	@DEBUG_VALUE: __throw_length_error:this <- undef
	.file	64 "C:\\Keil_v5\\ARM\\ARMCLANG\\Bin\\..\\include\\libcxx" "stdexcept"
	.loc	64 260 5                        @ C:\Keil_v5\ARM\ARMCLANG\Bin\..\include\libcxx\stdexcept:260:5
	bl	abort
.Ltmp107:
.LBB1_19:
	@DEBUG_VALUE: allocate:__n <- $r9
	@DEBUG_VALUE: __allocate_at_least<std::__2::allocator<arm::app::object_detection::DetectionResult> >:__n <- $r9
	@DEBUG_VALUE: __split_buffer:__cap <- $r9
	@DEBUG_VALUE: __push_back_slow_path<const arm::app::object_detection::DetectionResult &>:__v <- [DW_OP_LLVM_fragment 96 32] 0
	@DEBUG_VALUE: tmpResult <- [DW_OP_LLVM_fragment 192 32] $r10
	@DEBUG_VALUE: tmpResult <- [DW_OP_plus_uconst 16, DW_OP_LLVM_fragment 160 32] [$sp+0]
	@DEBUG_VALUE: tmpResult <- [DW_OP_plus_uconst 20, DW_OP_LLVM_fragment 128 32] [$sp+0]
	@DEBUG_VALUE: tmpResult <- [DW_OP_plus_uconst 24, DW_OP_LLVM_fragment 96 32] [$sp+0]
	@DEBUG_VALUE: tmpResult <- [DW_OP_plus_uconst 28, DW_OP_LLVM_fragment 64 32] [$sp+0]
	@DEBUG_VALUE: tmpResult <- [DW_OP_LLVM_fragment 0 64] $d14
	@DEBUG_VALUE: tmpResult <- [DW_OP_LLVM_fragment 224 32] 0
	@DEBUG_VALUE: j <- $r10
	@DEBUG_VALUE: __range2 <- [DW_OP_plus_uconst 32, DW_OP_stack_value] $sp
	@DEBUG_VALUE: __end2 <- 0
	@DEBUG_VALUE: RunPostProcessing:imgSrcRows <- [DW_OP_plus_uconst 24] [$sp+0]
	@DEBUG_VALUE: RunPostProcessing:imgNetCols <- [DW_OP_plus_uconst 20] [$sp+0]
	@DEBUG_VALUE: RunPostProcessing:imgNetRows <- [DW_OP_plus_uconst 28] [$sp+0]
	@DEBUG_VALUE: RunPostProcessing:resultsOut <- [DW_OP_plus_uconst 168] [$sp+0]
	@DEBUG_VALUE: RunPostProcessing:modelOutput0 <- [DW_OP_plus_uconst 164] [$sp+0]
	@DEBUG_VALUE: RunPostProcessing:imgSrcCols <- [DW_OP_plus_uconst 160] [$sp+0]
	.loc	8 108 13                        @ C:\Keil_v5\ARM\ARMCLANG\Bin\..\include\libcxx\__memory/allocator.h:108:13
	bl	_ZSt28__throw_bad_array_new_lengthB6v16000v
.Ltmp108:
	.p2align	2
@ %bb.20:
	.loc	8 0 13 is_stmt 0                @ C:\Keil_v5\ARM\ARMCLANG\Bin\..\include\libcxx\__memory/allocator.h:0:13
.LCPI1_0:
	.long	0x00000000                      @ float 0
.Lfunc_end1:
	.size	_ZN3arm3app16object_detection22DetectorPostprocessing17RunPostProcessingEjjjjP12TfLiteTensorRNSt3__26vectorINS1_15DetectionResultENS5_9allocatorIS7_EEEE, .Lfunc_end1-_ZN3arm3app16object_detection22DetectorPostprocessing17RunPostProcessingEjjjjP12TfLiteTensorRNSt3__26vectorINS1_15DetectionResultENS5_9allocatorIS7_EEEE
	.cfi_endproc
	.file	65 "C:\\Keil_v5\\ARM\\ARMCLANG\\Bin\\..\\include\\libcxx\\__memory" "allocate_at_least.h"
	.file	66 "C:\\Keil_v5\\ARM\\ARMCLANG\\Bin\\..\\include\\libcxx\\__memory" "uninitialized_algorithms.h"
	.file	67 "C:\\Keil_v5\\ARM\\ARMCLANG\\Bin\\..\\include\\libcxx\\__type_traits" "enable_if.h"
	.file	68 "C:\\Keil_v5\\ARM\\ARMCLANG\\Bin\\..\\include\\libcxx\\__algorithm" "unwrap_iter.h"
	.file	69 "<stdin>"
	.cantunwind
	.fnend
                                        @ -- End function
	.section	.text._ZN3arm3app16object_detection22DetectorPostprocessing15GetNetworkBoxesERNS1_7NetworkEiifRNSt3__212forward_listINS0_5image9DetectionENS5_9allocatorIS8_EEEE,"ax",%progbits
	.hidden	_ZN3arm3app16object_detection22DetectorPostprocessing15GetNetworkBoxesERNS1_7NetworkEiifRNSt3__212forward_listINS0_5image9DetectionENS5_9allocatorIS8_EEEE @ -- Begin function _ZN3arm3app16object_detection22DetectorPostprocessing15GetNetworkBoxesERNS1_7NetworkEiifRNSt3__212forward_listINS0_5image9DetectionENS5_9allocatorIS8_EEEE
	.globl	_ZN3arm3app16object_detection22DetectorPostprocessing15GetNetworkBoxesERNS1_7NetworkEiifRNSt3__212forward_listINS0_5image9DetectionENS5_9allocatorIS8_EEEE
	.p2align	2
	.type	_ZN3arm3app16object_detection22DetectorPostprocessing15GetNetworkBoxesERNS1_7NetworkEiifRNSt3__212forward_listINS0_5image9DetectionENS5_9allocatorIS8_EEEE,%function
	.code	16                              @ @_ZN3arm3app16object_detection22DetectorPostprocessing15GetNetworkBoxesERNS1_7NetworkEiifRNSt3__212forward_listINS0_5image9DetectionENS5_9allocatorIS8_EEEE
	.thumb_func
_ZN3arm3app16object_detection22DetectorPostprocessing15GetNetworkBoxesERNS1_7NetworkEiifRNSt3__212forward_listINS0_5image9DetectionENS5_9allocatorIS8_EEEE:
.Lfunc_begin2:
	.loc	59 181 0 is_stmt 1              @ ../DetectorPostProcessing.cpp:181:0
	.fnstart
	.cfi_startproc
@ %bb.0:
	@DEBUG_VALUE: GetNetworkBoxes:this <- $r0
	@DEBUG_VALUE: GetNetworkBoxes:net <- $r1
	@DEBUG_VALUE: GetNetworkBoxes:threshold <- $s0
	.save	{r4, r5, r6, r7, r8, r9, r10, r11, lr}
	push.w	{r4, r5, r6, r7, r8, r9, r10, r11, lr}
	.cfi_def_cfa_offset 36
	.cfi_offset lr, -4
	.cfi_offset r11, -8
	.cfi_offset r10, -12
	.cfi_offset r9, -16
	.cfi_offset r8, -20
	.cfi_offset r7, -24
	.cfi_offset r6, -28
	.cfi_offset r5, -32
	.cfi_offset r4, -36
	.pad	#4
	sub	sp, #4
	.cfi_def_cfa_offset 40
	.vsave	{d8, d9, d10, d11, d12, d13, d14, d15}
	vpush	{d8, d9, d10, d11, d12, d13, d14, d15}
	.cfi_def_cfa_offset 104
	.cfi_offset d15, -48
	.cfi_offset d14, -56
	.cfi_offset d13, -64
	.cfi_offset d12, -72
	.cfi_offset d11, -80
	.cfi_offset d10, -88
	.cfi_offset d9, -96
	.cfi_offset d8, -104
	.pad	#80
	sub	sp, #80
	.cfi_def_cfa_offset 184
.Ltmp109:
	@DEBUG_VALUE: GetNetworkBoxes:detections <- [DW_OP_plus_uconst 184] [$sp+0]
	ldr	r0, [sp, #184]
.Ltmp110:
	@DEBUG_VALUE: GetNetworkBoxes:this <- [DW_OP_LLVM_entry_value 1] $r0
	mov	r5, r1
.Ltmp111:
	@DEBUG_VALUE: GetNetworkBoxes:net <- $r5
	@DEBUG_VALUE: GetNetworkBoxes:net <- $r5
	vmov.f32	s16, s0
.Ltmp112:
	@DEBUG_VALUE: GetNetworkBoxes:threshold <- $s16
	@DEBUG_VALUE: GetNetworkBoxes:threshold <- $s16
	mov.w	lr, #0
	movs	r3, #3
	adr.w	r10, .LCPI2_0
	@DEBUG_VALUE: __begin2 <- [DW_OP_LLVM_arg 0, DW_OP_LLVM_arg 0, DW_OP_constu 4, DW_OP_mul, DW_OP_plus, DW_OP_stack_value] undef
.Ltmp113:
	@DEBUG_VALUE: GetNetworkBoxes:wsizes <- [DW_OP_LLVM_fragment 64 32] 0
	@DEBUG_VALUE: GetNetworkBoxes:wsizes <- [DW_OP_LLVM_fragment 32 32] 0
	@DEBUG_VALUE: GetNetworkBoxes:wsizes <- [DW_OP_LLVM_fragment 0 32] 0
	@DEBUG_VALUE: GetNetworkBoxes:hsizes <- [DW_OP_LLVM_fragment 64 32] 0
	@DEBUG_VALUE: GetNetworkBoxes:hsizes <- [DW_OP_LLVM_fragment 32 32] 0
	@DEBUG_VALUE: GetNetworkBoxes:hsizes <- [DW_OP_LLVM_fragment 0 32] 0
	@DEBUG_VALUE: GetNetworkBoxes:imageHeight <- undef
	@DEBUG_VALUE: GetNetworkBoxes:imageWidth <- undef
	@DEBUG_VALUE: __end2 <- [DW_OP_plus_uconst 12, DW_OP_stack_value] $r10
	@DEBUG_VALUE: __range2 <- $r10
	movs	r6, #0
	mov.w	r12, #0
	mov.w	r8, #0
	movs	r1, #0
	movs	r7, #0
	str	r0, [sp, #24]                   @ 4-byte Spill
	str	r5, [sp, #44]                   @ 4-byte Spill
.Ltmp114:
	@DEBUG_VALUE: GetNetworkBoxes:net <- [DW_OP_plus_uconst 44] [$sp+0]
	b	.LBB2_3
.Ltmp115:
	.p2align	2
.LBB2_1:                                @   in Loop: Header=BB2_3 Depth=1
	@DEBUG_VALUE: stride <- $r8
	@DEBUG_VALUE: GetNetworkBoxes:hsizes <- [DW_OP_LLVM_fragment 64 32] $lr
	@DEBUG_VALUE: GetNetworkBoxes:hsizes <- [DW_OP_LLVM_fragment 32 32] $r6
	@DEBUG_VALUE: GetNetworkBoxes:hsizes <- [DW_OP_LLVM_fragment 0 32] $r12
	@DEBUG_VALUE: GetNetworkBoxes:net <- [DW_OP_plus_uconst 44] [$sp+0]
	@DEBUG_VALUE: GetNetworkBoxes:threshold <- $s16
	@DEBUG_VALUE: GetNetworkBoxes:this <- [DW_OP_LLVM_entry_value 1] $r0
	@DEBUG_VALUE: GetNetworkBoxes:detections <- [DW_OP_plus_uconst 184] [$sp+0]
	@DEBUG_VALUE: __construct_one_at_end<int>:this <- undef
	@DEBUG_VALUE: __construct_one_at_end<int>:__args <- undef
	@DEBUG_VALUE: __construct_one_at_end<int>:__tx <- [DW_OP_LLVM_fragment 0 32] undef
	@DEBUG_VALUE: __construct_one_at_end<int>:__tx <- [DW_OP_LLVM_fragment 32 32] $r1
	@DEBUG_VALUE: __construct_one_at_end<int>:__tx <- [DW_OP_plus_uconst 4, DW_OP_stack_value, DW_OP_LLVM_fragment 64 32] $r1
	@DEBUG_VALUE: construct<int, int, void>:__a <- [DW_OP_plus_uconst 8, DW_OP_stack_value] undef
	@DEBUG_VALUE: construct<int, int, void>:__p <- $r1
	@DEBUG_VALUE: construct<int, int, void>:__args <- undef
	@DEBUG_VALUE: construct<int, int>:this <- [DW_OP_plus_uconst 8, DW_OP_stack_value] undef
	@DEBUG_VALUE: construct<int, int>:__p <- $r1
	@DEBUG_VALUE: construct<int, int>:__args <- undef
	ldr.w	r8, [sp, #40]                   @ 4-byte Reload
.Ltmp116:
	.loc	8 165 9 prologue_end            @ C:\Keil_v5\ARM\ARMCLANG\Bin\..\include\libcxx\__memory/allocator.h:165:9
	str	r9, [r1], #4
.Ltmp117:
	@DEBUG_VALUE: __construct_one_at_end<int>:__tx <- [DW_OP_LLVM_fragment 32 32] $r1
	@DEBUG_VALUE: GetNetworkBoxes:wsizes <- [DW_OP_LLVM_fragment 32 32] $r1
.LBB2_2:                                @   in Loop: Header=BB2_3 Depth=1
	@DEBUG_VALUE: GetNetworkBoxes:net <- [DW_OP_plus_uconst 44] [$sp+0]
	@DEBUG_VALUE: GetNetworkBoxes:threshold <- $s16
	@DEBUG_VALUE: GetNetworkBoxes:this <- [DW_OP_LLVM_entry_value 1] $r0
	@DEBUG_VALUE: GetNetworkBoxes:detections <- [DW_OP_plus_uconst 184] [$sp+0]
	@DEBUG_VALUE: GetNetworkBoxes:hsizes <- [DW_OP_LLVM_fragment 0 32] $r12
	@DEBUG_VALUE: GetNetworkBoxes:hsizes <- [DW_OP_LLVM_fragment 32 32] $r6
	@DEBUG_VALUE: GetNetworkBoxes:hsizes <- [DW_OP_LLVM_fragment 64 32] $lr
	@DEBUG_VALUE: GetNetworkBoxes:wsizes <- [DW_OP_LLVM_fragment 0 32] $r8
	@DEBUG_VALUE: GetNetworkBoxes:wsizes <- [DW_OP_LLVM_fragment 32 32] $r1
	@DEBUG_VALUE: GetNetworkBoxes:wsizes <- [DW_OP_LLVM_fragment 64 32] $r7
	@DEBUG_VALUE: __begin2 <- [DW_OP_LLVM_arg 0, DW_OP_LLVM_arg 0, DW_OP_consts 3, DW_OP_minus, DW_OP_consts 18446744073709551615, DW_OP_div, DW_OP_consts 1, DW_OP_plus, DW_OP_constu 4, DW_OP_mul, DW_OP_plus, DW_OP_stack_value] undef
	.loc	59 191 21                       @ ../DetectorPostProcessing.cpp:191:21
	subs	r3, #1
	add.w	r10, r10, #4
	beq.w	.LBB2_18
.Ltmp118:
.LBB2_3:                                @ =>This Inner Loop Header: Depth=1
	@DEBUG_VALUE: GetNetworkBoxes:net <- [DW_OP_plus_uconst 44] [$sp+0]
	@DEBUG_VALUE: GetNetworkBoxes:threshold <- $s16
	@DEBUG_VALUE: GetNetworkBoxes:this <- [DW_OP_LLVM_entry_value 1] $r0
	@DEBUG_VALUE: GetNetworkBoxes:detections <- [DW_OP_plus_uconst 184] [$sp+0]
	@DEBUG_VALUE: GetNetworkBoxes:hsizes <- [DW_OP_LLVM_fragment 0 32] $r12
	@DEBUG_VALUE: GetNetworkBoxes:hsizes <- [DW_OP_LLVM_fragment 32 32] $r6
	@DEBUG_VALUE: GetNetworkBoxes:hsizes <- [DW_OP_LLVM_fragment 64 32] $lr
	@DEBUG_VALUE: GetNetworkBoxes:wsizes <- [DW_OP_LLVM_fragment 0 32] $r8
	@DEBUG_VALUE: GetNetworkBoxes:wsizes <- [DW_OP_LLVM_fragment 32 32] $r1
	@DEBUG_VALUE: GetNetworkBoxes:wsizes <- [DW_OP_LLVM_fragment 64 32] $r7
	@DEBUG_VALUE: __begin2 <- [DW_OP_LLVM_arg 0, DW_OP_consts 3, DW_OP_minus, DW_OP_consts 18446744073709551615, DW_OP_div, DW_OP_consts 4, DW_OP_mul, DW_OP_LLVM_arg 0, DW_OP_plus, DW_OP_stack_value] undef
	.loc	59 191 21 is_stmt 0             @ ../DetectorPostProcessing.cpp:191:21
	vldr	s0, [r10]
.Ltmp119:
	.loc	59 193 30 is_stmt 1             @ ../DetectorPostProcessing.cpp:193:30
	ldr	r0, [r5, #4]
.Ltmp120:
	.loc	59 191 21                       @ ../DetectorPostProcessing.cpp:191:21
	vcvt.s32.f32	s0, s0
	str.w	r8, [sp, #40]                   @ 4-byte Spill
.Ltmp121:
	@DEBUG_VALUE: GetNetworkBoxes:wsizes <- [DW_OP_plus_uconst 40, DW_OP_LLVM_fragment 0 32] [$sp+0]
	@DEBUG_VALUE: GetNetworkBoxes:wsizes <- [DW_OP_plus_uconst 40, DW_OP_LLVM_fragment 0 32] [$sp+0]
	@DEBUG_VALUE: GetNetworkBoxes:wsizes <- [DW_OP_plus_uconst 40, DW_OP_LLVM_fragment 0 32] [$sp+0]
	@DEBUG_VALUE: GetNetworkBoxes:wsizes <- [DW_OP_LLVM_fragment 0 32] undef
	vmov	r8, s0
.Ltmp122:
	@DEBUG_VALUE: stride <- $r8
	.loc	59 193 42                       @ ../DetectorPostProcessing.cpp:193:42
	sdiv	r9, r0, r8
.Ltmp123:
	@DEBUG_VALUE: push_back:__x <- undef
	@DEBUG_VALUE: push_back:this <- undef
	.loc	1 1563 9                        @ C:\Keil_v5\ARM\ARMCLANG\Bin\..\include\libcxx\vector:1563:9
	cmp	r6, lr
	bhs	.LBB2_5
.Ltmp124:
@ %bb.4:                                @   in Loop: Header=BB2_3 Depth=1
	@DEBUG_VALUE: stride <- $r8
	@DEBUG_VALUE: GetNetworkBoxes:wsizes <- [DW_OP_LLVM_fragment 64 32] $r7
	@DEBUG_VALUE: GetNetworkBoxes:wsizes <- [DW_OP_LLVM_fragment 32 32] $r1
	@DEBUG_VALUE: GetNetworkBoxes:hsizes <- [DW_OP_LLVM_fragment 64 32] $lr
	@DEBUG_VALUE: GetNetworkBoxes:hsizes <- [DW_OP_LLVM_fragment 32 32] $r6
	@DEBUG_VALUE: GetNetworkBoxes:hsizes <- [DW_OP_LLVM_fragment 0 32] $r12
	@DEBUG_VALUE: GetNetworkBoxes:net <- [DW_OP_plus_uconst 44] [$sp+0]
	@DEBUG_VALUE: GetNetworkBoxes:threshold <- $s16
	@DEBUG_VALUE: GetNetworkBoxes:this <- [DW_OP_LLVM_entry_value 1] $r0
	@DEBUG_VALUE: GetNetworkBoxes:detections <- [DW_OP_plus_uconst 184] [$sp+0]
	@DEBUG_VALUE: __construct_one_at_end<int>:this <- undef
	@DEBUG_VALUE: __construct_one_at_end<int>:__args <- undef
	@DEBUG_VALUE: __construct_one_at_end<int>:__tx <- [DW_OP_LLVM_fragment 0 32] undef
	@DEBUG_VALUE: __construct_one_at_end<int>:__tx <- [DW_OP_LLVM_fragment 32 32] $r6
	@DEBUG_VALUE: __construct_one_at_end<int>:__tx <- [DW_OP_plus_uconst 4, DW_OP_stack_value, DW_OP_LLVM_fragment 64 32] $r6
	@DEBUG_VALUE: construct<int, int, void>:__a <- [DW_OP_plus_uconst 8, DW_OP_stack_value] undef
	@DEBUG_VALUE: construct<int, int, void>:__p <- $r6
	@DEBUG_VALUE: construct<int, int, void>:__args <- undef
	@DEBUG_VALUE: construct<int, int>:this <- [DW_OP_plus_uconst 8, DW_OP_stack_value] undef
	@DEBUG_VALUE: construct<int, int>:__p <- $r6
	@DEBUG_VALUE: construct<int, int>:__args <- undef
	.loc	8 165 9                         @ C:\Keil_v5\ARM\ARMCLANG\Bin\..\include\libcxx\__memory/allocator.h:165:9
	str	r9, [r6], #4
.Ltmp125:
	@DEBUG_VALUE: __construct_one_at_end<int>:__tx <- [DW_OP_LLVM_fragment 32 32] $r6
	@DEBUG_VALUE: GetNetworkBoxes:hsizes <- [DW_OP_LLVM_fragment 32 32] $r6
	.loc	8 0 9 is_stmt 0                 @ C:\Keil_v5\ARM\ARMCLANG\Bin\..\include\libcxx\__memory/allocator.h:0:9
	b	.LBB2_11
.Ltmp126:
	.p2align	2
.LBB2_5:                                @   in Loop: Header=BB2_3 Depth=1
	@DEBUG_VALUE: stride <- $r8
	@DEBUG_VALUE: GetNetworkBoxes:wsizes <- [DW_OP_LLVM_fragment 64 32] $r7
	@DEBUG_VALUE: GetNetworkBoxes:wsizes <- [DW_OP_LLVM_fragment 32 32] $r1
	@DEBUG_VALUE: GetNetworkBoxes:hsizes <- [DW_OP_LLVM_fragment 64 32] $lr
	@DEBUG_VALUE: GetNetworkBoxes:hsizes <- [DW_OP_LLVM_fragment 32 32] $r6
	@DEBUG_VALUE: GetNetworkBoxes:hsizes <- [DW_OP_LLVM_fragment 0 32] $r12
	@DEBUG_VALUE: GetNetworkBoxes:net <- [DW_OP_plus_uconst 44] [$sp+0]
	@DEBUG_VALUE: GetNetworkBoxes:threshold <- $s16
	@DEBUG_VALUE: GetNetworkBoxes:this <- [DW_OP_LLVM_entry_value 1] $r0
	@DEBUG_VALUE: GetNetworkBoxes:detections <- [DW_OP_plus_uconst 184] [$sp+0]
	@DEBUG_VALUE: __push_back_slow_path<int>:this <- undef
	@DEBUG_VALUE: __push_back_slow_path<int>:__x <- undef
	@DEBUG_VALUE: __push_back_slow_path<int>:__a <- [DW_OP_plus_uconst 8, DW_OP_stack_value] undef
	@DEBUG_VALUE: size:this <- undef
	.loc	1 535 53 is_stmt 1              @ C:\Keil_v5\ARM\ARMCLANG\Bin\..\include\libcxx\vector:535:53
	sub.w	r5, r6, r12
.Ltmp127:
	.loc	1 1536 72                       @ C:\Keil_v5\ARM\ARMCLANG\Bin\..\include\libcxx\vector:1536:72
	movs	r0, #1
	add.w	r0, r0, r5, asr #2
.Ltmp128:
	@DEBUG_VALUE: __recommend:__ms <- 1073741823
	@DEBUG_VALUE: __recommend:this <- undef
	@DEBUG_VALUE: __recommend:__new_size <- $r0
	.loc	1 0 72 is_stmt 0                @ C:\Keil_v5\ARM\ARMCLANG\Bin\..\include\libcxx\vector:0:72
	strd	r1, r7, [sp, #32]               @ 8-byte Folded Spill
.Ltmp129:
	.loc	1 977 9 is_stmt 1               @ C:\Keil_v5\ARM\ARMCLANG\Bin\..\include\libcxx\vector:977:9
	cmp.w	r0, #1073741824
	bhs.w	.LBB2_69
.Ltmp130:
@ %bb.6:                                @   in Loop: Header=BB2_3 Depth=1
	@DEBUG_VALUE: __recommend:__new_size <- $r0
	@DEBUG_VALUE: __recommend:__ms <- 1073741823
	@DEBUG_VALUE: stride <- $r8
	@DEBUG_VALUE: GetNetworkBoxes:wsizes <- [DW_OP_LLVM_fragment 64 32] $r7
	@DEBUG_VALUE: GetNetworkBoxes:wsizes <- [DW_OP_LLVM_fragment 32 32] $r1
	@DEBUG_VALUE: GetNetworkBoxes:hsizes <- [DW_OP_LLVM_fragment 64 32] $lr
	@DEBUG_VALUE: GetNetworkBoxes:hsizes <- [DW_OP_LLVM_fragment 32 32] $r6
	@DEBUG_VALUE: GetNetworkBoxes:hsizes <- [DW_OP_LLVM_fragment 0 32] $r12
	@DEBUG_VALUE: GetNetworkBoxes:net <- [DW_OP_plus_uconst 44] [$sp+0]
	@DEBUG_VALUE: GetNetworkBoxes:threshold <- $s16
	@DEBUG_VALUE: GetNetworkBoxes:this <- [DW_OP_LLVM_entry_value 1] $r0
	@DEBUG_VALUE: GetNetworkBoxes:detections <- [DW_OP_plus_uconst 184] [$sp+0]
	@DEBUG_VALUE: capacity:this <- undef
	.loc	1 538 52                        @ C:\Keil_v5\ARM\ARMCLANG\Bin\..\include\libcxx\vector:538:52
	sub.w	r1, lr, r12
.Ltmp131:
	@DEBUG_VALUE: __recommend:__cap <- [DW_OP_constu 2, DW_OP_shra, DW_OP_stack_value] $r1
	.loc	1 980 9                         @ C:\Keil_v5\ARM\ARMCLANG\Bin\..\include\libcxx\vector:980:9
	movw	r2, #65532
	cmp.w	r0, r1, asr #1
	movt	r2, #32767
	it	lo
	asrlo	r0, r1, #1
.Ltmp132:
	cmp	r1, r2
	mov	r7, r12
.Ltmp133:
	@DEBUG_VALUE: GetNetworkBoxes:hsizes <- [DW_OP_LLVM_fragment 0 32] $r7
	@DEBUG_VALUE: GetNetworkBoxes:hsizes <- [DW_OP_LLVM_fragment 0 32] $r7
	mvn	r1, #-1073741824
.Ltmp134:
	csel	r11, r0, r1, lo
.Ltmp135:
	@DEBUG_VALUE: __push_back_slow_path<int>:__v <- [DW_OP_plus_uconst 8, DW_OP_stack_value, DW_OP_LLVM_fragment 128 32] undef
	@DEBUG_VALUE: __push_back_slow_path<int>:__v <- [DW_OP_LLVM_fragment 96 32] 0
	@DEBUG_VALUE: __split_buffer:__a <- [DW_OP_plus_uconst 8, DW_OP_stack_value] undef
	@DEBUG_VALUE: __split_buffer:__start <- undef
	@DEBUG_VALUE: __split_buffer:this <- undef
	@DEBUG_VALUE: size:this <- undef
	@DEBUG_VALUE: __split_buffer:__cap <- $r11
	.loc	14 321 9                        @ C:\Keil_v5\ARM\ARMCLANG\Bin\..\include\libcxx\__split_buffer:321:9
	cmp.w	r11, #0
	beq	.LBB2_9
.Ltmp136:
@ %bb.7:                                @   in Loop: Header=BB2_3 Depth=1
	@DEBUG_VALUE: __split_buffer:__cap <- $r11
	@DEBUG_VALUE: __push_back_slow_path<int>:__v <- [DW_OP_LLVM_fragment 96 32] 0
	@DEBUG_VALUE: GetNetworkBoxes:hsizes <- [DW_OP_LLVM_fragment 0 32] $r7
	@DEBUG_VALUE: stride <- $r8
	@DEBUG_VALUE: GetNetworkBoxes:hsizes <- [DW_OP_LLVM_fragment 64 32] $lr
	@DEBUG_VALUE: GetNetworkBoxes:hsizes <- [DW_OP_LLVM_fragment 32 32] $r6
	@DEBUG_VALUE: GetNetworkBoxes:net <- [DW_OP_plus_uconst 44] [$sp+0]
	@DEBUG_VALUE: GetNetworkBoxes:threshold <- $s16
	@DEBUG_VALUE: GetNetworkBoxes:this <- [DW_OP_LLVM_entry_value 1] $r0
	@DEBUG_VALUE: GetNetworkBoxes:detections <- [DW_OP_plus_uconst 184] [$sp+0]
	@DEBUG_VALUE: __allocate_at_least<std::__2::allocator<int> >:__alloc <- undef
	@DEBUG_VALUE: __allocate_at_least<std::__2::allocator<int> >:__n <- $r11
	@DEBUG_VALUE: allocate:this <- undef
	@DEBUG_VALUE: allocate:__n <- $r11
	.loc	8 107 13                        @ C:\Keil_v5\ARM\ARMCLANG\Bin\..\include\libcxx\__memory/allocator.h:107:13
	cmp.w	r11, #1073741824
	bhs.w	.LBB2_70
.Ltmp137:
@ %bb.8:                                @   in Loop: Header=BB2_3 Depth=1
	@DEBUG_VALUE: allocate:__n <- $r11
	@DEBUG_VALUE: __allocate_at_least<std::__2::allocator<int> >:__n <- $r11
	@DEBUG_VALUE: __split_buffer:__cap <- $r11
	@DEBUG_VALUE: __push_back_slow_path<int>:__v <- [DW_OP_LLVM_fragment 96 32] 0
	@DEBUG_VALUE: GetNetworkBoxes:hsizes <- [DW_OP_LLVM_fragment 0 32] $r7
	@DEBUG_VALUE: stride <- $r8
	@DEBUG_VALUE: GetNetworkBoxes:hsizes <- [DW_OP_LLVM_fragment 64 32] $lr
	@DEBUG_VALUE: GetNetworkBoxes:hsizes <- [DW_OP_LLVM_fragment 32 32] $r6
	@DEBUG_VALUE: GetNetworkBoxes:net <- [DW_OP_plus_uconst 44] [$sp+0]
	@DEBUG_VALUE: GetNetworkBoxes:threshold <- $s16
	@DEBUG_VALUE: GetNetworkBoxes:this <- [DW_OP_LLVM_entry_value 1] $r0
	@DEBUG_VALUE: GetNetworkBoxes:detections <- [DW_OP_plus_uconst 184] [$sp+0]
	.loc	8 112 67                        @ C:\Keil_v5\ARM\ARMCLANG\Bin\..\include\libcxx\__memory/allocator.h:112:67
	lsl.w	r0, r11, #2
.Ltmp138:
	@DEBUG_VALUE: __libcpp_allocate:__align <- 4
	@DEBUG_VALUE: __libcpp_operator_new<unsigned int>:__args <- $r0
	@DEBUG_VALUE: __libcpp_allocate:__size <- $r0
	.loc	8 0 67 is_stmt 0                @ C:\Keil_v5\ARM\ARMCLANG\Bin\..\include\libcxx\__memory/allocator.h:0:67
	mov	r4, r3
.Ltmp139:
	.loc	60 270 10 is_stmt 1             @ C:\Keil_v5\ARM\ARMCLANG\Bin\..\include\libcxx\new:270:10
	bl	_Znwj
.Ltmp140:
	mov	r6, r0
.Ltmp141:
	@DEBUG_VALUE: __allocation <- [DW_OP_LLVM_fragment 32 32] $r11
	@DEBUG_VALUE: __allocation <- [DW_OP_LLVM_fragment 0 32] $r6
	@DEBUG_VALUE: __split_buffer:__cap <- $r11
	.loc	60 0 10 is_stmt 0               @ C:\Keil_v5\ARM\ARMCLANG\Bin\..\include\libcxx\new:0:10
	b	.LBB2_10
.Ltmp142:
.LBB2_9:                                @   in Loop: Header=BB2_3 Depth=1
	@DEBUG_VALUE: __split_buffer:__cap <- $r11
	@DEBUG_VALUE: __push_back_slow_path<int>:__v <- [DW_OP_LLVM_fragment 96 32] 0
	@DEBUG_VALUE: GetNetworkBoxes:hsizes <- [DW_OP_LLVM_fragment 0 32] $r7
	@DEBUG_VALUE: __recommend:__ms <- 1073741823
	@DEBUG_VALUE: stride <- $r8
	@DEBUG_VALUE: GetNetworkBoxes:hsizes <- [DW_OP_LLVM_fragment 64 32] $lr
	@DEBUG_VALUE: GetNetworkBoxes:hsizes <- [DW_OP_LLVM_fragment 32 32] $r6
	@DEBUG_VALUE: GetNetworkBoxes:net <- [DW_OP_plus_uconst 44] [$sp+0]
	@DEBUG_VALUE: GetNetworkBoxes:threshold <- $s16
	@DEBUG_VALUE: GetNetworkBoxes:this <- [DW_OP_LLVM_entry_value 1] $r0
	@DEBUG_VALUE: GetNetworkBoxes:detections <- [DW_OP_plus_uconst 184] [$sp+0]
	mov	r4, r3
	movs	r6, #0
.Ltmp143:
.LBB2_10:                               @   in Loop: Header=BB2_3 Depth=1
	@DEBUG_VALUE: __split_buffer:__cap <- $r11
	@DEBUG_VALUE: __push_back_slow_path<int>:__v <- [DW_OP_LLVM_fragment 96 32] 0
	@DEBUG_VALUE: GetNetworkBoxes:hsizes <- [DW_OP_LLVM_fragment 0 32] $r7
	@DEBUG_VALUE: stride <- $r8
	@DEBUG_VALUE: GetNetworkBoxes:net <- [DW_OP_plus_uconst 44] [$sp+0]
	@DEBUG_VALUE: GetNetworkBoxes:threshold <- $s16
	@DEBUG_VALUE: GetNetworkBoxes:this <- [DW_OP_LLVM_entry_value 1] $r0
	@DEBUG_VALUE: GetNetworkBoxes:detections <- [DW_OP_plus_uconst 184] [$sp+0]
	asrs	r0, r5, #2
.Ltmp144:
	@DEBUG_VALUE: __push_back_slow_path<int>:__v <- [DW_OP_LLVM_fragment 0 32] $r6
	@DEBUG_VALUE: __split_buffer:__start <- $r0
	@DEBUG_VALUE: __split_buffer:__cap <- $r11
	.loc	62 56 3 is_stmt 1               @ C:\Keil_v5\ARM\ARMCLANG\Bin\..\include\libcxx\__algorithm/move.h:56:3
	mov	r1, r7
.Ltmp145:
	.loc	14 328 34                       @ C:\Keil_v5\ARM\ARMCLANG\Bin\..\include\libcxx\__split_buffer:328:34
	add.w	r0, r6, r0, lsl #2
.Ltmp146:
	@DEBUG_VALUE: __push_back_slow_path<int>:__v <- [DW_OP_LLVM_fragment 32 32] $r0
	@DEBUG_VALUE: __push_back_slow_path<int>:__v <- [DW_OP_LLVM_fragment 64 32] $r0
	.loc	62 56 3                         @ C:\Keil_v5\ARM\ARMCLANG\Bin\..\include\libcxx\__algorithm/move.h:56:3
	mov	r2, r5
.Ltmp147:
	.loc	8 165 9                         @ C:\Keil_v5\ARM\ARMCLANG\Bin\..\include\libcxx\__memory/allocator.h:165:9
	str	r9, [r0], #4
.Ltmp148:
	@DEBUG_VALUE: __move_impl<std::__2::_ClassicAlgPolicy, int, int, void>:__n <- undef
	@DEBUG_VALUE: __move_impl<std::__2::_ClassicAlgPolicy, int *, int *, 0>:__result <- [DW_OP_LLVM_fragment 0 32] undef
	@DEBUG_VALUE: __move_impl<std::__2::_ClassicAlgPolicy, int *, int *, 0>:__last <- [DW_OP_LLVM_fragment 0 32] undef
	@DEBUG_VALUE: __move_impl<std::__2::_ClassicAlgPolicy, int *, int *, 0>:__first <- [DW_OP_LLVM_fragment 0 32] undef
	@DEBUG_VALUE: __move<std::__2::_ClassicAlgPolicy, std::__2::reverse_iterator<int *>, std::__2::reverse_iterator<int *>, std::__2::reverse_iterator<int *> >:__result <- [DW_OP_LLVM_fragment 32 32] undef
	@DEBUG_VALUE: __move<std::__2::_ClassicAlgPolicy, std::__2::reverse_iterator<int *>, std::__2::reverse_iterator<int *>, std::__2::reverse_iterator<int *> >:__result <- [DW_OP_LLVM_fragment 0 32] undef
	@DEBUG_VALUE: __move<std::__2::_ClassicAlgPolicy, std::__2::reverse_iterator<int *>, std::__2::reverse_iterator<int *>, std::__2::reverse_iterator<int *> >:__last <- [DW_OP_LLVM_fragment 32 32] undef
	@DEBUG_VALUE: __move<std::__2::_ClassicAlgPolicy, std::__2::reverse_iterator<int *>, std::__2::reverse_iterator<int *>, std::__2::reverse_iterator<int *> >:__last <- [DW_OP_LLVM_fragment 0 32] undef
	@DEBUG_VALUE: __move<std::__2::_ClassicAlgPolicy, std::__2::reverse_iterator<int *>, std::__2::reverse_iterator<int *>, std::__2::reverse_iterator<int *> >:__first <- [DW_OP_LLVM_fragment 32 32] undef
	@DEBUG_VALUE: __move<std::__2::_ClassicAlgPolicy, std::__2::reverse_iterator<int *>, std::__2::reverse_iterator<int *>, std::__2::reverse_iterator<int *> >:__first <- [DW_OP_LLVM_fragment 0 32] undef
	@DEBUG_VALUE: move<std::__2::reverse_iterator<int *>, std::__2::reverse_iterator<int *> >:__result <- [DW_OP_LLVM_fragment 32 32] undef
	@DEBUG_VALUE: move<std::__2::reverse_iterator<int *>, std::__2::reverse_iterator<int *> >:__result <- [DW_OP_LLVM_fragment 0 32] undef
	@DEBUG_VALUE: move<std::__2::reverse_iterator<int *>, std::__2::reverse_iterator<int *> >:__last <- [DW_OP_LLVM_fragment 32 32] undef
	@DEBUG_VALUE: move<std::__2::reverse_iterator<int *>, std::__2::reverse_iterator<int *> >:__last <- [DW_OP_LLVM_fragment 0 32] undef
	@DEBUG_VALUE: move<std::__2::reverse_iterator<int *>, std::__2::reverse_iterator<int *> >:__first <- [DW_OP_LLVM_fragment 32 32] undef
	@DEBUG_VALUE: move<std::__2::reverse_iterator<int *>, std::__2::reverse_iterator<int *> >:__first <- [DW_OP_LLVM_fragment 0 32] undef
	@DEBUG_VALUE: __uninitialized_allocator_move_if_noexcept<std::__2::allocator<int>, std::__2::reverse_iterator<int *>, std::__2::reverse_iterator<int *>, int, void>: <- [DW_OP_plus_uconst 8, DW_OP_stack_value] undef
	@DEBUG_VALUE: __uninitialized_allocator_move_if_noexcept<std::__2::allocator<int>, std::__2::reverse_iterator<int *>, std::__2::reverse_iterator<int *>, int, void>:__first2 <- [DW_OP_LLVM_fragment 32 32] undef
	@DEBUG_VALUE: __uninitialized_allocator_move_if_noexcept<std::__2::allocator<int>, std::__2::reverse_iterator<int *>, std::__2::reverse_iterator<int *>, int, void>:__first2 <- [DW_OP_LLVM_fragment 0 32] undef
	@DEBUG_VALUE: __uninitialized_allocator_move_if_noexcept<std::__2::allocator<int>, std::__2::reverse_iterator<int *>, std::__2::reverse_iterator<int *>, int, void>:__last1 <- [DW_OP_LLVM_fragment 32 32] undef
	@DEBUG_VALUE: __uninitialized_allocator_move_if_noexcept<std::__2::allocator<int>, std::__2::reverse_iterator<int *>, std::__2::reverse_iterator<int *>, int, void>:__last1 <- [DW_OP_LLVM_fragment 0 32] undef
	@DEBUG_VALUE: __uninitialized_allocator_move_if_noexcept<std::__2::allocator<int>, std::__2::reverse_iterator<int *>, std::__2::reverse_iterator<int *>, int, void>:__first1 <- [DW_OP_LLVM_fragment 32 32] undef
	@DEBUG_VALUE: __uninitialized_allocator_move_if_noexcept<std::__2::allocator<int>, std::__2::reverse_iterator<int *>, std::__2::reverse_iterator<int *>, int, void>:__first1 <- [DW_OP_LLVM_fragment 0 32] undef
	@DEBUG_VALUE: __swap_out_circular_buffer:__v <- undef
	@DEBUG_VALUE: __swap_out_circular_buffer:this <- undef
	@DEBUG_VALUE: __push_back_slow_path<int>:__v <- [DW_OP_LLVM_fragment 64 32] undef
	.loc	8 0 9 is_stmt 0                 @ C:\Keil_v5\ARM\ARMCLANG\Bin\..\include\libcxx\__memory/allocator.h:0:9
	mov	r9, r0
.Ltmp149:
	@DEBUG_VALUE: __move_impl<std::__2::_ClassicAlgPolicy, int, int, void>:__result <- $r6
	@DEBUG_VALUE: __move_impl<std::__2::_ClassicAlgPolicy, int, int, void>:__first <- $r7
	@DEBUG_VALUE: __move_impl<std::__2::_ClassicAlgPolicy, int *, int *, 0>:__result_first <- $r6
	@DEBUG_VALUE: __move_impl<std::__2::_ClassicAlgPolicy, int *, int *, 0>:__result_base <- $r9
	@DEBUG_VALUE: __move_impl<std::__2::_ClassicAlgPolicy, int *, int *, 0>:__last_base <- $r7
	@DEBUG_VALUE: __move_impl<std::__2::_ClassicAlgPolicy, int *, int *, 0>:__result <- [DW_OP_LLVM_fragment 32 32] $r9
	@DEBUG_VALUE: __move_impl<std::__2::_ClassicAlgPolicy, int *, int *, 0>:__last <- [DW_OP_LLVM_fragment 32 32] $r7
	.loc	62 56 3 is_stmt 1               @ C:\Keil_v5\ARM\ARMCLANG\Bin\..\include\libcxx\__algorithm/move.h:56:3
	mov	r0, r6
.Ltmp150:
	.loc	14 329 28                       @ C:\Keil_v5\ARM\ARMCLANG\Bin\..\include\libcxx\__split_buffer:329:28
	add.w	r11, r6, r11, lsl #2
.Ltmp151:
	@DEBUG_VALUE: construct<int, int>:__args <- undef
	@DEBUG_VALUE: construct<int, int>:__p <- $r0
	@DEBUG_VALUE: construct<int, int>:this <- [DW_OP_plus_uconst 8, DW_OP_stack_value] undef
	@DEBUG_VALUE: construct<int, int, void>:__args <- undef
	@DEBUG_VALUE: construct<int, int, void>:__p <- $r0
	@DEBUG_VALUE: construct<int, int, void>:__a <- [DW_OP_plus_uconst 8, DW_OP_stack_value] undef
	@DEBUG_VALUE: __push_back_slow_path<int>:__v <- [DW_OP_LLVM_fragment 96 32] $r11
	.loc	62 56 3                         @ C:\Keil_v5\ARM\ARMCLANG\Bin\..\include\libcxx\__algorithm/move.h:56:3
	bl	__aeabi_memmove4
.Ltmp152:
	@DEBUG_VALUE: ~__split_buffer:this <- undef
	@DEBUG_VALUE: __move<std::__2::_ClassicAlgPolicy, std::__2::reverse_iterator<int *>, std::__2::reverse_iterator<int *>, std::__2::reverse_iterator<int *> >:__ret <- [DW_OP_LLVM_fragment 96 32] $r6
	@DEBUG_VALUE: __move<std::__2::_ClassicAlgPolicy, std::__2::reverse_iterator<int *>, std::__2::reverse_iterator<int *>, std::__2::reverse_iterator<int *> >:__ret <- [DW_OP_LLVM_fragment 64 32] $r6
	@DEBUG_VALUE: __move<std::__2::_ClassicAlgPolicy, std::__2::reverse_iterator<int *>, std::__2::reverse_iterator<int *>, std::__2::reverse_iterator<int *> >:__ret <- [DW_OP_LLVM_fragment 0 32] undef
	@DEBUG_VALUE: __push_back_slow_path<int>:__v <- [DW_OP_LLVM_fragment 32 32] $r7
	@DEBUG_VALUE: __push_back_slow_path<int>:__v <- [DW_OP_LLVM_fragment 64 32] undef
	@DEBUG_VALUE: __push_back_slow_path<int>:__v <- [DW_OP_LLVM_fragment 0 32] $r7
	@DEBUG_VALUE: __push_back_slow_path<int>:__v <- [DW_OP_LLVM_fragment 96 32] undef
	@DEBUG_VALUE: GetNetworkBoxes:hsizes <- [DW_OP_LLVM_fragment 64 32] undef
	@DEBUG_VALUE: GetNetworkBoxes:hsizes <- [DW_OP_LLVM_fragment 32 32] undef
	@DEBUG_VALUE: GetNetworkBoxes:hsizes <- [DW_OP_LLVM_fragment 0 32] $r6
	.loc	14 362 9                        @ C:\Keil_v5\ARM\ARMCLANG\Bin\..\include\libcxx\__split_buffer:362:9
	cmp	r7, #0
	@DEBUG_VALUE: __move<std::__2::_ClassicAlgPolicy, std::__2::reverse_iterator<int *>, std::__2::reverse_iterator<int *>, std::__2::reverse_iterator<int *> >:__ret <- [DW_OP_LLVM_fragment 32 32] $r7
	@DEBUG_VALUE: __move_impl<std::__2::_ClassicAlgPolicy, int, int, void>:__last <- $r9
	@DEBUG_VALUE: __move_impl<std::__2::_ClassicAlgPolicy, int *, int *, 0>:__first_base <- $r9
	@DEBUG_VALUE: __move_impl<std::__2::_ClassicAlgPolicy, int *, int *, 0>:__first <- [DW_OP_LLVM_fragment 32 32] $r9
.Ltmp153:
	@DEBUG_VALUE: deallocate:__a <- undef
	@DEBUG_VALUE: deallocate:__p <- $r7
	@DEBUG_VALUE: deallocate:__n <- [DW_OP_LLVM_arg 0, DW_OP_LLVM_arg 1, DW_OP_minus, DW_OP_constu 2, DW_OP_shra, DW_OP_stack_value] undef, undef
	@DEBUG_VALUE: deallocate:this <- undef
	@DEBUG_VALUE: deallocate:__p <- $r7
	@DEBUG_VALUE: deallocate:__n <- [DW_OP_LLVM_arg 0, DW_OP_LLVM_arg 1, DW_OP_minus, DW_OP_constu 2, DW_OP_shra, DW_OP_stack_value] undef, undef
	@DEBUG_VALUE: __libcpp_deallocate:__ptr <- $r7
	@DEBUG_VALUE: __libcpp_deallocate:__size <- [DW_OP_LLVM_arg 0, DW_OP_LLVM_arg 1, DW_OP_minus, DW_OP_constu 2, DW_OP_shra, DW_OP_constu 2, DW_OP_shl, DW_OP_stack_value] undef, undef
	@DEBUG_VALUE: __libcpp_deallocate:__align <- 4
	@DEBUG_VALUE: __do_deallocate_handle_size<>:__ptr <- $r7
	@DEBUG_VALUE: __do_deallocate_handle_size<>:__size <- [DW_OP_LLVM_arg 0, DW_OP_LLVM_arg 1, DW_OP_minus, DW_OP_constu 2, DW_OP_shra, DW_OP_constu 2, DW_OP_shl, DW_OP_stack_value] undef, undef
	@DEBUG_VALUE: __libcpp_operator_delete<void *>:__args <- $r7
	.loc	60 280 3                        @ C:\Keil_v5\ARM\ARMCLANG\Bin\..\include\libcxx\new:280:3
	itt	ne
	movne	r0, r7
.Ltmp154:
	@DEBUG_VALUE: __move_impl<std::__2::_ClassicAlgPolicy, int, int, void>:__first <- $r0
	@DEBUG_VALUE: __move_impl<std::__2::_ClassicAlgPolicy, int, int, void>:__first <- $r0
	blne	_ZdlPv
.Ltmp155:
	.loc	60 0 3 is_stmt 0                @ C:\Keil_v5\ARM\ARMCLANG\Bin\..\include\libcxx\new:0:3
	ldr	r5, [sp, #44]                   @ 4-byte Reload
	mov	r12, r6
	ldr	r7, [sp, #36]                   @ 4-byte Reload
.Ltmp156:
	mov	r3, r4
	ldr	r1, [sp, #32]                   @ 4-byte Reload
	mov	lr, r11
	mov	r6, r9
.Ltmp157:
	@DEBUG_VALUE: __move_impl<std::__2::_ClassicAlgPolicy, int *, int *, 0>:__result_base <- $r6
	@DEBUG_VALUE: __move_impl<std::__2::_ClassicAlgPolicy, int *, int *, 0>:__result_base <- $r6
.LBB2_11:                               @   in Loop: Header=BB2_3 Depth=1
	@DEBUG_VALUE: stride <- $r8
	@DEBUG_VALUE: GetNetworkBoxes:net <- [DW_OP_plus_uconst 44] [$sp+0]
	@DEBUG_VALUE: GetNetworkBoxes:threshold <- $s16
	@DEBUG_VALUE: GetNetworkBoxes:this <- [DW_OP_LLVM_entry_value 1] $r0
	@DEBUG_VALUE: GetNetworkBoxes:detections <- [DW_OP_plus_uconst 184] [$sp+0]
	@DEBUG_VALUE: GetNetworkBoxes:hsizes <- [DW_OP_LLVM_fragment 0 32] $r12
	@DEBUG_VALUE: GetNetworkBoxes:hsizes <- [DW_OP_LLVM_fragment 32 32] $r6
	@DEBUG_VALUE: GetNetworkBoxes:hsizes <- [DW_OP_LLVM_fragment 64 32] $lr
	.loc	59 194 30 is_stmt 1             @ ../DetectorPostProcessing.cpp:194:30
	ldr	r0, [r5]
.Ltmp158:
	.loc	1 1563 9                        @ C:\Keil_v5\ARM\ARMCLANG\Bin\..\include\libcxx\vector:1563:9
	cmp	r1, r7
.Ltmp159:
	.loc	59 194 41                       @ ../DetectorPostProcessing.cpp:194:41
	sdiv	r9, r0, r8
.Ltmp160:
	@DEBUG_VALUE: push_back:__x <- undef
	@DEBUG_VALUE: push_back:this <- undef
	.loc	1 1563 9                        @ C:\Keil_v5\ARM\ARMCLANG\Bin\..\include\libcxx\vector:1563:9
	blo	.LBB2_1
.Ltmp161:
@ %bb.12:                               @   in Loop: Header=BB2_3 Depth=1
	@DEBUG_VALUE: stride <- $r8
	@DEBUG_VALUE: GetNetworkBoxes:hsizes <- [DW_OP_LLVM_fragment 64 32] $lr
	@DEBUG_VALUE: GetNetworkBoxes:hsizes <- [DW_OP_LLVM_fragment 32 32] $r6
	@DEBUG_VALUE: GetNetworkBoxes:hsizes <- [DW_OP_LLVM_fragment 0 32] $r12
	@DEBUG_VALUE: GetNetworkBoxes:net <- [DW_OP_plus_uconst 44] [$sp+0]
	@DEBUG_VALUE: GetNetworkBoxes:threshold <- $s16
	@DEBUG_VALUE: GetNetworkBoxes:this <- [DW_OP_LLVM_entry_value 1] $r0
	@DEBUG_VALUE: GetNetworkBoxes:detections <- [DW_OP_plus_uconst 184] [$sp+0]
	@DEBUG_VALUE: __push_back_slow_path<int>:this <- undef
	@DEBUG_VALUE: __push_back_slow_path<int>:__x <- undef
	@DEBUG_VALUE: __push_back_slow_path<int>:__a <- [DW_OP_plus_uconst 8, DW_OP_stack_value] undef
	@DEBUG_VALUE: size:this <- undef
	.loc	1 0 9 is_stmt 0                 @ C:\Keil_v5\ARM\ARMCLANG\Bin\..\include\libcxx\vector:0:9
	ldr	r4, [sp, #40]                   @ 4-byte Reload
.Ltmp162:
	.loc	1 1536 72 is_stmt 1             @ C:\Keil_v5\ARM\ARMCLANG\Bin\..\include\libcxx\vector:1536:72
	movs	r0, #1
.Ltmp163:
	.loc	1 535 53                        @ C:\Keil_v5\ARM\ARMCLANG\Bin\..\include\libcxx\vector:535:53
	subs	r5, r1, r4
.Ltmp164:
	.loc	1 1536 72                       @ C:\Keil_v5\ARM\ARMCLANG\Bin\..\include\libcxx\vector:1536:72
	add.w	r0, r0, r5, asr #2
.Ltmp165:
	@DEBUG_VALUE: __recommend:__ms <- 1073741823
	@DEBUG_VALUE: __recommend:this <- undef
	@DEBUG_VALUE: __recommend:__new_size <- $r0
	.loc	1 977 9                         @ C:\Keil_v5\ARM\ARMCLANG\Bin\..\include\libcxx\vector:977:9
	cmp.w	r0, #1073741824
	bhs.w	.LBB2_69
.Ltmp166:
@ %bb.13:                               @   in Loop: Header=BB2_3 Depth=1
	@DEBUG_VALUE: __recommend:__new_size <- $r0
	@DEBUG_VALUE: __recommend:__ms <- 1073741823
	@DEBUG_VALUE: stride <- $r8
	@DEBUG_VALUE: GetNetworkBoxes:hsizes <- [DW_OP_LLVM_fragment 64 32] $lr
	@DEBUG_VALUE: GetNetworkBoxes:hsizes <- [DW_OP_LLVM_fragment 32 32] $r6
	@DEBUG_VALUE: GetNetworkBoxes:hsizes <- [DW_OP_LLVM_fragment 0 32] $r12
	@DEBUG_VALUE: GetNetworkBoxes:net <- [DW_OP_plus_uconst 44] [$sp+0]
	@DEBUG_VALUE: GetNetworkBoxes:threshold <- $s16
	@DEBUG_VALUE: GetNetworkBoxes:this <- [DW_OP_LLVM_entry_value 1] $r0
	@DEBUG_VALUE: GetNetworkBoxes:detections <- [DW_OP_plus_uconst 184] [$sp+0]
	@DEBUG_VALUE: capacity:this <- undef
	.loc	1 538 52                        @ C:\Keil_v5\ARM\ARMCLANG\Bin\..\include\libcxx\vector:538:52
	subs	r1, r7, r4
.Ltmp167:
	@DEBUG_VALUE: __recommend:__cap <- [DW_OP_constu 2, DW_OP_shra, DW_OP_stack_value] $r1
	.loc	1 980 9                         @ C:\Keil_v5\ARM\ARMCLANG\Bin\..\include\libcxx\vector:980:9
	movw	r2, #65532
	cmp.w	r0, r1, asr #1
	movt	r2, #32767
	it	lo
	asrlo	r0, r1, #1
.Ltmp168:
	cmp	r1, r2
	mvn	r1, #-1073741824
.Ltmp169:
	csel	r7, r0, r1, lo
.Ltmp170:
	@DEBUG_VALUE: __push_back_slow_path<int>:__v <- [DW_OP_plus_uconst 8, DW_OP_stack_value, DW_OP_LLVM_fragment 128 32] undef
	@DEBUG_VALUE: __push_back_slow_path<int>:__v <- [DW_OP_LLVM_fragment 96 32] 0
	@DEBUG_VALUE: __split_buffer:__a <- [DW_OP_plus_uconst 8, DW_OP_stack_value] undef
	@DEBUG_VALUE: __split_buffer:__start <- undef
	@DEBUG_VALUE: __split_buffer:this <- undef
	@DEBUG_VALUE: size:this <- undef
	@DEBUG_VALUE: __split_buffer:__cap <- $r7
	.loc	14 321 9                        @ C:\Keil_v5\ARM\ARMCLANG\Bin\..\include\libcxx\__split_buffer:321:9
	strd	r6, lr, [sp, #32]               @ 8-byte Folded Spill
	cbz	r7, .LBB2_16
.Ltmp171:
@ %bb.14:                               @   in Loop: Header=BB2_3 Depth=1
	@DEBUG_VALUE: __split_buffer:__cap <- $r7
	@DEBUG_VALUE: __push_back_slow_path<int>:__v <- [DW_OP_LLVM_fragment 96 32] 0
	@DEBUG_VALUE: stride <- $r8
	@DEBUG_VALUE: GetNetworkBoxes:hsizes <- [DW_OP_LLVM_fragment 64 32] $lr
	@DEBUG_VALUE: GetNetworkBoxes:hsizes <- [DW_OP_LLVM_fragment 32 32] $r6
	@DEBUG_VALUE: GetNetworkBoxes:hsizes <- [DW_OP_LLVM_fragment 0 32] $r12
	@DEBUG_VALUE: GetNetworkBoxes:net <- [DW_OP_plus_uconst 44] [$sp+0]
	@DEBUG_VALUE: GetNetworkBoxes:threshold <- $s16
	@DEBUG_VALUE: GetNetworkBoxes:this <- [DW_OP_LLVM_entry_value 1] $r0
	@DEBUG_VALUE: GetNetworkBoxes:detections <- [DW_OP_plus_uconst 184] [$sp+0]
	@DEBUG_VALUE: __allocate_at_least<std::__2::allocator<int> >:__alloc <- undef
	@DEBUG_VALUE: __allocate_at_least<std::__2::allocator<int> >:__n <- $r7
	@DEBUG_VALUE: allocate:this <- undef
	@DEBUG_VALUE: allocate:__n <- $r7
	.loc	8 107 13                        @ C:\Keil_v5\ARM\ARMCLANG\Bin\..\include\libcxx\__memory/allocator.h:107:13
	cmp.w	r7, #1073741824
	bhs.w	.LBB2_70
.Ltmp172:
@ %bb.15:                               @   in Loop: Header=BB2_3 Depth=1
	@DEBUG_VALUE: allocate:__n <- $r7
	@DEBUG_VALUE: __allocate_at_least<std::__2::allocator<int> >:__n <- $r7
	@DEBUG_VALUE: __split_buffer:__cap <- $r7
	@DEBUG_VALUE: __push_back_slow_path<int>:__v <- [DW_OP_LLVM_fragment 96 32] 0
	@DEBUG_VALUE: stride <- $r8
	@DEBUG_VALUE: GetNetworkBoxes:hsizes <- [DW_OP_LLVM_fragment 64 32] $lr
	@DEBUG_VALUE: GetNetworkBoxes:hsizes <- [DW_OP_LLVM_fragment 32 32] $r6
	@DEBUG_VALUE: GetNetworkBoxes:hsizes <- [DW_OP_LLVM_fragment 0 32] $r12
	@DEBUG_VALUE: GetNetworkBoxes:net <- [DW_OP_plus_uconst 44] [$sp+0]
	@DEBUG_VALUE: GetNetworkBoxes:threshold <- $s16
	@DEBUG_VALUE: GetNetworkBoxes:this <- [DW_OP_LLVM_entry_value 1] $r0
	@DEBUG_VALUE: GetNetworkBoxes:detections <- [DW_OP_plus_uconst 184] [$sp+0]
	.loc	8 112 67                        @ C:\Keil_v5\ARM\ARMCLANG\Bin\..\include\libcxx\__memory/allocator.h:112:67
	lsls	r0, r7, #2
.Ltmp173:
	@DEBUG_VALUE: __libcpp_allocate:__align <- 4
	@DEBUG_VALUE: __libcpp_operator_new<unsigned int>:__args <- $r0
	@DEBUG_VALUE: __libcpp_allocate:__size <- $r0
	.loc	8 0 67 is_stmt 0                @ C:\Keil_v5\ARM\ARMCLANG\Bin\..\include\libcxx\__memory/allocator.h:0:67
	mov	r11, r12
.Ltmp174:
	@DEBUG_VALUE: GetNetworkBoxes:hsizes <- [DW_OP_LLVM_fragment 0 32] $r11
	@DEBUG_VALUE: GetNetworkBoxes:hsizes <- [DW_OP_LLVM_fragment 0 32] $r11
	mov	r8, r3
.Ltmp175:
	.loc	60 270 10 is_stmt 1             @ C:\Keil_v5\ARM\ARMCLANG\Bin\..\include\libcxx\new:270:10
	bl	_Znwj
.Ltmp176:
	mov	r6, r0
.Ltmp177:
	@DEBUG_VALUE: __allocation <- [DW_OP_LLVM_fragment 32 32] $r7
	@DEBUG_VALUE: __allocation <- [DW_OP_LLVM_fragment 0 32] $r6
	@DEBUG_VALUE: __split_buffer:__cap <- $r7
	.loc	60 0 10 is_stmt 0               @ C:\Keil_v5\ARM\ARMCLANG\Bin\..\include\libcxx\new:0:10
	b	.LBB2_17
.Ltmp178:
.LBB2_16:                               @   in Loop: Header=BB2_3 Depth=1
	@DEBUG_VALUE: __split_buffer:__cap <- $r7
	@DEBUG_VALUE: __push_back_slow_path<int>:__v <- [DW_OP_LLVM_fragment 96 32] 0
	@DEBUG_VALUE: __recommend:__ms <- 1073741823
	@DEBUG_VALUE: stride <- $r8
	@DEBUG_VALUE: GetNetworkBoxes:hsizes <- [DW_OP_LLVM_fragment 64 32] $lr
	@DEBUG_VALUE: GetNetworkBoxes:hsizes <- [DW_OP_LLVM_fragment 32 32] $r6
	@DEBUG_VALUE: GetNetworkBoxes:hsizes <- [DW_OP_LLVM_fragment 0 32] $r12
	@DEBUG_VALUE: GetNetworkBoxes:net <- [DW_OP_plus_uconst 44] [$sp+0]
	@DEBUG_VALUE: GetNetworkBoxes:threshold <- $s16
	@DEBUG_VALUE: GetNetworkBoxes:this <- [DW_OP_LLVM_entry_value 1] $r0
	@DEBUG_VALUE: GetNetworkBoxes:detections <- [DW_OP_plus_uconst 184] [$sp+0]
	mov	r11, r12
.Ltmp179:
	@DEBUG_VALUE: GetNetworkBoxes:hsizes <- [DW_OP_LLVM_fragment 0 32] $r11
	@DEBUG_VALUE: GetNetworkBoxes:hsizes <- [DW_OP_LLVM_fragment 0 32] $r11
	mov	r8, r3
.Ltmp180:
	movs	r6, #0
.Ltmp181:
.LBB2_17:                               @   in Loop: Header=BB2_3 Depth=1
	@DEBUG_VALUE: GetNetworkBoxes:hsizes <- [DW_OP_LLVM_fragment 0 32] $r11
	@DEBUG_VALUE: __split_buffer:__cap <- $r7
	@DEBUG_VALUE: __push_back_slow_path<int>:__v <- [DW_OP_LLVM_fragment 96 32] 0
	@DEBUG_VALUE: GetNetworkBoxes:net <- [DW_OP_plus_uconst 44] [$sp+0]
	@DEBUG_VALUE: GetNetworkBoxes:threshold <- $s16
	@DEBUG_VALUE: GetNetworkBoxes:this <- [DW_OP_LLVM_entry_value 1] $r0
	@DEBUG_VALUE: GetNetworkBoxes:detections <- [DW_OP_plus_uconst 184] [$sp+0]
	asrs	r0, r5, #2
.Ltmp182:
	@DEBUG_VALUE: __push_back_slow_path<int>:__v <- [DW_OP_LLVM_fragment 0 32] $r6
	@DEBUG_VALUE: __split_buffer:__start <- $r0
	@DEBUG_VALUE: __split_buffer:__cap <- $r7
	.loc	62 56 3 is_stmt 1               @ C:\Keil_v5\ARM\ARMCLANG\Bin\..\include\libcxx\__algorithm/move.h:56:3
	mov	r1, r4
.Ltmp183:
	.loc	14 328 34                       @ C:\Keil_v5\ARM\ARMCLANG\Bin\..\include\libcxx\__split_buffer:328:34
	add.w	r0, r6, r0, lsl #2
.Ltmp184:
	@DEBUG_VALUE: __push_back_slow_path<int>:__v <- [DW_OP_LLVM_fragment 32 32] $r0
	@DEBUG_VALUE: __push_back_slow_path<int>:__v <- [DW_OP_LLVM_fragment 64 32] $r0
	.loc	62 56 3                         @ C:\Keil_v5\ARM\ARMCLANG\Bin\..\include\libcxx\__algorithm/move.h:56:3
	mov	r2, r5
.Ltmp185:
	.loc	8 165 9                         @ C:\Keil_v5\ARM\ARMCLANG\Bin\..\include\libcxx\__memory/allocator.h:165:9
	str	r9, [r0], #4
.Ltmp186:
	@DEBUG_VALUE: __move_impl<std::__2::_ClassicAlgPolicy, int, int, void>:__n <- undef
	@DEBUG_VALUE: __move_impl<std::__2::_ClassicAlgPolicy, int *, int *, 0>:__result <- [DW_OP_LLVM_fragment 0 32] undef
	@DEBUG_VALUE: __move_impl<std::__2::_ClassicAlgPolicy, int *, int *, 0>:__last <- [DW_OP_LLVM_fragment 0 32] undef
	@DEBUG_VALUE: __move_impl<std::__2::_ClassicAlgPolicy, int *, int *, 0>:__first <- [DW_OP_LLVM_fragment 0 32] undef
	@DEBUG_VALUE: __move<std::__2::_ClassicAlgPolicy, std::__2::reverse_iterator<int *>, std::__2::reverse_iterator<int *>, std::__2::reverse_iterator<int *> >:__result <- [DW_OP_LLVM_fragment 32 32] undef
	@DEBUG_VALUE: __move<std::__2::_ClassicAlgPolicy, std::__2::reverse_iterator<int *>, std::__2::reverse_iterator<int *>, std::__2::reverse_iterator<int *> >:__result <- [DW_OP_LLVM_fragment 0 32] undef
	@DEBUG_VALUE: __move<std::__2::_ClassicAlgPolicy, std::__2::reverse_iterator<int *>, std::__2::reverse_iterator<int *>, std::__2::reverse_iterator<int *> >:__last <- [DW_OP_LLVM_fragment 32 32] undef
	@DEBUG_VALUE: __move<std::__2::_ClassicAlgPolicy, std::__2::reverse_iterator<int *>, std::__2::reverse_iterator<int *>, std::__2::reverse_iterator<int *> >:__last <- [DW_OP_LLVM_fragment 0 32] undef
	@DEBUG_VALUE: __move<std::__2::_ClassicAlgPolicy, std::__2::reverse_iterator<int *>, std::__2::reverse_iterator<int *>, std::__2::reverse_iterator<int *> >:__first <- [DW_OP_LLVM_fragment 32 32] undef
	@DEBUG_VALUE: __move<std::__2::_ClassicAlgPolicy, std::__2::reverse_iterator<int *>, std::__2::reverse_iterator<int *>, std::__2::reverse_iterator<int *> >:__first <- [DW_OP_LLVM_fragment 0 32] undef
	@DEBUG_VALUE: move<std::__2::reverse_iterator<int *>, std::__2::reverse_iterator<int *> >:__result <- [DW_OP_LLVM_fragment 32 32] undef
	@DEBUG_VALUE: move<std::__2::reverse_iterator<int *>, std::__2::reverse_iterator<int *> >:__result <- [DW_OP_LLVM_fragment 0 32] undef
	@DEBUG_VALUE: move<std::__2::reverse_iterator<int *>, std::__2::reverse_iterator<int *> >:__last <- [DW_OP_LLVM_fragment 32 32] undef
	@DEBUG_VALUE: move<std::__2::reverse_iterator<int *>, std::__2::reverse_iterator<int *> >:__last <- [DW_OP_LLVM_fragment 0 32] undef
	@DEBUG_VALUE: move<std::__2::reverse_iterator<int *>, std::__2::reverse_iterator<int *> >:__first <- [DW_OP_LLVM_fragment 32 32] undef
	@DEBUG_VALUE: move<std::__2::reverse_iterator<int *>, std::__2::reverse_iterator<int *> >:__first <- [DW_OP_LLVM_fragment 0 32] undef
	@DEBUG_VALUE: __uninitialized_allocator_move_if_noexcept<std::__2::allocator<int>, std::__2::reverse_iterator<int *>, std::__2::reverse_iterator<int *>, int, void>: <- [DW_OP_plus_uconst 8, DW_OP_stack_value] undef
	@DEBUG_VALUE: __uninitialized_allocator_move_if_noexcept<std::__2::allocator<int>, std::__2::reverse_iterator<int *>, std::__2::reverse_iterator<int *>, int, void>:__first2 <- [DW_OP_LLVM_fragment 32 32] undef
	@DEBUG_VALUE: __uninitialized_allocator_move_if_noexcept<std::__2::allocator<int>, std::__2::reverse_iterator<int *>, std::__2::reverse_iterator<int *>, int, void>:__first2 <- [DW_OP_LLVM_fragment 0 32] undef
	@DEBUG_VALUE: __uninitialized_allocator_move_if_noexcept<std::__2::allocator<int>, std::__2::reverse_iterator<int *>, std::__2::reverse_iterator<int *>, int, void>:__last1 <- [DW_OP_LLVM_fragment 32 32] undef
	@DEBUG_VALUE: __uninitialized_allocator_move_if_noexcept<std::__2::allocator<int>, std::__2::reverse_iterator<int *>, std::__2::reverse_iterator<int *>, int, void>:__last1 <- [DW_OP_LLVM_fragment 0 32] undef
	@DEBUG_VALUE: __uninitialized_allocator_move_if_noexcept<std::__2::allocator<int>, std::__2::reverse_iterator<int *>, std::__2::reverse_iterator<int *>, int, void>:__first1 <- [DW_OP_LLVM_fragment 32 32] undef
	@DEBUG_VALUE: __uninitialized_allocator_move_if_noexcept<std::__2::allocator<int>, std::__2::reverse_iterator<int *>, std::__2::reverse_iterator<int *>, int, void>:__first1 <- [DW_OP_LLVM_fragment 0 32] undef
	@DEBUG_VALUE: __swap_out_circular_buffer:__v <- undef
	@DEBUG_VALUE: __swap_out_circular_buffer:this <- undef
	@DEBUG_VALUE: __push_back_slow_path<int>:__v <- [DW_OP_LLVM_fragment 64 32] undef
	.loc	8 0 9 is_stmt 0                 @ C:\Keil_v5\ARM\ARMCLANG\Bin\..\include\libcxx\__memory/allocator.h:0:9
	mov	r9, r0
.Ltmp187:
	@DEBUG_VALUE: __move_impl<std::__2::_ClassicAlgPolicy, int, int, void>:__result <- $r6
	@DEBUG_VALUE: __move_impl<std::__2::_ClassicAlgPolicy, int, int, void>:__first <- $r4
	@DEBUG_VALUE: __move_impl<std::__2::_ClassicAlgPolicy, int *, int *, 0>:__result_first <- $r6
	@DEBUG_VALUE: __move_impl<std::__2::_ClassicAlgPolicy, int *, int *, 0>:__result_base <- $r9
	@DEBUG_VALUE: __move_impl<std::__2::_ClassicAlgPolicy, int *, int *, 0>:__last_base <- $r4
	@DEBUG_VALUE: __move_impl<std::__2::_ClassicAlgPolicy, int *, int *, 0>:__result <- [DW_OP_LLVM_fragment 32 32] $r9
	@DEBUG_VALUE: __move_impl<std::__2::_ClassicAlgPolicy, int *, int *, 0>:__last <- [DW_OP_LLVM_fragment 32 32] $r4
	.loc	62 56 3 is_stmt 1               @ C:\Keil_v5\ARM\ARMCLANG\Bin\..\include\libcxx\__algorithm/move.h:56:3
	mov	r0, r6
.Ltmp188:
	.loc	14 329 28                       @ C:\Keil_v5\ARM\ARMCLANG\Bin\..\include\libcxx\__split_buffer:329:28
	add.w	r7, r6, r7, lsl #2
.Ltmp189:
	@DEBUG_VALUE: construct<int, int>:__args <- undef
	@DEBUG_VALUE: construct<int, int>:__p <- $r0
	@DEBUG_VALUE: construct<int, int>:this <- [DW_OP_plus_uconst 8, DW_OP_stack_value] undef
	@DEBUG_VALUE: construct<int, int, void>:__args <- undef
	@DEBUG_VALUE: construct<int, int, void>:__p <- $r0
	@DEBUG_VALUE: construct<int, int, void>:__a <- [DW_OP_plus_uconst 8, DW_OP_stack_value] undef
	@DEBUG_VALUE: __push_back_slow_path<int>:__v <- [DW_OP_LLVM_fragment 96 32] $r7
	.loc	62 56 3                         @ C:\Keil_v5\ARM\ARMCLANG\Bin\..\include\libcxx\__algorithm/move.h:56:3
	bl	__aeabi_memmove4
.Ltmp190:
	@DEBUG_VALUE: ~__split_buffer:this <- undef
	@DEBUG_VALUE: __move<std::__2::_ClassicAlgPolicy, std::__2::reverse_iterator<int *>, std::__2::reverse_iterator<int *>, std::__2::reverse_iterator<int *> >:__ret <- [DW_OP_LLVM_fragment 96 32] $r6
	@DEBUG_VALUE: __move<std::__2::_ClassicAlgPolicy, std::__2::reverse_iterator<int *>, std::__2::reverse_iterator<int *>, std::__2::reverse_iterator<int *> >:__ret <- [DW_OP_LLVM_fragment 64 32] $r6
	@DEBUG_VALUE: __move<std::__2::_ClassicAlgPolicy, std::__2::reverse_iterator<int *>, std::__2::reverse_iterator<int *>, std::__2::reverse_iterator<int *> >:__ret <- [DW_OP_LLVM_fragment 0 32] undef
	@DEBUG_VALUE: __push_back_slow_path<int>:__v <- [DW_OP_LLVM_fragment 32 32] $r4
	@DEBUG_VALUE: __push_back_slow_path<int>:__v <- [DW_OP_LLVM_fragment 64 32] undef
	@DEBUG_VALUE: __push_back_slow_path<int>:__v <- [DW_OP_LLVM_fragment 0 32] $r4
	@DEBUG_VALUE: __push_back_slow_path<int>:__v <- [DW_OP_LLVM_fragment 96 32] undef
	@DEBUG_VALUE: GetNetworkBoxes:wsizes <- [DW_OP_LLVM_fragment 64 32] undef
	@DEBUG_VALUE: GetNetworkBoxes:wsizes <- [DW_OP_LLVM_fragment 32 32] undef
	@DEBUG_VALUE: GetNetworkBoxes:wsizes <- [DW_OP_LLVM_fragment 0 32] $r6
	.loc	14 362 9                        @ C:\Keil_v5\ARM\ARMCLANG\Bin\..\include\libcxx\__split_buffer:362:9
	cmp	r4, #0
	@DEBUG_VALUE: __move<std::__2::_ClassicAlgPolicy, std::__2::reverse_iterator<int *>, std::__2::reverse_iterator<int *>, std::__2::reverse_iterator<int *> >:__ret <- [DW_OP_LLVM_fragment 32 32] $r4
	@DEBUG_VALUE: __move_impl<std::__2::_ClassicAlgPolicy, int, int, void>:__last <- $r9
	@DEBUG_VALUE: __move_impl<std::__2::_ClassicAlgPolicy, int *, int *, 0>:__first_base <- $r9
	@DEBUG_VALUE: __move_impl<std::__2::_ClassicAlgPolicy, int *, int *, 0>:__first <- [DW_OP_LLVM_fragment 32 32] $r9
.Ltmp191:
	@DEBUG_VALUE: deallocate:__a <- undef
	@DEBUG_VALUE: deallocate:__p <- $r4
	@DEBUG_VALUE: deallocate:__n <- [DW_OP_LLVM_arg 0, DW_OP_LLVM_arg 1, DW_OP_minus, DW_OP_constu 2, DW_OP_shra, DW_OP_stack_value] undef, undef
	@DEBUG_VALUE: deallocate:this <- undef
	@DEBUG_VALUE: deallocate:__p <- $r4
	@DEBUG_VALUE: deallocate:__n <- [DW_OP_LLVM_arg 0, DW_OP_LLVM_arg 1, DW_OP_minus, DW_OP_constu 2, DW_OP_shra, DW_OP_stack_value] undef, undef
	@DEBUG_VALUE: __libcpp_deallocate:__ptr <- $r4
	@DEBUG_VALUE: __libcpp_deallocate:__size <- [DW_OP_LLVM_arg 0, DW_OP_LLVM_arg 1, DW_OP_minus, DW_OP_constu 2, DW_OP_shra, DW_OP_constu 2, DW_OP_shl, DW_OP_stack_value] undef, undef
	@DEBUG_VALUE: __libcpp_deallocate:__align <- 4
	@DEBUG_VALUE: __do_deallocate_handle_size<>:__ptr <- $r4
	@DEBUG_VALUE: __do_deallocate_handle_size<>:__size <- [DW_OP_LLVM_arg 0, DW_OP_LLVM_arg 1, DW_OP_minus, DW_OP_constu 2, DW_OP_shra, DW_OP_constu 2, DW_OP_shl, DW_OP_stack_value] undef, undef
	@DEBUG_VALUE: __libcpp_operator_delete<void *>:__args <- $r4
	.loc	60 280 3                        @ C:\Keil_v5\ARM\ARMCLANG\Bin\..\include\libcxx\new:280:3
	itt	ne
	movne	r0, r4
.Ltmp192:
	@DEBUG_VALUE: __move_impl<std::__2::_ClassicAlgPolicy, int, int, void>:__first <- $r0
	@DEBUG_VALUE: __move_impl<std::__2::_ClassicAlgPolicy, int, int, void>:__first <- $r0
	blne	_ZdlPv
.Ltmp193:
	.loc	60 0 3 is_stmt 0                @ C:\Keil_v5\ARM\ARMCLANG\Bin\..\include\libcxx\new:0:3
	ldr	r5, [sp, #44]                   @ 4-byte Reload
	mov	r3, r8
	mov	r8, r6
.Ltmp194:
	@DEBUG_VALUE: __move_impl<std::__2::_ClassicAlgPolicy, int, int, void>:__result <- $r8
	@DEBUG_VALUE: __move_impl<std::__2::_ClassicAlgPolicy, int, int, void>:__result <- $r8
	ldr.w	lr, [sp, #36]                   @ 4-byte Reload
	ldr	r6, [sp, #32]                   @ 4-byte Reload
.Ltmp195:
	mov	r12, r11
	mov	r1, r9
	b	.LBB2_2
.Ltmp196:
.LBB2_18:
	@DEBUG_VALUE: GetNetworkBoxes:wsizes <- [DW_OP_LLVM_fragment 64 32] $r7
	@DEBUG_VALUE: GetNetworkBoxes:wsizes <- [DW_OP_LLVM_fragment 32 32] $r1
	@DEBUG_VALUE: GetNetworkBoxes:wsizes <- [DW_OP_LLVM_fragment 0 32] $r8
	@DEBUG_VALUE: GetNetworkBoxes:hsizes <- [DW_OP_LLVM_fragment 64 32] $lr
	@DEBUG_VALUE: GetNetworkBoxes:hsizes <- [DW_OP_LLVM_fragment 32 32] $r6
	@DEBUG_VALUE: GetNetworkBoxes:hsizes <- [DW_OP_LLVM_fragment 0 32] $r12
	@DEBUG_VALUE: GetNetworkBoxes:net <- [DW_OP_plus_uconst 44] [$sp+0]
	@DEBUG_VALUE: GetNetworkBoxes:threshold <- $s16
	@DEBUG_VALUE: GetNetworkBoxes:this <- [DW_OP_LLVM_entry_value 1] $r0
	@DEBUG_VALUE: GetNetworkBoxes:detections <- [DW_OP_plus_uconst 184] [$sp+0]
	@DEBUG_VALUE: operator[]:this <- undef
	@DEBUG_VALUE: operator[]:__n <- 0
	@DEBUG_VALUE: operator[]:this <- undef
	@DEBUG_VALUE: operator[]:__n <- 0
	@DEBUG_VALUE: operator[]:this <- undef
	@DEBUG_VALUE: operator[]:__n <- 1
	@DEBUG_VALUE: GetNetworkBoxes:section0_1d <- undef
	@DEBUG_VALUE: operator[]:this <- undef
	@DEBUG_VALUE: operator[]:__n <- 0
	@DEBUG_VALUE: operator[]:this <- undef
	@DEBUG_VALUE: operator[]:__n <- 0
	@DEBUG_VALUE: operator[]:this <- undef
	@DEBUG_VALUE: operator[]:__n <- 1
	@DEBUG_VALUE: GetNetworkBoxes:section1_1d <- undef
	@DEBUG_VALUE: GetNetworkBoxes:numClasses <- undef
	@DEBUG_VALUE: GetNetworkBoxes:num <- 0
	@DEBUG_VALUE: i <- 0
	@DEBUG_VALUE: operator[]:__n <- 0
	@DEBUG_VALUE: operator[]:this <- [DW_OP_plus_uconst 44, DW_OP_deref_size 4, DW_OP_plus_uconst 12, DW_OP_stack_value] $sp
	.loc	1 1458 18 is_stmt 1             @ C:\Keil_v5\ARM\ARMCLANG\Bin\..\include\libcxx\vector:1458:18
	ldr	r0, [r5, #12]
.Ltmp197:
	.loc	59 204 41                       @ ../DetectorPostProcessing.cpp:204:41
	ldr	r1, [r0]
.Ltmp198:
	.loc	59 204 5 is_stmt 0              @ ../DetectorPostProcessing.cpp:204:5
	cmp	r1, #1
	blt.w	.LBB2_68
.Ltmp199:
@ %bb.19:
	@DEBUG_VALUE: i <- 0
	@DEBUG_VALUE: GetNetworkBoxes:num <- 0
	@DEBUG_VALUE: GetNetworkBoxes:wsizes <- [DW_OP_LLVM_fragment 64 32] $r7
	@DEBUG_VALUE: GetNetworkBoxes:wsizes <- [DW_OP_LLVM_fragment 0 32] $r8
	@DEBUG_VALUE: GetNetworkBoxes:hsizes <- [DW_OP_LLVM_fragment 64 32] $lr
	@DEBUG_VALUE: GetNetworkBoxes:hsizes <- [DW_OP_LLVM_fragment 32 32] $r6
	@DEBUG_VALUE: GetNetworkBoxes:hsizes <- [DW_OP_LLVM_fragment 0 32] $r12
	@DEBUG_VALUE: GetNetworkBoxes:net <- [DW_OP_plus_uconst 44] [$sp+0]
	@DEBUG_VALUE: GetNetworkBoxes:threshold <- $s16
	@DEBUG_VALUE: GetNetworkBoxes:this <- [DW_OP_LLVM_entry_value 1] $r0
	@DEBUG_VALUE: GetNetworkBoxes:detections <- [DW_OP_plus_uconst 184] [$sp+0]
	.loc	59 0 5                          @ ../DetectorPostProcessing.cpp:0:5
	ldr.w	r2, [r12]
	mov.w	r9, #0
.Ltmp200:
	@DEBUG_VALUE: GetNetworkBoxes:numClasses <- [DW_OP_plus_uconst 20] [$sp+0]
	ldrd	r3, r7, [r8]
.Ltmp201:
	ldr	r4, [r5, #8]
.Ltmp202:
	@DEBUG_VALUE: GetNetworkBoxes:numClasses <- $r4
	mul	r10, r3, r2
.Ltmp203:
	@DEBUG_VALUE: GetNetworkBoxes:section0_1d <- $r10
	mov	r3, r12
	ldr	r2, [r3, #4]!
	vldr	s22, __arm_cp.2_3
	mla	r6, r7, r2, r10
.Ltmp204:
	@DEBUG_VALUE: GetNetworkBoxes:section1_1d <- $r6
	add.w	r2, r12, #8
	adds	r7, r4, #5
	str	r3, [sp, #4]                    @ 4-byte Spill
	str	r2, [sp]                        @ 4-byte Spill
	movs	r2, #5
	vldr	s26, __arm_cp.2_4
	vmov.f32	s20, #8.000000e+00
	str	r2, [sp, #36]                   @ 4-byte Spill
	movs	r2, #0
	vmov.f32	s24, #1.600000e+01
	str	r2, [sp, #32]                   @ 4-byte Spill
	strd	r6, r4, [sp, #16]               @ 8-byte Folded Spill
.Ltmp205:
	@DEBUG_VALUE: GetNetworkBoxes:section1_1d <- [DW_OP_plus_uconst 16] [$sp+0]
	.loc	59 204 5                        @ ../DetectorPostProcessing.cpp:204:5
	strd	r10, r7, [sp, #8]               @ 8-byte Folded Spill
	b	.LBB2_23
.Ltmp206:
.LBB2_20:                               @   in Loop: Header=BB2_23 Depth=1
	@DEBUG_VALUE: GetNetworkBoxes:hsizes <- [DW_OP_plus_uconst 28, DW_OP_LLVM_fragment 0 32] [$sp+0]
	@DEBUG_VALUE: objectness <- $s28
	@DEBUG_VALUE: i <- $r9
	@DEBUG_VALUE: GetNetworkBoxes:num <- [DW_OP_plus_uconst 32] [$sp+0]
	@DEBUG_VALUE: GetNetworkBoxes:section1_1d <- [DW_OP_plus_uconst 16] [$sp+0]
	@DEBUG_VALUE: GetNetworkBoxes:wsizes <- [DW_OP_LLVM_fragment 0 32] $r8
	@DEBUG_VALUE: GetNetworkBoxes:net <- [DW_OP_plus_uconst 44] [$sp+0]
	@DEBUG_VALUE: GetNetworkBoxes:threshold <- $s16
	@DEBUG_VALUE: GetNetworkBoxes:this <- [DW_OP_LLVM_entry_value 1] $r0
	@DEBUG_VALUE: GetNetworkBoxes:detections <- [DW_OP_plus_uconst 184] [$sp+0]
	.loc	59 272 17 is_stmt 1             @ ../DetectorPostProcessing.cpp:272:17
	ldr	r1, [sp, #24]                   @ 4-byte Reload
	add	r2, sp, #48
	bl	_ZN3arm3app16object_detection22DetectorPostprocessing20InsertTopNDetectionsERNSt3__212forward_listINS0_5image9DetectionENS3_9allocatorIS6_EEEERS6_
.Ltmp207:
.LBB2_21:                               @   in Loop: Header=BB2_23 Depth=1
	@DEBUG_VALUE: GetNetworkBoxes:hsizes <- [DW_OP_plus_uconst 28, DW_OP_LLVM_fragment 0 32] [$sp+0]
	@DEBUG_VALUE: objectness <- $s28
	@DEBUG_VALUE: i <- $r9
	@DEBUG_VALUE: GetNetworkBoxes:section1_1d <- [DW_OP_plus_uconst 16] [$sp+0]
	@DEBUG_VALUE: GetNetworkBoxes:wsizes <- [DW_OP_LLVM_fragment 0 32] $r8
	@DEBUG_VALUE: GetNetworkBoxes:net <- [DW_OP_plus_uconst 44] [$sp+0]
	@DEBUG_VALUE: GetNetworkBoxes:threshold <- $s16
	@DEBUG_VALUE: GetNetworkBoxes:this <- [DW_OP_LLVM_entry_value 1] $r0
	@DEBUG_VALUE: GetNetworkBoxes:detections <- [DW_OP_plus_uconst 184] [$sp+0]
	@DEBUG_VALUE: GetNetworkBoxes:num <- $r7
	@DEBUG_VALUE: ~Detection:this <- [DW_OP_plus_uconst 48, DW_OP_stack_value] $sp
	@DEBUG_VALUE: ~vector:this <- [DW_OP_plus_uconst 48, DW_OP_plus_uconst 16, DW_OP_stack_value] $sp
	.loc	1 431 11                        @ C:\Keil_v5\ARM\ARMCLANG\Bin\..\include\libcxx\vector:431:11
	cmp.w	r11, #0
.Ltmp208:
	@DEBUG_VALUE: __clear:this <- [DW_OP_plus_uconst 48, DW_OP_plus_uconst 16, DW_OP_stack_value] $sp
	@DEBUG_VALUE: __base_destruct_at_end:this <- [DW_OP_plus_uconst 48, DW_OP_plus_uconst 16, DW_OP_stack_value] $sp
	@DEBUG_VALUE: __base_destruct_at_end:__new_last <- $r11
	@DEBUG_VALUE: __base_destruct_at_end:__soon_to_be_end <- [DW_OP_constu 4, DW_OP_minus, DW_OP_stack_value] undef
	@DEBUG_VALUE: deallocate:__a <- [DW_OP_plus_uconst 48, DW_OP_plus_uconst 16, DW_OP_plus_uconst 8, DW_OP_stack_value] $sp
	@DEBUG_VALUE: deallocate:__p <- $r11
	@DEBUG_VALUE: deallocate:__n <- [DW_OP_LLVM_arg 0, DW_OP_LLVM_arg 1, DW_OP_minus, DW_OP_constu 2, DW_OP_shra, DW_OP_stack_value] undef, undef
	@DEBUG_VALUE: deallocate:this <- [DW_OP_plus_uconst 48, DW_OP_plus_uconst 16, DW_OP_plus_uconst 8, DW_OP_stack_value] $sp
	@DEBUG_VALUE: deallocate:__p <- $r11
	@DEBUG_VALUE: deallocate:__n <- [DW_OP_LLVM_arg 0, DW_OP_LLVM_arg 1, DW_OP_minus, DW_OP_constu 2, DW_OP_shra, DW_OP_stack_value] undef, undef
	@DEBUG_VALUE: __libcpp_deallocate:__ptr <- $r11
	@DEBUG_VALUE: __libcpp_deallocate:__size <- [DW_OP_LLVM_arg 0, DW_OP_LLVM_arg 1, DW_OP_minus, DW_OP_constu 2, DW_OP_shra, DW_OP_constu 2, DW_OP_shl, DW_OP_stack_value] undef, undef
	@DEBUG_VALUE: __libcpp_deallocate:__align <- 4
	@DEBUG_VALUE: __do_deallocate_handle_size<>:__ptr <- $r11
	@DEBUG_VALUE: __do_deallocate_handle_size<>:__size <- [DW_OP_LLVM_arg 0, DW_OP_LLVM_arg 1, DW_OP_minus, DW_OP_constu 2, DW_OP_shra, DW_OP_constu 2, DW_OP_shl, DW_OP_stack_value] undef, undef
	@DEBUG_VALUE: __libcpp_operator_delete<void *>:__args <- $r11
	.loc	1 0 11 is_stmt 0                @ C:\Keil_v5\ARM\ARMCLANG\Bin\..\include\libcxx\vector:0:11
	str	r7, [sp, #32]                   @ 4-byte Spill
.Ltmp209:
	@DEBUG_VALUE: GetNetworkBoxes:num <- [DW_OP_plus_uconst 32] [$sp+0]
	@DEBUG_VALUE: GetNetworkBoxes:num <- [DW_OP_plus_uconst 32] [$sp+0]
	.loc	60 280 3 is_stmt 1              @ C:\Keil_v5\ARM\ARMCLANG\Bin\..\include\libcxx\new:280:3
	itt	ne
	movne	r0, r11
.Ltmp210:
	@DEBUG_VALUE: __base_destruct_at_end:__new_last <- $r0
	blne	_ZdlPv
.Ltmp211:
	.loc	1 1458 18                       @ C:\Keil_v5\ARM\ARMCLANG\Bin\..\include\libcxx\vector:1458:18
	ldr	r0, [r5, #12]
	ldrd	r7, r6, [sp, #12]               @ 8-byte Folded Reload
.Ltmp212:
	.loc	59 204 41                       @ ../DetectorPostProcessing.cpp:204:41
	ldr	r1, [r0]
	ldr.w	r12, [sp, #28]                  @ 4-byte Reload
.Ltmp213:
	@DEBUG_VALUE: GetNetworkBoxes:hsizes <- [DW_OP_LLVM_fragment 0 32] $r12
.LBB2_22:                               @   in Loop: Header=BB2_23 Depth=1
	@DEBUG_VALUE: i <- $r9
	@DEBUG_VALUE: GetNetworkBoxes:num <- [DW_OP_plus_uconst 32] [$sp+0]
	@DEBUG_VALUE: GetNetworkBoxes:section1_1d <- [DW_OP_plus_uconst 16] [$sp+0]
	@DEBUG_VALUE: GetNetworkBoxes:wsizes <- [DW_OP_LLVM_fragment 0 32] $r8
	@DEBUG_VALUE: GetNetworkBoxes:hsizes <- [DW_OP_LLVM_fragment 0 32] $r12
	@DEBUG_VALUE: GetNetworkBoxes:net <- [DW_OP_plus_uconst 44] [$sp+0]
	@DEBUG_VALUE: GetNetworkBoxes:threshold <- $s16
	@DEBUG_VALUE: GetNetworkBoxes:this <- [DW_OP_LLVM_entry_value 1] $r0
	@DEBUG_VALUE: GetNetworkBoxes:detections <- [DW_OP_plus_uconst 184] [$sp+0]
	@DEBUG_VALUE: GetNetworkBoxes:num <- [DW_OP_plus_uconst 32] [$sp+0]
	.loc	59 204 5 is_stmt 0              @ ../DetectorPostProcessing.cpp:204:5
	ldr	r2, [sp, #36]                   @ 4-byte Reload
.Ltmp214:
	.loc	59 204 53                       @ ../DetectorPostProcessing.cpp:204:53
	add.w	r9, r9, #1
.Ltmp215:
	@DEBUG_VALUE: operator[]:__n <- 0
	@DEBUG_VALUE: i <- $r9
	.loc	59 204 5                        @ ../DetectorPostProcessing.cpp:204:5
	cmp	r9, r1
	@DEBUG_VALUE: operator[]:this <- [DW_OP_plus_uconst 44, DW_OP_deref_size 4, DW_OP_plus_uconst 12, DW_OP_stack_value] $sp
	add	r2, r7
	str	r2, [sp, #36]                   @ 4-byte Spill
	bge.w	.LBB2_68
.Ltmp216:
.LBB2_23:                               @ =>This Loop Header: Depth=1
                                        @     Child Loop BB2_33 Depth 2
                                        @     Child Loop BB2_52 Depth 2
                                        @     Child Loop BB2_58 Depth 2
                                        @     Child Loop BB2_61 Depth 2
	@DEBUG_VALUE: GetNetworkBoxes:section1_1d <- [DW_OP_plus_uconst 16] [$sp+0]
	@DEBUG_VALUE: GetNetworkBoxes:wsizes <- [DW_OP_LLVM_fragment 0 32] $r8
	@DEBUG_VALUE: GetNetworkBoxes:hsizes <- [DW_OP_LLVM_fragment 0 32] $r12
	@DEBUG_VALUE: GetNetworkBoxes:net <- [DW_OP_plus_uconst 44] [$sp+0]
	@DEBUG_VALUE: GetNetworkBoxes:threshold <- $s16
	@DEBUG_VALUE: GetNetworkBoxes:this <- [DW_OP_LLVM_entry_value 1] $r0
	@DEBUG_VALUE: GetNetworkBoxes:detections <- [DW_OP_plus_uconst 184] [$sp+0]
	@DEBUG_VALUE: GetNetworkBoxes:num <- [DW_OP_plus_uconst 32] [$sp+0]
	@DEBUG_VALUE: i <- $r9
	@DEBUG_VALUE: bbox_obj_offset <- undef
	@DEBUG_VALUE: bbox_scr_offset <- [DW_OP_plus_uconst 5, DW_OP_stack_value] undef
	@DEBUG_VALUE: operator[]:__n <- 0
	.loc	59 208 64 is_stmt 1             @ ../DetectorPostProcessing.cpp:208:64
	ldr	r2, [r0, #4]
	.loc	59 208 96 is_stmt 0             @ ../DetectorPostProcessing.cpp:208:96
	vldr	s2, [r0, #12]
	.loc	59 206 52 is_stmt 1             @ ../DetectorPostProcessing.cpp:206:52
	mla	r3, r9, r7, r2
	.loc	59 208 96                       @ ../DetectorPostProcessing.cpp:208:96
	vcvt.f32.s32	s4, s2
	.loc	59 208 48 is_stmt 0             @ ../DetectorPostProcessing.cpp:208:48
	ldrsb.w	r3, [r3, #4]
	.loc	59 208 141                      @ ../DetectorPostProcessing.cpp:208:141
	vldr	s2, [r0, #8]
	.loc	59 208 48                       @ ../DetectorPostProcessing.cpp:208:48
	vmov	s0, r3
	vcvt.f32.s32	s0, s0
.Ltmp217:
	@DEBUG_VALUE: operator[]:__n <- 0
	@DEBUG_VALUE: operator[]:this <- [DW_OP_plus_uconst 44, DW_OP_deref_size 4, DW_OP_plus_uconst 12, DW_OP_stack_value] $sp
	@DEBUG_VALUE: operator[]:__n <- 0
	@DEBUG_VALUE: operator[]:this <- [DW_OP_plus_uconst 44, DW_OP_deref_size 4, DW_OP_plus_uconst 12, DW_OP_stack_value] $sp
	.loc	59 208 94                       @ ../DetectorPostProcessing.cpp:208:94
	vsub.f32	s0, s0, s4
	.loc	59 208 123                      @ ../DetectorPostProcessing.cpp:208:123
	vmul.f32	s28, s2, s0
.Ltmp218:
	@DEBUG_VALUE: objectness <- $s28
	.loc	59 210 13 is_stmt 1             @ ../DetectorPostProcessing.cpp:210:13
	vcmp.f32	s28, s16
	vmrs	APSR_nzcv, fpscr
.Ltmp219:
	@DEBUG_VALUE: operator[]:this <- [DW_OP_plus_uconst 44, DW_OP_deref_size 4, DW_OP_plus_uconst 12, DW_OP_stack_value] $sp
	.loc	59 0 13 is_stmt 0               @ ../DetectorPostProcessing.cpp:0:13
	ble	.LBB2_22
.Ltmp220:
@ %bb.24:                               @   in Loop: Header=BB2_23 Depth=1
	@DEBUG_VALUE: objectness <- $s28
	@DEBUG_VALUE: i <- $r9
	@DEBUG_VALUE: GetNetworkBoxes:num <- [DW_OP_plus_uconst 32] [$sp+0]
	@DEBUG_VALUE: GetNetworkBoxes:section1_1d <- [DW_OP_plus_uconst 16] [$sp+0]
	@DEBUG_VALUE: GetNetworkBoxes:wsizes <- [DW_OP_LLVM_fragment 0 32] $r8
	@DEBUG_VALUE: GetNetworkBoxes:hsizes <- [DW_OP_LLVM_fragment 0 32] $r12
	@DEBUG_VALUE: GetNetworkBoxes:net <- [DW_OP_plus_uconst 44] [$sp+0]
	@DEBUG_VALUE: GetNetworkBoxes:threshold <- $s16
	@DEBUG_VALUE: GetNetworkBoxes:this <- [DW_OP_LLVM_entry_value 1] $r0
	@DEBUG_VALUE: GetNetworkBoxes:detections <- [DW_OP_plus_uconst 184] [$sp+0]
	mul	r0, r9, r7
.Ltmp221:
	@DEBUG_VALUE: bbox_scr_offset <- [DW_OP_plus_uconst 5, DW_OP_stack_value] $r0
	movs	r3, #0
.Ltmp222:
	@DEBUG_VALUE: vector:this <- [DW_OP_plus_uconst 48, DW_OP_plus_uconst 16, DW_OP_stack_value] $sp
	@DEBUG_VALUE: Detection:this <- [DW_OP_plus_uconst 48, DW_OP_stack_value] $sp
	.loc	59 224 17 is_stmt 1             @ ../DetectorPostProcessing.cpp:224:17
	cmp	r9, r10
.Ltmp223:
	@DEBUG_VALUE: operator[]:this <- [DW_OP_plus_uconst 44, DW_OP_deref_size 4, DW_OP_plus_uconst 12, DW_OP_stack_value] $sp
	@DEBUG_VALUE: __compressed_pair_elem<std::nullptr_t, void>:this <- [DW_OP_plus_uconst 48, DW_OP_plus_uconst 24, DW_OP_stack_value] $sp
	@DEBUG_VALUE: __compressed_pair<std::nullptr_t, std::__2::__default_init_tag>:this <- [DW_OP_plus_uconst 48, DW_OP_plus_uconst 24, DW_OP_stack_value] $sp
	.loc	59 218 46                       @ ../DetectorPostProcessing.cpp:218:46
	ldrsb	r1, [r2, r0]
	add	r0, r2
.Ltmp224:
	vmov	s0, r1
	.loc	59 219 46                       @ ../DetectorPostProcessing.cpp:219:46
	ldrsb.w	r2, [r0, #1]
.Ltmp225:
	@DEBUG_VALUE: operator[]:__n <- 0
	@DEBUG_VALUE: operator[]:this <- [DW_OP_plus_uconst 44, DW_OP_deref_size 4, DW_OP_plus_uconst 12, DW_OP_stack_value] $sp
	@DEBUG_VALUE: operator[]:__n <- 0
	@DEBUG_VALUE: operator[]:this <- [DW_OP_plus_uconst 44, DW_OP_deref_size 4, DW_OP_plus_uconst 12, DW_OP_stack_value] $sp
	@DEBUG_VALUE: operator[]:__n <- 0
	@DEBUG_VALUE: operator[]:this <- [DW_OP_plus_uconst 44, DW_OP_deref_size 4, DW_OP_plus_uconst 12, DW_OP_stack_value] $sp
	.loc	59 218 46                       @ ../DetectorPostProcessing.cpp:218:46
	vcvt.f32.s32	s0, s0
.Ltmp226:
	@DEBUG_VALUE: operator[]:__n <- 0
	@DEBUG_VALUE: operator[]:this <- [DW_OP_plus_uconst 44, DW_OP_deref_size 4, DW_OP_plus_uconst 12, DW_OP_stack_value] $sp
	.loc	59 220 46                       @ ../DetectorPostProcessing.cpp:220:46
	ldrsb.w	r1, [r0, #2]
.Ltmp227:
	@DEBUG_VALUE: operator[]:__n <- 0
	@DEBUG_VALUE: operator[]:this <- [DW_OP_plus_uconst 44, DW_OP_deref_size 4, DW_OP_plus_uconst 12, DW_OP_stack_value] $sp
	@DEBUG_VALUE: operator[]:__n <- 0
	@DEBUG_VALUE: operator[]:this <- [DW_OP_plus_uconst 44, DW_OP_deref_size 4, DW_OP_plus_uconst 12, DW_OP_stack_value] $sp
	@DEBUG_VALUE: operator[]:__n <- 0
	@DEBUG_VALUE: operator[]:this <- [DW_OP_plus_uconst 44, DW_OP_deref_size 4, DW_OP_plus_uconst 12, DW_OP_stack_value] $sp
	.loc	59 218 90                       @ ../DetectorPostProcessing.cpp:218:90
	vsub.f32	s0, s0, s4
.Ltmp228:
	@DEBUG_VALUE: operator[]:__n <- 0
	@DEBUG_VALUE: operator[]:this <- [DW_OP_plus_uconst 44, DW_OP_deref_size 4, DW_OP_plus_uconst 12, DW_OP_stack_value] $sp
	.loc	59 221 46                       @ ../DetectorPostProcessing.cpp:221:46
	ldrsb.w	r0, [r0, #3]
.Ltmp229:
	@DEBUG_VALUE: operator[]:__n <- 0
	@DEBUG_VALUE: operator[]:this <- [DW_OP_plus_uconst 44, DW_OP_deref_size 4, DW_OP_plus_uconst 12, DW_OP_stack_value] $sp
	@DEBUG_VALUE: operator[]:__n <- 0
	@DEBUG_VALUE: operator[]:this <- [DW_OP_plus_uconst 44, DW_OP_deref_size 4, DW_OP_plus_uconst 12, DW_OP_stack_value] $sp
	.loc	59 218 119                      @ ../DetectorPostProcessing.cpp:218:119
	vmul.f32	s0, s2, s0
.Ltmp230:
	@DEBUG_VALUE: operator[]:__n <- 0
	@DEBUG_VALUE: operator[]:this <- [DW_OP_plus_uconst 44, DW_OP_deref_size 4, DW_OP_plus_uconst 12, DW_OP_stack_value] $sp
	.loc	1 667 13                        @ C:\Keil_v5\ARM\ARMCLANG\Bin\..\include\libcxx\vector:667:13
	str	r3, [sp, #68]
.Ltmp231:
	@DEBUG_VALUE: __compressed_pair_elem<std::nullptr_t, void>:__u <- undef
	@DEBUG_VALUE: __compressed_pair<std::nullptr_t, std::__2::__default_init_tag>:__t2 <- undef
	@DEBUG_VALUE: __compressed_pair<std::nullptr_t, std::__2::__default_init_tag>:__t1 <- undef
	.loc	11 41 48                        @ C:\Keil_v5\ARM\ARMCLANG\Bin\..\include\libcxx\__memory/compressed_pair.h:41:48
	str	r3, [sp, #72]
.Ltmp232:
	@DEBUG_VALUE: operator[]:__n <- 0
	@DEBUG_VALUE: bbox_h_offset <- undef
	@DEBUG_VALUE: bbox_w_offset <- undef
	@DEBUG_VALUE: bbox_y_offset <- undef
	@DEBUG_VALUE: bbox_x_offset <- undef
	@DEBUG_VALUE: vector:this <- [DW_OP_plus_uconst 48, DW_OP_plus_uconst 16, DW_OP_stack_value] $sp
	@DEBUG_VALUE: Detection:this <- [DW_OP_plus_uconst 48, DW_OP_stack_value] $sp
	.loc	11 0 48 is_stmt 0               @ C:\Keil_v5\ARM\ARMCLANG\Bin\..\include\libcxx\__memory/compressed_pair.h:0:48
	bge	.LBB2_26
.Ltmp233:
@ %bb.25:                               @   in Loop: Header=BB2_23 Depth=1
	@DEBUG_VALUE: objectness <- $s28
	@DEBUG_VALUE: i <- $r9
	@DEBUG_VALUE: GetNetworkBoxes:num <- [DW_OP_plus_uconst 32] [$sp+0]
	@DEBUG_VALUE: GetNetworkBoxes:section1_1d <- [DW_OP_plus_uconst 16] [$sp+0]
	@DEBUG_VALUE: GetNetworkBoxes:wsizes <- [DW_OP_LLVM_fragment 0 32] $r8
	@DEBUG_VALUE: GetNetworkBoxes:hsizes <- [DW_OP_LLVM_fragment 0 32] $r12
	@DEBUG_VALUE: GetNetworkBoxes:net <- [DW_OP_plus_uconst 44] [$sp+0]
	@DEBUG_VALUE: GetNetworkBoxes:threshold <- $s16
	@DEBUG_VALUE: GetNetworkBoxes:this <- [DW_OP_LLVM_entry_value 1] $r0
	@DEBUG_VALUE: GetNetworkBoxes:detections <- [DW_OP_plus_uconst 184] [$sp+0]
	@DEBUG_VALUE: operator[]:this <- undef
	@DEBUG_VALUE: operator[]:__n <- 0
	.loc	59 226 49 is_stmt 1             @ ../DetectorPostProcessing.cpp:226:49
	ldr.w	r3, [r8]
	vmov.f32	s30, s20
	.loc	59 226 47 is_stmt 0             @ ../DetectorPostProcessing.cpp:226:47
	sdiv	r7, r9, r3
	mls	r3, r7, r3, r9
	mov	r7, r12
	.loc	59 226 44                       @ ../DetectorPostProcessing.cpp:226:44
	vmov	s6, r3
	mov	r3, r9
	vcvt.f32.s32	s6, s6
	.loc	59 226 42                       @ ../DetectorPostProcessing.cpp:226:42
	vadd.f32	s0, s0, s6
	.loc	59 226 61                       @ ../DetectorPostProcessing.cpp:226:61
	vmul.f32	s0, s0, s20
	b	.LBB2_29
.Ltmp234:
	.p2align	2
.LBB2_26:                               @   in Loop: Header=BB2_23 Depth=1
	@DEBUG_VALUE: objectness <- $s28
	@DEBUG_VALUE: i <- $r9
	@DEBUG_VALUE: GetNetworkBoxes:num <- [DW_OP_plus_uconst 32] [$sp+0]
	@DEBUG_VALUE: GetNetworkBoxes:section1_1d <- [DW_OP_plus_uconst 16] [$sp+0]
	@DEBUG_VALUE: GetNetworkBoxes:wsizes <- [DW_OP_LLVM_fragment 0 32] $r8
	@DEBUG_VALUE: GetNetworkBoxes:hsizes <- [DW_OP_LLVM_fragment 0 32] $r12
	@DEBUG_VALUE: GetNetworkBoxes:net <- [DW_OP_plus_uconst 44] [$sp+0]
	@DEBUG_VALUE: GetNetworkBoxes:threshold <- $s16
	@DEBUG_VALUE: GetNetworkBoxes:this <- [DW_OP_LLVM_entry_value 1] $r0
	@DEBUG_VALUE: GetNetworkBoxes:detections <- [DW_OP_plus_uconst 184] [$sp+0]
	@DEBUG_VALUE: operator[]:this <- undef
	@DEBUG_VALUE: operator[]:this <- undef
	@DEBUG_VALUE: exp:__lcpp_x <- undef
	@DEBUG_VALUE: exp:__lcpp_x <- undef
	.loc	59 232 22 is_stmt 1             @ ../DetectorPostProcessing.cpp:232:22
	cmp	r9, r6
	bge	.LBB2_28
.Ltmp235:
@ %bb.27:                               @   in Loop: Header=BB2_23 Depth=1
	@DEBUG_VALUE: objectness <- $s28
	@DEBUG_VALUE: i <- $r9
	@DEBUG_VALUE: GetNetworkBoxes:num <- [DW_OP_plus_uconst 32] [$sp+0]
	@DEBUG_VALUE: GetNetworkBoxes:section1_1d <- [DW_OP_plus_uconst 16] [$sp+0]
	@DEBUG_VALUE: GetNetworkBoxes:wsizes <- [DW_OP_LLVM_fragment 0 32] $r8
	@DEBUG_VALUE: GetNetworkBoxes:hsizes <- [DW_OP_LLVM_fragment 0 32] $r12
	@DEBUG_VALUE: GetNetworkBoxes:net <- [DW_OP_plus_uconst 44] [$sp+0]
	@DEBUG_VALUE: GetNetworkBoxes:threshold <- $s16
	@DEBUG_VALUE: GetNetworkBoxes:this <- [DW_OP_LLVM_entry_value 1] $r0
	@DEBUG_VALUE: GetNetworkBoxes:detections <- [DW_OP_plus_uconst 184] [$sp+0]
	.loc	59 236 57                       @ ../DetectorPostProcessing.cpp:236:57
	ldr.w	r7, [r8, #4]
	.loc	59 234 35                       @ ../DetectorPostProcessing.cpp:234:35
	sub.w	r3, r9, r10
.Ltmp236:
	@DEBUG_VALUE: operator[]:__n <- 1
	@DEBUG_VALUE: operator[]:this <- undef
	@DEBUG_VALUE: section_i <- $r3
	.loc	59 236 55                       @ ../DetectorPostProcessing.cpp:236:55
	sdiv	r6, r3, r7
	vmov.f32	s30, s24
	mls	r7, r6, r7, r3
	.loc	59 236 44 is_stmt 0             @ ../DetectorPostProcessing.cpp:236:44
	vmov	s6, r7
	ldr	r7, [sp, #4]                    @ 4-byte Reload
	vcvt.f32.s32	s6, s6
	.loc	59 236 42                       @ ../DetectorPostProcessing.cpp:236:42
	vadd.f32	s0, s0, s6
	.loc	59 236 69                       @ ../DetectorPostProcessing.cpp:236:69
	vmul.f32	s0, s0, s24
	b	.LBB2_29
.Ltmp237:
.LBB2_28:                               @   in Loop: Header=BB2_23 Depth=1
	@DEBUG_VALUE: objectness <- $s28
	@DEBUG_VALUE: i <- $r9
	@DEBUG_VALUE: GetNetworkBoxes:num <- [DW_OP_plus_uconst 32] [$sp+0]
	@DEBUG_VALUE: GetNetworkBoxes:section1_1d <- [DW_OP_plus_uconst 16] [$sp+0]
	@DEBUG_VALUE: GetNetworkBoxes:wsizes <- [DW_OP_LLVM_fragment 0 32] $r8
	@DEBUG_VALUE: GetNetworkBoxes:hsizes <- [DW_OP_LLVM_fragment 0 32] $r12
	@DEBUG_VALUE: GetNetworkBoxes:net <- [DW_OP_plus_uconst 44] [$sp+0]
	@DEBUG_VALUE: GetNetworkBoxes:threshold <- $s16
	@DEBUG_VALUE: GetNetworkBoxes:this <- [DW_OP_LLVM_entry_value 1] $r0
	@DEBUG_VALUE: GetNetworkBoxes:detections <- [DW_OP_plus_uconst 184] [$sp+0]
	.loc	59 245 57 is_stmt 1             @ ../DetectorPostProcessing.cpp:245:57
	ldr.w	r7, [r8, #8]
	.loc	59 243 35                       @ ../DetectorPostProcessing.cpp:243:35
	sub.w	r3, r9, r6
.Ltmp238:
	@DEBUG_VALUE: operator[]:__n <- 2
	@DEBUG_VALUE: operator[]:this <- undef
	@DEBUG_VALUE: section_i <- $r3
	.loc	59 245 55                       @ ../DetectorPostProcessing.cpp:245:55
	sdiv	r6, r3, r7
	vmov.f32	s30, s26
	mls	r7, r6, r7, r3
	.loc	59 245 44 is_stmt 0             @ ../DetectorPostProcessing.cpp:245:44
	vmov	s6, r7
	ldr	r7, [sp]                        @ 4-byte Reload
	vcvt.f32.s32	s6, s6
	.loc	59 245 42                       @ ../DetectorPostProcessing.cpp:245:42
	vadd.f32	s0, s0, s6
	.loc	59 245 69                       @ ../DetectorPostProcessing.cpp:245:69
	vmul.f32	s0, s0, s26
.Ltmp239:
.LBB2_29:                               @   in Loop: Header=BB2_23 Depth=1
	@DEBUG_VALUE: objectness <- $s28
	@DEBUG_VALUE: i <- $r9
	@DEBUG_VALUE: GetNetworkBoxes:num <- [DW_OP_plus_uconst 32] [$sp+0]
	@DEBUG_VALUE: GetNetworkBoxes:section1_1d <- [DW_OP_plus_uconst 16] [$sp+0]
	@DEBUG_VALUE: GetNetworkBoxes:wsizes <- [DW_OP_LLVM_fragment 0 32] $r8
	@DEBUG_VALUE: GetNetworkBoxes:hsizes <- [DW_OP_LLVM_fragment 0 32] $r12
	@DEBUG_VALUE: GetNetworkBoxes:net <- [DW_OP_plus_uconst 44] [$sp+0]
	@DEBUG_VALUE: GetNetworkBoxes:threshold <- $s16
	@DEBUG_VALUE: GetNetworkBoxes:this <- [DW_OP_LLVM_entry_value 1] $r0
	@DEBUG_VALUE: GetNetworkBoxes:detections <- [DW_OP_plus_uconst 184] [$sp+0]
	.loc	59 0 0                          @ ../DetectorPostProcessing.cpp:0:0
	vstr	s0, [sp, #48]
.Ltmp240:
	@DEBUG_VALUE: exp:__lcpp_x <- undef
	@DEBUG_VALUE: operator[]:__n <- 2
	vmov	s0, r2
.Ltmp241:
	ldr	r2, [r7]
.Ltmp242:
	vcvt.f32.s32	s0, s0
	vmov	s6, r1
.Ltmp243:
	sdiv	r1, r3, r2
.Ltmp244:
	vsub.f32	s0, s0, s4
.Ltmp245:
	vmov	s8, r1
.Ltmp246:
	vmul.f32	s0, s2, s0
.Ltmp247:
	vcvt.f32.s32	s8, s8
.Ltmp248:
	vcvt.f32.s32	s6, s6
.Ltmp249:
	vadd.f32	s8, s0, s8
.Ltmp250:
	vmov	s0, r0
	vsub.f32	s6, s6, s4
	vcvt.f32.s32	s10, s0
	vmul.f32	s0, s2, s6
	vsub.f32	s4, s10, s4
.Ltmp251:
	vmul.f32	s6, s8, s30
	str.w	r12, [sp, #28]                  @ 4-byte Spill
.Ltmp252:
	@DEBUG_VALUE: GetNetworkBoxes:hsizes <- [DW_OP_plus_uconst 28, DW_OP_LLVM_fragment 0 32] [$sp+0]
	@DEBUG_VALUE: GetNetworkBoxes:hsizes <- [DW_OP_plus_uconst 28, DW_OP_LLVM_fragment 0 32] [$sp+0]
	vmul.f32	s18, s2, s4
.Ltmp253:
	vstr	s6, [sp, #52]
	bl	__hardfp_expf
.Ltmp254:
	vmul.f32	s0, s0, s30
	vstr	s0, [sp, #56]
	vmov.f32	s0, s18
	bl	__hardfp_expf
.Ltmp255:
	vmul.f32	s0, s0, s30
.Ltmp256:
	.loc	59 251 13 is_stmt 1             @ ../DetectorPostProcessing.cpp:251:13
	cmp	r4, #1
.Ltmp257:
	.loc	59 0 0 is_stmt 0                @ ../DetectorPostProcessing.cpp:0:0
	vstr	s0, [sp, #60]
.Ltmp258:
	@DEBUG_VALUE: j <- 0
	.loc	59 251 13                       @ ../DetectorPostProcessing.cpp:251:13
	blt	.LBB2_41
.Ltmp259:
@ %bb.30:                               @   in Loop: Header=BB2_23 Depth=1
	@DEBUG_VALUE: j <- 0
	@DEBUG_VALUE: GetNetworkBoxes:hsizes <- [DW_OP_plus_uconst 28, DW_OP_LLVM_fragment 0 32] [$sp+0]
	@DEBUG_VALUE: operator[]:__n <- 2
	@DEBUG_VALUE: objectness <- $s28
	@DEBUG_VALUE: i <- $r9
	@DEBUG_VALUE: GetNetworkBoxes:num <- [DW_OP_plus_uconst 32] [$sp+0]
	@DEBUG_VALUE: GetNetworkBoxes:section1_1d <- [DW_OP_plus_uconst 16] [$sp+0]
	@DEBUG_VALUE: GetNetworkBoxes:wsizes <- [DW_OP_LLVM_fragment 0 32] $r8
	@DEBUG_VALUE: GetNetworkBoxes:net <- [DW_OP_plus_uconst 44] [$sp+0]
	@DEBUG_VALUE: GetNetworkBoxes:threshold <- $s16
	@DEBUG_VALUE: GetNetworkBoxes:this <- [DW_OP_LLVM_entry_value 1] $r0
	@DEBUG_VALUE: GetNetworkBoxes:detections <- [DW_OP_plus_uconst 184] [$sp+0]
	.loc	59 0 13                         @ ../DetectorPostProcessing.cpp:0:13
	str.w	r8, [sp, #40]                   @ 4-byte Spill
.Ltmp260:
	@DEBUG_VALUE: GetNetworkBoxes:wsizes <- [DW_OP_plus_uconst 40, DW_OP_LLVM_fragment 0 32] [$sp+0]
	@DEBUG_VALUE: GetNetworkBoxes:wsizes <- [DW_OP_plus_uconst 40, DW_OP_LLVM_fragment 0 32] [$sp+0]
	mov.w	r10, #0
	ldr	r7, [sp, #36]                   @ 4-byte Reload
	mov	r8, r4
.Ltmp261:
	@DEBUG_VALUE: GetNetworkBoxes:numClasses <- $r8
	movs	r4, #0
	mov.w	r11, #0
	b	.LBB2_33
.Ltmp262:
	.p2align	2
.LBB2_31:                               @   in Loop: Header=BB2_33 Depth=2
	@DEBUG_VALUE: emplace_back<float>:this <- [DW_OP_plus_uconst 48, DW_OP_plus_uconst 16, DW_OP_stack_value] $sp
	@DEBUG_VALUE: sig <- $s0
	@DEBUG_VALUE: j <- [DW_OP_LLVM_arg 0, DW_OP_LLVM_arg 1, DW_OP_plus_uconst 20, DW_OP_deref, DW_OP_minus, DW_OP_consts 18446744073709551615, DW_OP_div, DW_OP_stack_value] $r8, $sp
	@DEBUG_VALUE: GetNetworkBoxes:hsizes <- [DW_OP_plus_uconst 28, DW_OP_LLVM_fragment 0 32] [$sp+0]
	@DEBUG_VALUE: objectness <- $s28
	@DEBUG_VALUE: i <- $r9
	@DEBUG_VALUE: GetNetworkBoxes:num <- [DW_OP_plus_uconst 32] [$sp+0]
	@DEBUG_VALUE: GetNetworkBoxes:section1_1d <- [DW_OP_plus_uconst 16] [$sp+0]
	@DEBUG_VALUE: GetNetworkBoxes:wsizes <- [DW_OP_plus_uconst 40, DW_OP_LLVM_fragment 0 32] [$sp+0]
	@DEBUG_VALUE: GetNetworkBoxes:net <- [DW_OP_plus_uconst 44] [$sp+0]
	@DEBUG_VALUE: GetNetworkBoxes:threshold <- $s16
	@DEBUG_VALUE: GetNetworkBoxes:this <- [DW_OP_LLVM_entry_value 1] $r0
	@DEBUG_VALUE: GetNetworkBoxes:detections <- [DW_OP_plus_uconst 184] [$sp+0]
	@DEBUG_VALUE: __construct_one_at_end<float>:this <- [DW_OP_plus_uconst 48, DW_OP_plus_uconst 16, DW_OP_stack_value] $sp
	@DEBUG_VALUE: __construct_one_at_end<float>:__args <- undef
	@DEBUG_VALUE: __construct_one_at_end<float>:__tx <- [DW_OP_plus_uconst 48, DW_OP_plus_uconst 16, DW_OP_stack_value, DW_OP_LLVM_fragment 0 32] $sp
	@DEBUG_VALUE: __construct_one_at_end<float>:__tx <- [DW_OP_LLVM_fragment 32 32] $r4
	@DEBUG_VALUE: __construct_one_at_end<float>:__tx <- [DW_OP_plus_uconst 4, DW_OP_stack_value, DW_OP_LLVM_fragment 64 32] $r4
	@DEBUG_VALUE: construct<float, float, void>:__a <- [DW_OP_plus_uconst 48, DW_OP_plus_uconst 16, DW_OP_plus_uconst 8, DW_OP_stack_value] $sp
	@DEBUG_VALUE: construct<float, float, void>:__p <- $r4
	@DEBUG_VALUE: construct<float, float, void>:__args <- undef
	@DEBUG_VALUE: construct<float, float>:this <- [DW_OP_plus_uconst 48, DW_OP_plus_uconst 16, DW_OP_plus_uconst 8, DW_OP_stack_value] $sp
	@DEBUG_VALUE: construct<float, float>:__p <- $r4
	@DEBUG_VALUE: construct<float, float>:__args <- undef
	.loc	8 165 9 is_stmt 1               @ C:\Keil_v5\ARM\ARMCLANG\Bin\..\include\libcxx\__memory/allocator.h:165:9
	vstmia	r4!, {s18}
.Ltmp263:
	@DEBUG_VALUE: ~_ConstructTransaction:this <- undef
	@DEBUG_VALUE: __construct_one_at_end<float>:__tx <- [DW_OP_LLVM_fragment 32 32] $r4
.LBB2_32:                               @   in Loop: Header=BB2_33 Depth=2
	@DEBUG_VALUE: j <- [DW_OP_LLVM_arg 0, DW_OP_LLVM_arg 1, DW_OP_plus_uconst 20, DW_OP_deref, DW_OP_minus, DW_OP_consts 18446744073709551615, DW_OP_div, DW_OP_stack_value] $r8, $sp
	@DEBUG_VALUE: GetNetworkBoxes:hsizes <- [DW_OP_plus_uconst 28, DW_OP_LLVM_fragment 0 32] [$sp+0]
	@DEBUG_VALUE: objectness <- $s28
	@DEBUG_VALUE: i <- $r9
	@DEBUG_VALUE: GetNetworkBoxes:num <- [DW_OP_plus_uconst 32] [$sp+0]
	@DEBUG_VALUE: GetNetworkBoxes:section1_1d <- [DW_OP_plus_uconst 16] [$sp+0]
	@DEBUG_VALUE: GetNetworkBoxes:wsizes <- [DW_OP_plus_uconst 40, DW_OP_LLVM_fragment 0 32] [$sp+0]
	@DEBUG_VALUE: GetNetworkBoxes:net <- [DW_OP_plus_uconst 44] [$sp+0]
	@DEBUG_VALUE: GetNetworkBoxes:threshold <- $s16
	@DEBUG_VALUE: GetNetworkBoxes:this <- [DW_OP_LLVM_entry_value 1] $r0
	@DEBUG_VALUE: GetNetworkBoxes:detections <- [DW_OP_plus_uconst 184] [$sp+0]
	@DEBUG_VALUE: j <- [DW_OP_LLVM_arg 0, DW_OP_LLVM_arg 1, DW_OP_plus_uconst 20, DW_OP_deref, DW_OP_minus, DW_OP_consts 18446744073709551615, DW_OP_div, DW_OP_consts 1, DW_OP_plus, DW_OP_stack_value] $r8, $sp
	.loc	59 251 31                       @ ../DetectorPostProcessing.cpp:251:31
	subs.w	r8, r8, #1
.Ltmp264:
	add.w	r7, r7, #1
.Ltmp265:
	.loc	59 251 13 is_stmt 0             @ ../DetectorPostProcessing.cpp:251:13
	beq	.LBB2_40
.Ltmp266:
.LBB2_33:                               @   Parent Loop BB2_23 Depth=1
                                        @ =>  This Inner Loop Header: Depth=2
	@DEBUG_VALUE: GetNetworkBoxes:hsizes <- [DW_OP_plus_uconst 28, DW_OP_LLVM_fragment 0 32] [$sp+0]
	@DEBUG_VALUE: objectness <- $s28
	@DEBUG_VALUE: i <- $r9
	@DEBUG_VALUE: GetNetworkBoxes:num <- [DW_OP_plus_uconst 32] [$sp+0]
	@DEBUG_VALUE: GetNetworkBoxes:section1_1d <- [DW_OP_plus_uconst 16] [$sp+0]
	@DEBUG_VALUE: GetNetworkBoxes:wsizes <- [DW_OP_plus_uconst 40, DW_OP_LLVM_fragment 0 32] [$sp+0]
	@DEBUG_VALUE: GetNetworkBoxes:net <- [DW_OP_plus_uconst 44] [$sp+0]
	@DEBUG_VALUE: GetNetworkBoxes:threshold <- $s16
	@DEBUG_VALUE: GetNetworkBoxes:this <- [DW_OP_LLVM_entry_value 1] $r0
	@DEBUG_VALUE: GetNetworkBoxes:detections <- [DW_OP_plus_uconst 184] [$sp+0]
	@DEBUG_VALUE: j <- [DW_OP_LLVM_arg 0, DW_OP_LLVM_arg 1, DW_OP_plus_uconst 20, DW_OP_deref, DW_OP_minus, DW_OP_consts 18446744073709551615, DW_OP_div, DW_OP_stack_value] $r8, $sp
	@DEBUG_VALUE: operator[]:__n <- 0
	.loc	1 1458 18 is_stmt 1             @ C:\Keil_v5\ARM\ARMCLANG\Bin\..\include\libcxx\vector:1458:18
	ldr	r0, [r5, #12]
.Ltmp267:
	.loc	59 253 65                       @ ../DetectorPostProcessing.cpp:253:65
	ldr	r1, [r0, #4]
	.loc	59 253 101 is_stmt 0            @ ../DetectorPostProcessing.cpp:253:101
	vldr	s2, [r0, #12]
	.loc	59 253 49                       @ ../DetectorPostProcessing.cpp:253:49
	ldrsb	r1, [r1, r7]
	.loc	59 253 101                      @ ../DetectorPostProcessing.cpp:253:101
	vcvt.f32.s32	s2, s2
	.loc	59 253 49                       @ ../DetectorPostProcessing.cpp:253:49
	vmov	s0, r1
	.loc	59 253 146                      @ ../DetectorPostProcessing.cpp:253:146
	vldr	s4, [r0, #8]
	.loc	59 253 49                       @ ../DetectorPostProcessing.cpp:253:49
	vcvt.f32.s32	s0, s0
.Ltmp268:
	@DEBUG_VALUE: operator[]:this <- [DW_OP_plus_uconst 44, DW_OP_deref_size 4, DW_OP_plus_uconst 12, DW_OP_stack_value] $sp
	@DEBUG_VALUE: operator[]:__n <- 0
	@DEBUG_VALUE: operator[]:this <- [DW_OP_plus_uconst 44, DW_OP_deref_size 4, DW_OP_plus_uconst 12, DW_OP_stack_value] $sp
	@DEBUG_VALUE: operator[]:this <- [DW_OP_plus_uconst 44, DW_OP_deref_size 4, DW_OP_plus_uconst 12, DW_OP_stack_value] $sp
	@DEBUG_VALUE: operator[]:__n <- 0
	.loc	59 253 99                       @ ../DetectorPostProcessing.cpp:253:99
	vsub.f32	s0, s0, s2
	.loc	59 253 128                      @ ../DetectorPostProcessing.cpp:253:128
	vmul.f32	s0, s4, s0
	.loc	59 253 152                      @ ../DetectorPostProcessing.cpp:253:152
	vmul.f32	s0, s28, s0
.Ltmp269:
	@DEBUG_VALUE: sig <- $s0
	.loc	59 254 39 is_stmt 1             @ ../DetectorPostProcessing.cpp:254:39
	vcmp.f32	s0, s16
	vmrs	APSR_nzcv, fpscr
	vselgt.f32	s18, s0, s22
.Ltmp270:
	@DEBUG_VALUE: emplace_back<float>:__args <- undef
	@DEBUG_VALUE: emplace_back<float>:this <- [DW_OP_plus_uconst 48, DW_OP_plus_uconst 16, DW_OP_stack_value] $sp
	.loc	1 1596 9                        @ C:\Keil_v5\ARM\ARMCLANG\Bin\..\include\libcxx\vector:1596:9
	cmp	r4, r10
	blo	.LBB2_31
.Ltmp271:
@ %bb.34:                               @   in Loop: Header=BB2_33 Depth=2
	@DEBUG_VALUE: emplace_back<float>:this <- [DW_OP_plus_uconst 48, DW_OP_plus_uconst 16, DW_OP_stack_value] $sp
	@DEBUG_VALUE: sig <- $s0
	@DEBUG_VALUE: j <- [DW_OP_LLVM_arg 0, DW_OP_LLVM_arg 1, DW_OP_plus_uconst 20, DW_OP_deref, DW_OP_minus, DW_OP_consts 18446744073709551615, DW_OP_div, DW_OP_stack_value] $r8, $sp
	@DEBUG_VALUE: GetNetworkBoxes:hsizes <- [DW_OP_plus_uconst 28, DW_OP_LLVM_fragment 0 32] [$sp+0]
	@DEBUG_VALUE: objectness <- $s28
	@DEBUG_VALUE: i <- $r9
	@DEBUG_VALUE: GetNetworkBoxes:num <- [DW_OP_plus_uconst 32] [$sp+0]
	@DEBUG_VALUE: GetNetworkBoxes:section1_1d <- [DW_OP_plus_uconst 16] [$sp+0]
	@DEBUG_VALUE: GetNetworkBoxes:wsizes <- [DW_OP_plus_uconst 40, DW_OP_LLVM_fragment 0 32] [$sp+0]
	@DEBUG_VALUE: GetNetworkBoxes:net <- [DW_OP_plus_uconst 44] [$sp+0]
	@DEBUG_VALUE: GetNetworkBoxes:threshold <- $s16
	@DEBUG_VALUE: GetNetworkBoxes:this <- [DW_OP_LLVM_entry_value 1] $r0
	@DEBUG_VALUE: GetNetworkBoxes:detections <- [DW_OP_plus_uconst 184] [$sp+0]
	@DEBUG_VALUE: __emplace_back_slow_path<float>:this <- [DW_OP_plus_uconst 48, DW_OP_plus_uconst 16, DW_OP_stack_value] $sp
	@DEBUG_VALUE: __emplace_back_slow_path<float>:__args <- undef
	@DEBUG_VALUE: __emplace_back_slow_path<float>:__a <- [DW_OP_plus_uconst 48, DW_OP_plus_uconst 16, DW_OP_plus_uconst 8, DW_OP_stack_value] $sp
	@DEBUG_VALUE: size:this <- [DW_OP_plus_uconst 48, DW_OP_plus_uconst 16, DW_OP_stack_value] $sp
	.loc	1 535 53                        @ C:\Keil_v5\ARM\ARMCLANG\Bin\..\include\libcxx\vector:535:53
	sub.w	r6, r4, r11
.Ltmp272:
	.loc	1 1578 72                       @ C:\Keil_v5\ARM\ARMCLANG\Bin\..\include\libcxx\vector:1578:72
	movs	r0, #1
	add.w	r4, r0, r6, asr #2
.Ltmp273:
	@DEBUG_VALUE: __recommend:__ms <- 1073741823
	@DEBUG_VALUE: __recommend:this <- [DW_OP_plus_uconst 48, DW_OP_plus_uconst 16, DW_OP_stack_value] $sp
	@DEBUG_VALUE: __recommend:__new_size <- $r4
	.loc	1 977 9                         @ C:\Keil_v5\ARM\ARMCLANG\Bin\..\include\libcxx\vector:977:9
	cmp.w	r4, #1073741824
	bhs.w	.LBB2_69
.Ltmp274:
@ %bb.35:                               @   in Loop: Header=BB2_33 Depth=2
	@DEBUG_VALUE: __recommend:__new_size <- $r4
	@DEBUG_VALUE: __recommend:this <- [DW_OP_plus_uconst 48, DW_OP_plus_uconst 16, DW_OP_stack_value] $sp
	@DEBUG_VALUE: __recommend:__ms <- 1073741823
	@DEBUG_VALUE: __emplace_back_slow_path<float>:__a <- [DW_OP_plus_uconst 48, DW_OP_plus_uconst 16, DW_OP_plus_uconst 8, DW_OP_stack_value] $sp
	@DEBUG_VALUE: __emplace_back_slow_path<float>:this <- [DW_OP_plus_uconst 48, DW_OP_plus_uconst 16, DW_OP_stack_value] $sp
	@DEBUG_VALUE: emplace_back<float>:this <- [DW_OP_plus_uconst 48, DW_OP_plus_uconst 16, DW_OP_stack_value] $sp
	@DEBUG_VALUE: sig <- $s0
	@DEBUG_VALUE: j <- [DW_OP_LLVM_arg 0, DW_OP_LLVM_arg 1, DW_OP_plus_uconst 20, DW_OP_deref, DW_OP_minus, DW_OP_consts 18446744073709551615, DW_OP_div, DW_OP_stack_value] $r8, $sp
	@DEBUG_VALUE: GetNetworkBoxes:hsizes <- [DW_OP_plus_uconst 28, DW_OP_LLVM_fragment 0 32] [$sp+0]
	@DEBUG_VALUE: objectness <- $s28
	@DEBUG_VALUE: i <- $r9
	@DEBUG_VALUE: GetNetworkBoxes:num <- [DW_OP_plus_uconst 32] [$sp+0]
	@DEBUG_VALUE: GetNetworkBoxes:section1_1d <- [DW_OP_plus_uconst 16] [$sp+0]
	@DEBUG_VALUE: GetNetworkBoxes:wsizes <- [DW_OP_plus_uconst 40, DW_OP_LLVM_fragment 0 32] [$sp+0]
	@DEBUG_VALUE: GetNetworkBoxes:net <- [DW_OP_plus_uconst 44] [$sp+0]
	@DEBUG_VALUE: GetNetworkBoxes:threshold <- $s16
	@DEBUG_VALUE: GetNetworkBoxes:this <- [DW_OP_LLVM_entry_value 1] $r0
	@DEBUG_VALUE: GetNetworkBoxes:detections <- [DW_OP_plus_uconst 184] [$sp+0]
	@DEBUG_VALUE: capacity:this <- [DW_OP_plus_uconst 48, DW_OP_plus_uconst 16, DW_OP_stack_value] $sp
	.loc	1 538 52                        @ C:\Keil_v5\ARM\ARMCLANG\Bin\..\include\libcxx\vector:538:52
	sub.w	r0, r10, r11
.Ltmp275:
	@DEBUG_VALUE: __recommend:__cap <- [DW_OP_constu 2, DW_OP_shra, DW_OP_stack_value] $r0
	.loc	1 980 9                         @ C:\Keil_v5\ARM\ARMCLANG\Bin\..\include\libcxx\vector:980:9
	movw	r1, #65532
	cmp.w	r4, r0, asr #1
	movt	r1, #32767
	it	lo
	asrlo	r4, r0, #1
.Ltmp276:
	cmp	r0, r1
	it	hs
	mvnhs	r4, #-1073741824
.Ltmp277:
	@DEBUG_VALUE: __emplace_back_slow_path<float>:__v <- [DW_OP_plus_uconst 48, DW_OP_plus_uconst 16, DW_OP_plus_uconst 8, DW_OP_stack_value, DW_OP_LLVM_fragment 128 32] $sp
	@DEBUG_VALUE: __emplace_back_slow_path<float>:__v <- [DW_OP_LLVM_fragment 96 32] 0
	@DEBUG_VALUE: __split_buffer:__a <- [DW_OP_plus_uconst 48, DW_OP_plus_uconst 16, DW_OP_plus_uconst 8, DW_OP_stack_value] $sp
	@DEBUG_VALUE: __split_buffer:__start <- undef
	@DEBUG_VALUE: __split_buffer:this <- undef
	@DEBUG_VALUE: size:this <- [DW_OP_plus_uconst 48, DW_OP_plus_uconst 16, DW_OP_stack_value] $sp
	@DEBUG_VALUE: __split_buffer:__cap <- $r4
	.loc	14 321 9                        @ C:\Keil_v5\ARM\ARMCLANG\Bin\..\include\libcxx\__split_buffer:321:9
	cbz	r4, .LBB2_38
.Ltmp278:
@ %bb.36:                               @   in Loop: Header=BB2_33 Depth=2
	@DEBUG_VALUE: __split_buffer:__cap <- $r4
	@DEBUG_VALUE: __split_buffer:__a <- [DW_OP_plus_uconst 48, DW_OP_plus_uconst 16, DW_OP_plus_uconst 8, DW_OP_stack_value] $sp
	@DEBUG_VALUE: __emplace_back_slow_path<float>:__v <- [DW_OP_LLVM_fragment 96 32] 0
	@DEBUG_VALUE: __emplace_back_slow_path<float>:__v <- [DW_OP_plus_uconst 48, DW_OP_plus_uconst 16, DW_OP_plus_uconst 8, DW_OP_stack_value, DW_OP_LLVM_fragment 128 32] $sp
	@DEBUG_VALUE: __emplace_back_slow_path<float>:__a <- [DW_OP_plus_uconst 48, DW_OP_plus_uconst 16, DW_OP_plus_uconst 8, DW_OP_stack_value] $sp
	@DEBUG_VALUE: __emplace_back_slow_path<float>:this <- [DW_OP_plus_uconst 48, DW_OP_plus_uconst 16, DW_OP_stack_value] $sp
	@DEBUG_VALUE: emplace_back<float>:this <- [DW_OP_plus_uconst 48, DW_OP_plus_uconst 16, DW_OP_stack_value] $sp
	@DEBUG_VALUE: sig <- $s0
	@DEBUG_VALUE: j <- [DW_OP_LLVM_arg 0, DW_OP_LLVM_arg 1, DW_OP_plus_uconst 20, DW_OP_deref, DW_OP_minus, DW_OP_consts 18446744073709551615, DW_OP_div, DW_OP_stack_value] $r8, $sp
	@DEBUG_VALUE: GetNetworkBoxes:hsizes <- [DW_OP_plus_uconst 28, DW_OP_LLVM_fragment 0 32] [$sp+0]
	@DEBUG_VALUE: objectness <- $s28
	@DEBUG_VALUE: i <- $r9
	@DEBUG_VALUE: GetNetworkBoxes:num <- [DW_OP_plus_uconst 32] [$sp+0]
	@DEBUG_VALUE: GetNetworkBoxes:section1_1d <- [DW_OP_plus_uconst 16] [$sp+0]
	@DEBUG_VALUE: GetNetworkBoxes:wsizes <- [DW_OP_plus_uconst 40, DW_OP_LLVM_fragment 0 32] [$sp+0]
	@DEBUG_VALUE: GetNetworkBoxes:net <- [DW_OP_plus_uconst 44] [$sp+0]
	@DEBUG_VALUE: GetNetworkBoxes:threshold <- $s16
	@DEBUG_VALUE: GetNetworkBoxes:this <- [DW_OP_LLVM_entry_value 1] $r0
	@DEBUG_VALUE: GetNetworkBoxes:detections <- [DW_OP_plus_uconst 184] [$sp+0]
	@DEBUG_VALUE: __allocate_at_least<std::__2::allocator<float> >:__alloc <- undef
	@DEBUG_VALUE: __allocate_at_least<std::__2::allocator<float> >:__n <- $r4
	@DEBUG_VALUE: allocate:this <- undef
	@DEBUG_VALUE: allocate:__n <- $r4
	.loc	8 107 13                        @ C:\Keil_v5\ARM\ARMCLANG\Bin\..\include\libcxx\__memory/allocator.h:107:13
	cmp.w	r4, #1073741824
	bhs.w	.LBB2_70
.Ltmp279:
@ %bb.37:                               @   in Loop: Header=BB2_33 Depth=2
	@DEBUG_VALUE: allocate:__n <- $r4
	@DEBUG_VALUE: __allocate_at_least<std::__2::allocator<float> >:__n <- $r4
	@DEBUG_VALUE: __split_buffer:__cap <- $r4
	@DEBUG_VALUE: __split_buffer:__a <- [DW_OP_plus_uconst 48, DW_OP_plus_uconst 16, DW_OP_plus_uconst 8, DW_OP_stack_value] $sp
	@DEBUG_VALUE: __emplace_back_slow_path<float>:__v <- [DW_OP_LLVM_fragment 96 32] 0
	@DEBUG_VALUE: __emplace_back_slow_path<float>:__v <- [DW_OP_plus_uconst 48, DW_OP_plus_uconst 16, DW_OP_plus_uconst 8, DW_OP_stack_value, DW_OP_LLVM_fragment 128 32] $sp
	@DEBUG_VALUE: __emplace_back_slow_path<float>:__a <- [DW_OP_plus_uconst 48, DW_OP_plus_uconst 16, DW_OP_plus_uconst 8, DW_OP_stack_value] $sp
	@DEBUG_VALUE: __emplace_back_slow_path<float>:this <- [DW_OP_plus_uconst 48, DW_OP_plus_uconst 16, DW_OP_stack_value] $sp
	@DEBUG_VALUE: emplace_back<float>:this <- [DW_OP_plus_uconst 48, DW_OP_plus_uconst 16, DW_OP_stack_value] $sp
	@DEBUG_VALUE: sig <- $s0
	@DEBUG_VALUE: j <- [DW_OP_LLVM_arg 0, DW_OP_LLVM_arg 1, DW_OP_plus_uconst 20, DW_OP_deref, DW_OP_minus, DW_OP_consts 18446744073709551615, DW_OP_div, DW_OP_stack_value] $r8, $sp
	@DEBUG_VALUE: GetNetworkBoxes:hsizes <- [DW_OP_plus_uconst 28, DW_OP_LLVM_fragment 0 32] [$sp+0]
	@DEBUG_VALUE: objectness <- $s28
	@DEBUG_VALUE: i <- $r9
	@DEBUG_VALUE: GetNetworkBoxes:num <- [DW_OP_plus_uconst 32] [$sp+0]
	@DEBUG_VALUE: GetNetworkBoxes:section1_1d <- [DW_OP_plus_uconst 16] [$sp+0]
	@DEBUG_VALUE: GetNetworkBoxes:wsizes <- [DW_OP_plus_uconst 40, DW_OP_LLVM_fragment 0 32] [$sp+0]
	@DEBUG_VALUE: GetNetworkBoxes:net <- [DW_OP_plus_uconst 44] [$sp+0]
	@DEBUG_VALUE: GetNetworkBoxes:threshold <- $s16
	@DEBUG_VALUE: GetNetworkBoxes:this <- [DW_OP_LLVM_entry_value 1] $r0
	@DEBUG_VALUE: GetNetworkBoxes:detections <- [DW_OP_plus_uconst 184] [$sp+0]
	.loc	8 112 67                        @ C:\Keil_v5\ARM\ARMCLANG\Bin\..\include\libcxx\__memory/allocator.h:112:67
	lsls	r0, r4, #2
.Ltmp280:
	@DEBUG_VALUE: __libcpp_allocate:__align <- 4
	@DEBUG_VALUE: __libcpp_operator_new<unsigned int>:__args <- $r0
	@DEBUG_VALUE: __libcpp_allocate:__size <- $r0
	.loc	60 270 10                       @ C:\Keil_v5\ARM\ARMCLANG\Bin\..\include\libcxx\new:270:10
	bl	_Znwj
.Ltmp281:
	mov	r5, r0
.Ltmp282:
	@DEBUG_VALUE: __allocation <- [DW_OP_LLVM_fragment 32 32] $r4
	@DEBUG_VALUE: __allocation <- [DW_OP_LLVM_fragment 0 32] $r5
	@DEBUG_VALUE: __split_buffer:__cap <- $r4
	.loc	60 0 10 is_stmt 0               @ C:\Keil_v5\ARM\ARMCLANG\Bin\..\include\libcxx\new:0:10
	b	.LBB2_39
.Ltmp283:
.LBB2_38:                               @   in Loop: Header=BB2_33 Depth=2
	@DEBUG_VALUE: __split_buffer:__cap <- $r4
	@DEBUG_VALUE: size:this <- [DW_OP_plus_uconst 48, DW_OP_plus_uconst 16, DW_OP_stack_value] $sp
	@DEBUG_VALUE: __split_buffer:__a <- [DW_OP_plus_uconst 48, DW_OP_plus_uconst 16, DW_OP_plus_uconst 8, DW_OP_stack_value] $sp
	@DEBUG_VALUE: __emplace_back_slow_path<float>:__v <- [DW_OP_LLVM_fragment 96 32] 0
	@DEBUG_VALUE: __emplace_back_slow_path<float>:__v <- [DW_OP_plus_uconst 48, DW_OP_plus_uconst 16, DW_OP_plus_uconst 8, DW_OP_stack_value, DW_OP_LLVM_fragment 128 32] $sp
	@DEBUG_VALUE: __recommend:__cap <- [DW_OP_constu 2, DW_OP_shra, DW_OP_stack_value] $r0
	@DEBUG_VALUE: capacity:this <- [DW_OP_plus_uconst 48, DW_OP_plus_uconst 16, DW_OP_stack_value] $sp
	@DEBUG_VALUE: __recommend:this <- [DW_OP_plus_uconst 48, DW_OP_plus_uconst 16, DW_OP_stack_value] $sp
	@DEBUG_VALUE: __recommend:__ms <- 1073741823
	@DEBUG_VALUE: __emplace_back_slow_path<float>:__a <- [DW_OP_plus_uconst 48, DW_OP_plus_uconst 16, DW_OP_plus_uconst 8, DW_OP_stack_value] $sp
	@DEBUG_VALUE: __emplace_back_slow_path<float>:this <- [DW_OP_plus_uconst 48, DW_OP_plus_uconst 16, DW_OP_stack_value] $sp
	@DEBUG_VALUE: emplace_back<float>:this <- [DW_OP_plus_uconst 48, DW_OP_plus_uconst 16, DW_OP_stack_value] $sp
	@DEBUG_VALUE: sig <- $s0
	@DEBUG_VALUE: j <- [DW_OP_LLVM_arg 0, DW_OP_LLVM_arg 1, DW_OP_plus_uconst 20, DW_OP_deref, DW_OP_minus, DW_OP_consts 18446744073709551615, DW_OP_div, DW_OP_stack_value] $r8, $sp
	@DEBUG_VALUE: GetNetworkBoxes:hsizes <- [DW_OP_plus_uconst 28, DW_OP_LLVM_fragment 0 32] [$sp+0]
	@DEBUG_VALUE: objectness <- $s28
	@DEBUG_VALUE: i <- $r9
	@DEBUG_VALUE: GetNetworkBoxes:num <- [DW_OP_plus_uconst 32] [$sp+0]
	@DEBUG_VALUE: GetNetworkBoxes:section1_1d <- [DW_OP_plus_uconst 16] [$sp+0]
	@DEBUG_VALUE: GetNetworkBoxes:wsizes <- [DW_OP_plus_uconst 40, DW_OP_LLVM_fragment 0 32] [$sp+0]
	@DEBUG_VALUE: GetNetworkBoxes:net <- [DW_OP_plus_uconst 44] [$sp+0]
	@DEBUG_VALUE: GetNetworkBoxes:threshold <- $s16
	@DEBUG_VALUE: GetNetworkBoxes:this <- [DW_OP_LLVM_entry_value 1] $r0
	@DEBUG_VALUE: GetNetworkBoxes:detections <- [DW_OP_plus_uconst 184] [$sp+0]
	movs	r5, #0
.Ltmp284:
.LBB2_39:                               @   in Loop: Header=BB2_33 Depth=2
	@DEBUG_VALUE: __split_buffer:__cap <- $r4
	@DEBUG_VALUE: __split_buffer:__a <- [DW_OP_plus_uconst 48, DW_OP_plus_uconst 16, DW_OP_plus_uconst 8, DW_OP_stack_value] $sp
	@DEBUG_VALUE: __emplace_back_slow_path<float>:__v <- [DW_OP_LLVM_fragment 96 32] 0
	@DEBUG_VALUE: __emplace_back_slow_path<float>:__v <- [DW_OP_plus_uconst 48, DW_OP_plus_uconst 16, DW_OP_plus_uconst 8, DW_OP_stack_value, DW_OP_LLVM_fragment 128 32] $sp
	@DEBUG_VALUE: __emplace_back_slow_path<float>:__a <- [DW_OP_plus_uconst 48, DW_OP_plus_uconst 16, DW_OP_plus_uconst 8, DW_OP_stack_value] $sp
	@DEBUG_VALUE: __emplace_back_slow_path<float>:this <- [DW_OP_plus_uconst 48, DW_OP_plus_uconst 16, DW_OP_stack_value] $sp
	@DEBUG_VALUE: emplace_back<float>:this <- [DW_OP_plus_uconst 48, DW_OP_plus_uconst 16, DW_OP_stack_value] $sp
	@DEBUG_VALUE: j <- [DW_OP_LLVM_arg 0, DW_OP_LLVM_arg 1, DW_OP_plus_uconst 20, DW_OP_deref, DW_OP_minus, DW_OP_consts 18446744073709551615, DW_OP_div, DW_OP_stack_value] $r8, $sp
	@DEBUG_VALUE: GetNetworkBoxes:hsizes <- [DW_OP_plus_uconst 28, DW_OP_LLVM_fragment 0 32] [$sp+0]
	@DEBUG_VALUE: objectness <- $s28
	@DEBUG_VALUE: i <- $r9
	@DEBUG_VALUE: GetNetworkBoxes:num <- [DW_OP_plus_uconst 32] [$sp+0]
	@DEBUG_VALUE: GetNetworkBoxes:section1_1d <- [DW_OP_plus_uconst 16] [$sp+0]
	@DEBUG_VALUE: GetNetworkBoxes:wsizes <- [DW_OP_plus_uconst 40, DW_OP_LLVM_fragment 0 32] [$sp+0]
	@DEBUG_VALUE: GetNetworkBoxes:net <- [DW_OP_plus_uconst 44] [$sp+0]
	@DEBUG_VALUE: GetNetworkBoxes:threshold <- $s16
	@DEBUG_VALUE: GetNetworkBoxes:this <- [DW_OP_LLVM_entry_value 1] $r0
	@DEBUG_VALUE: GetNetworkBoxes:detections <- [DW_OP_plus_uconst 184] [$sp+0]
	asrs	r0, r6, #2
.Ltmp285:
	@DEBUG_VALUE: __emplace_back_slow_path<float>:__v <- [DW_OP_LLVM_fragment 0 32] $r5
	@DEBUG_VALUE: __split_buffer:__start <- $r0
	@DEBUG_VALUE: __split_buffer:__cap <- $r4
	.loc	62 56 3 is_stmt 1               @ C:\Keil_v5\ARM\ARMCLANG\Bin\..\include\libcxx\__algorithm/move.h:56:3
	mov	r1, r11
.Ltmp286:
	.loc	14 328 34                       @ C:\Keil_v5\ARM\ARMCLANG\Bin\..\include\libcxx\__split_buffer:328:34
	add.w	r0, r5, r0, lsl #2
.Ltmp287:
	@DEBUG_VALUE: __emplace_back_slow_path<float>:__v <- [DW_OP_LLVM_fragment 32 32] $r0
	@DEBUG_VALUE: __emplace_back_slow_path<float>:__v <- [DW_OP_LLVM_fragment 64 32] $r0
	.loc	14 329 28                       @ C:\Keil_v5\ARM\ARMCLANG\Bin\..\include\libcxx\__split_buffer:329:28
	add.w	r10, r5, r4, lsl #2
.Ltmp288:
	@DEBUG_VALUE: construct<float, float>:__args <- undef
	@DEBUG_VALUE: construct<float, float>:__p <- $r0
	@DEBUG_VALUE: construct<float, float>:this <- [DW_OP_plus_uconst 48, DW_OP_plus_uconst 16, DW_OP_plus_uconst 8, DW_OP_stack_value] $sp
	@DEBUG_VALUE: construct<float, float, void>:__args <- undef
	@DEBUG_VALUE: construct<float, float, void>:__p <- $r0
	@DEBUG_VALUE: construct<float, float, void>:__a <- [DW_OP_plus_uconst 48, DW_OP_plus_uconst 16, DW_OP_plus_uconst 8, DW_OP_stack_value] $sp
	@DEBUG_VALUE: __emplace_back_slow_path<float>:__v <- [DW_OP_LLVM_fragment 96 32] $r10
	.loc	8 165 9                         @ C:\Keil_v5\ARM\ARMCLANG\Bin\..\include\libcxx\__memory/allocator.h:165:9
	vstr	s18, [r0]
.Ltmp289:
	.loc	1 1581 15                       @ C:\Keil_v5\ARM\ARMCLANG\Bin\..\include\libcxx\vector:1581:15
	adds	r4, r0, #4
.Ltmp290:
	@DEBUG_VALUE: __move_impl<std::__2::_ClassicAlgPolicy, float, float, void>:__n <- undef
	@DEBUG_VALUE: __move_impl<std::__2::_ClassicAlgPolicy, float, float, void>:__result <- $r5
	@DEBUG_VALUE: __move_impl<std::__2::_ClassicAlgPolicy, float, float, void>:__first <- $r11
	@DEBUG_VALUE: __move_impl<std::__2::_ClassicAlgPolicy, float *, float *, 0>:__result_first <- $r5
	@DEBUG_VALUE: __move_impl<std::__2::_ClassicAlgPolicy, float *, float *, 0>:__result_base <- undef
	@DEBUG_VALUE: __move_impl<std::__2::_ClassicAlgPolicy, float *, float *, 0>:__last_base <- $r11
	@DEBUG_VALUE: __move_impl<std::__2::_ClassicAlgPolicy, float *, float *, 0>:__result <- [DW_OP_LLVM_fragment 32 32] undef
	@DEBUG_VALUE: __move_impl<std::__2::_ClassicAlgPolicy, float *, float *, 0>:__result <- [DW_OP_LLVM_fragment 0 32] undef
	@DEBUG_VALUE: __move_impl<std::__2::_ClassicAlgPolicy, float *, float *, 0>:__last <- [DW_OP_LLVM_fragment 32 32] $r11
	@DEBUG_VALUE: __move_impl<std::__2::_ClassicAlgPolicy, float *, float *, 0>:__last <- [DW_OP_LLVM_fragment 0 32] undef
	@DEBUG_VALUE: __move_impl<std::__2::_ClassicAlgPolicy, float *, float *, 0>:__first <- [DW_OP_LLVM_fragment 0 32] undef
	@DEBUG_VALUE: __move<std::__2::_ClassicAlgPolicy, std::__2::reverse_iterator<float *>, std::__2::reverse_iterator<float *>, std::__2::reverse_iterator<float *> >:__result <- [DW_OP_LLVM_fragment 32 32] undef
	@DEBUG_VALUE: __move<std::__2::_ClassicAlgPolicy, std::__2::reverse_iterator<float *>, std::__2::reverse_iterator<float *>, std::__2::reverse_iterator<float *> >:__result <- [DW_OP_LLVM_fragment 0 32] undef
	@DEBUG_VALUE: __move<std::__2::_ClassicAlgPolicy, std::__2::reverse_iterator<float *>, std::__2::reverse_iterator<float *>, std::__2::reverse_iterator<float *> >:__last <- [DW_OP_LLVM_fragment 32 32] undef
	@DEBUG_VALUE: __move<std::__2::_ClassicAlgPolicy, std::__2::reverse_iterator<float *>, std::__2::reverse_iterator<float *>, std::__2::reverse_iterator<float *> >:__last <- [DW_OP_LLVM_fragment 0 32] undef
	@DEBUG_VALUE: __move<std::__2::_ClassicAlgPolicy, std::__2::reverse_iterator<float *>, std::__2::reverse_iterator<float *>, std::__2::reverse_iterator<float *> >:__first <- [DW_OP_LLVM_fragment 32 32] undef
	@DEBUG_VALUE: __move<std::__2::_ClassicAlgPolicy, std::__2::reverse_iterator<float *>, std::__2::reverse_iterator<float *>, std::__2::reverse_iterator<float *> >:__first <- [DW_OP_LLVM_fragment 0 32] undef
	@DEBUG_VALUE: move<std::__2::reverse_iterator<float *>, std::__2::reverse_iterator<float *> >:__result <- [DW_OP_LLVM_fragment 32 32] undef
	@DEBUG_VALUE: move<std::__2::reverse_iterator<float *>, std::__2::reverse_iterator<float *> >:__result <- [DW_OP_LLVM_fragment 0 32] undef
	@DEBUG_VALUE: move<std::__2::reverse_iterator<float *>, std::__2::reverse_iterator<float *> >:__last <- [DW_OP_LLVM_fragment 32 32] undef
	@DEBUG_VALUE: move<std::__2::reverse_iterator<float *>, std::__2::reverse_iterator<float *> >:__last <- [DW_OP_LLVM_fragment 0 32] undef
	@DEBUG_VALUE: move<std::__2::reverse_iterator<float *>, std::__2::reverse_iterator<float *> >:__first <- [DW_OP_LLVM_fragment 32 32] undef
	@DEBUG_VALUE: move<std::__2::reverse_iterator<float *>, std::__2::reverse_iterator<float *> >:__first <- [DW_OP_LLVM_fragment 0 32] undef
	@DEBUG_VALUE: __uninitialized_allocator_move_if_noexcept<std::__2::allocator<float>, std::__2::reverse_iterator<float *>, std::__2::reverse_iterator<float *>, float, void>: <- [DW_OP_plus_uconst 48, DW_OP_plus_uconst 16, DW_OP_plus_uconst 8, DW_OP_stack_value] $sp
	@DEBUG_VALUE: __uninitialized_allocator_move_if_noexcept<std::__2::allocator<float>, std::__2::reverse_iterator<float *>, std::__2::reverse_iterator<float *>, float, void>:__first2 <- [DW_OP_LLVM_fragment 32 32] undef
	@DEBUG_VALUE: __uninitialized_allocator_move_if_noexcept<std::__2::allocator<float>, std::__2::reverse_iterator<float *>, std::__2::reverse_iterator<float *>, float, void>:__first2 <- [DW_OP_LLVM_fragment 0 32] undef
	@DEBUG_VALUE: __uninitialized_allocator_move_if_noexcept<std::__2::allocator<float>, std::__2::reverse_iterator<float *>, std::__2::reverse_iterator<float *>, float, void>:__last1 <- [DW_OP_LLVM_fragment 32 32] undef
	@DEBUG_VALUE: __uninitialized_allocator_move_if_noexcept<std::__2::allocator<float>, std::__2::reverse_iterator<float *>, std::__2::reverse_iterator<float *>, float, void>:__last1 <- [DW_OP_LLVM_fragment 0 32] undef
	@DEBUG_VALUE: __uninitialized_allocator_move_if_noexcept<std::__2::allocator<float>, std::__2::reverse_iterator<float *>, std::__2::reverse_iterator<float *>, float, void>:__first1 <- [DW_OP_LLVM_fragment 32 32] undef
	@DEBUG_VALUE: __uninitialized_allocator_move_if_noexcept<std::__2::allocator<float>, std::__2::reverse_iterator<float *>, std::__2::reverse_iterator<float *>, float, void>:__first1 <- [DW_OP_LLVM_fragment 0 32] undef
	@DEBUG_VALUE: __swap_out_circular_buffer:__v <- undef
	@DEBUG_VALUE: __swap_out_circular_buffer:this <- [DW_OP_plus_uconst 48, DW_OP_plus_uconst 16, DW_OP_stack_value] $sp
	@DEBUG_VALUE: __emplace_back_slow_path<float>:__v <- [DW_OP_LLVM_fragment 64 32] $r4
	.loc	62 56 3                         @ C:\Keil_v5\ARM\ARMCLANG\Bin\..\include\libcxx\__algorithm/move.h:56:3
	mov	r0, r5
.Ltmp291:
	mov	r2, r6
	bl	__aeabi_memmove4
.Ltmp292:
	@DEBUG_VALUE: ~__split_buffer:this <- undef
	@DEBUG_VALUE: __move<std::__2::_ClassicAlgPolicy, std::__2::reverse_iterator<float *>, std::__2::reverse_iterator<float *>, std::__2::reverse_iterator<float *> >:__ret <- [DW_OP_LLVM_fragment 96 32] $r5
	@DEBUG_VALUE: __move<std::__2::_ClassicAlgPolicy, std::__2::reverse_iterator<float *>, std::__2::reverse_iterator<float *>, std::__2::reverse_iterator<float *> >:__ret <- [DW_OP_LLVM_fragment 64 32] $r5
	@DEBUG_VALUE: __move<std::__2::_ClassicAlgPolicy, std::__2::reverse_iterator<float *>, std::__2::reverse_iterator<float *>, std::__2::reverse_iterator<float *> >:__ret <- [DW_OP_LLVM_fragment 0 32] undef
	@DEBUG_VALUE: __emplace_back_slow_path<float>:__v <- [DW_OP_LLVM_fragment 32 32] $r11
	@DEBUG_VALUE: __emplace_back_slow_path<float>:__v <- [DW_OP_LLVM_fragment 0 32] $r11
	@DEBUG_VALUE: __emplace_back_slow_path<float>:__v <- [DW_OP_LLVM_fragment 96 32] undef
	.loc	14 362 9                        @ C:\Keil_v5\ARM\ARMCLANG\Bin\..\include\libcxx\__split_buffer:362:9
	cmp.w	r11, #0
	@DEBUG_VALUE: __move<std::__2::_ClassicAlgPolicy, std::__2::reverse_iterator<float *>, std::__2::reverse_iterator<float *>, std::__2::reverse_iterator<float *> >:__ret <- [DW_OP_LLVM_fragment 32 32] $r11
	@DEBUG_VALUE: __move_impl<std::__2::_ClassicAlgPolicy, float, float, void>:__last <- $r4
	@DEBUG_VALUE: __move_impl<std::__2::_ClassicAlgPolicy, float *, float *, 0>:__first_base <- $r4
	@DEBUG_VALUE: __move_impl<std::__2::_ClassicAlgPolicy, float *, float *, 0>:__first <- [DW_OP_LLVM_fragment 32 32] $r4
.Ltmp293:
	@DEBUG_VALUE: deallocate:__a <- undef
	@DEBUG_VALUE: deallocate:__p <- $r11
	@DEBUG_VALUE: deallocate:__n <- [DW_OP_LLVM_arg 0, DW_OP_LLVM_arg 1, DW_OP_minus, DW_OP_constu 2, DW_OP_shra, DW_OP_stack_value] undef, undef
	@DEBUG_VALUE: deallocate:this <- undef
	@DEBUG_VALUE: deallocate:__p <- $r11
	@DEBUG_VALUE: deallocate:__n <- [DW_OP_LLVM_arg 0, DW_OP_LLVM_arg 1, DW_OP_minus, DW_OP_constu 2, DW_OP_shra, DW_OP_stack_value] undef, undef
	@DEBUG_VALUE: __libcpp_deallocate:__ptr <- $r11
	@DEBUG_VALUE: __libcpp_deallocate:__size <- [DW_OP_LLVM_arg 0, DW_OP_LLVM_arg 1, DW_OP_minus, DW_OP_constu 2, DW_OP_shra, DW_OP_constu 2, DW_OP_shl, DW_OP_stack_value] undef, undef
	@DEBUG_VALUE: __libcpp_deallocate:__align <- 4
	@DEBUG_VALUE: __do_deallocate_handle_size<>:__ptr <- $r11
	@DEBUG_VALUE: __do_deallocate_handle_size<>:__size <- [DW_OP_LLVM_arg 0, DW_OP_LLVM_arg 1, DW_OP_minus, DW_OP_constu 2, DW_OP_shra, DW_OP_constu 2, DW_OP_shl, DW_OP_stack_value] undef, undef
	@DEBUG_VALUE: __libcpp_operator_delete<void *>:__args <- $r11
	.loc	60 280 3                        @ C:\Keil_v5\ARM\ARMCLANG\Bin\..\include\libcxx\new:280:3
	itt	ne
	movne	r0, r11
.Ltmp294:
	@DEBUG_VALUE: __move_impl<std::__2::_ClassicAlgPolicy, float, float, void>:__first <- $r0
	@DEBUG_VALUE: __move_impl<std::__2::_ClassicAlgPolicy, float, float, void>:__first <- $r0
	blne	_ZdlPv
.Ltmp295:
	.loc	60 0 3 is_stmt 0                @ C:\Keil_v5\ARM\ARMCLANG\Bin\..\include\libcxx\new:0:3
	mov	r11, r5
.Ltmp296:
	@DEBUG_VALUE: __move_impl<std::__2::_ClassicAlgPolicy, float, float, void>:__result <- $r11
	@DEBUG_VALUE: __move_impl<std::__2::_ClassicAlgPolicy, float, float, void>:__result <- $r11
	ldr	r5, [sp, #44]                   @ 4-byte Reload
.Ltmp297:
	b	.LBB2_32
.Ltmp298:
	.p2align	2
.LBB2_40:                               @   in Loop: Header=BB2_23 Depth=1
	@DEBUG_VALUE: GetNetworkBoxes:hsizes <- [DW_OP_plus_uconst 28, DW_OP_LLVM_fragment 0 32] [$sp+0]
	@DEBUG_VALUE: objectness <- $s28
	@DEBUG_VALUE: i <- $r9
	@DEBUG_VALUE: GetNetworkBoxes:num <- [DW_OP_plus_uconst 32] [$sp+0]
	@DEBUG_VALUE: GetNetworkBoxes:section1_1d <- [DW_OP_plus_uconst 16] [$sp+0]
	@DEBUG_VALUE: GetNetworkBoxes:wsizes <- [DW_OP_plus_uconst 40, DW_OP_LLVM_fragment 0 32] [$sp+0]
	@DEBUG_VALUE: GetNetworkBoxes:net <- [DW_OP_plus_uconst 44] [$sp+0]
	@DEBUG_VALUE: GetNetworkBoxes:threshold <- $s16
	@DEBUG_VALUE: GetNetworkBoxes:this <- [DW_OP_LLVM_entry_value 1] $r0
	@DEBUG_VALUE: GetNetworkBoxes:detections <- [DW_OP_plus_uconst 184] [$sp+0]
	strd	r4, r10, [sp, #68]
	ldr.w	r8, [sp, #40]                   @ 4-byte Reload
.Ltmp299:
	@DEBUG_VALUE: GetNetworkBoxes:wsizes <- [DW_OP_LLVM_fragment 0 32] $r8
	ldr.w	r10, [sp, #8]                   @ 4-byte Reload
	b	.LBB2_42
.Ltmp300:
.LBB2_41:                               @   in Loop: Header=BB2_23 Depth=1
	@DEBUG_VALUE: j <- 0
	@DEBUG_VALUE: GetNetworkBoxes:hsizes <- [DW_OP_plus_uconst 28, DW_OP_LLVM_fragment 0 32] [$sp+0]
	@DEBUG_VALUE: operator[]:__n <- 2
	@DEBUG_VALUE: objectness <- $s28
	@DEBUG_VALUE: i <- $r9
	@DEBUG_VALUE: GetNetworkBoxes:num <- [DW_OP_plus_uconst 32] [$sp+0]
	@DEBUG_VALUE: GetNetworkBoxes:section1_1d <- [DW_OP_plus_uconst 16] [$sp+0]
	@DEBUG_VALUE: GetNetworkBoxes:wsizes <- [DW_OP_LLVM_fragment 0 32] $r8
	@DEBUG_VALUE: GetNetworkBoxes:net <- [DW_OP_plus_uconst 44] [$sp+0]
	@DEBUG_VALUE: GetNetworkBoxes:threshold <- $s16
	@DEBUG_VALUE: GetNetworkBoxes:this <- [DW_OP_LLVM_entry_value 1] $r0
	@DEBUG_VALUE: GetNetworkBoxes:detections <- [DW_OP_plus_uconst 184] [$sp+0]
	movs	r4, #0
	mov.w	r11, #0
.Ltmp301:
.LBB2_42:                               @   in Loop: Header=BB2_23 Depth=1
	@DEBUG_VALUE: GetNetworkBoxes:hsizes <- [DW_OP_plus_uconst 28, DW_OP_LLVM_fragment 0 32] [$sp+0]
	@DEBUG_VALUE: objectness <- $s28
	@DEBUG_VALUE: i <- $r9
	@DEBUG_VALUE: GetNetworkBoxes:num <- [DW_OP_plus_uconst 32] [$sp+0]
	@DEBUG_VALUE: GetNetworkBoxes:section1_1d <- [DW_OP_plus_uconst 16] [$sp+0]
	@DEBUG_VALUE: GetNetworkBoxes:wsizes <- [DW_OP_LLVM_fragment 0 32] $r8
	@DEBUG_VALUE: GetNetworkBoxes:net <- [DW_OP_plus_uconst 44] [$sp+0]
	@DEBUG_VALUE: GetNetworkBoxes:threshold <- $s16
	@DEBUG_VALUE: GetNetworkBoxes:this <- [DW_OP_LLVM_entry_value 1] $r0
	@DEBUG_VALUE: GetNetworkBoxes:detections <- [DW_OP_plus_uconst 184] [$sp+0]
	.loc	59 259 27 is_stmt 1             @ ../DetectorPostProcessing.cpp:259:27
	ldr	r0, [r5, #24]
	ldr	r7, [sp, #32]                   @ 4-byte Reload
.Ltmp302:
	.loc	1 0 0 is_stmt 0                 @ C:\Keil_v5\ARM\ARMCLANG\Bin\..\include\libcxx\vector:0:0
	str.w	r11, [sp, #64]
.Ltmp303:
	.loc	59 259 32                       @ ../DetectorPostProcessing.cpp:259:32
	cmp	r7, r0
	it	ge
	cmpge	r0, #1
	bge	.LBB2_49
.Ltmp304:
@ %bb.43:                               @   in Loop: Header=BB2_23 Depth=1
	@DEBUG_VALUE: GetNetworkBoxes:hsizes <- [DW_OP_plus_uconst 28, DW_OP_LLVM_fragment 0 32] [$sp+0]
	@DEBUG_VALUE: objectness <- $s28
	@DEBUG_VALUE: i <- $r9
	@DEBUG_VALUE: GetNetworkBoxes:num <- [DW_OP_plus_uconst 32] [$sp+0]
	@DEBUG_VALUE: GetNetworkBoxes:section1_1d <- [DW_OP_plus_uconst 16] [$sp+0]
	@DEBUG_VALUE: GetNetworkBoxes:wsizes <- [DW_OP_LLVM_fragment 0 32] $r8
	@DEBUG_VALUE: GetNetworkBoxes:net <- [DW_OP_plus_uconst 44] [$sp+0]
	@DEBUG_VALUE: GetNetworkBoxes:threshold <- $s16
	@DEBUG_VALUE: GetNetworkBoxes:this <- [DW_OP_LLVM_entry_value 1] $r0
	@DEBUG_VALUE: GetNetworkBoxes:detections <- [DW_OP_plus_uconst 184] [$sp+0]
	@DEBUG_VALUE: emplace_front<arm::app::image::Detection &>:this <- [DW_OP_plus_uconst 24] [$sp+0]
	@DEBUG_VALUE: emplace_front<arm::app::image::Detection &>:__args <- [DW_OP_plus_uconst 48, DW_OP_stack_value] $sp
	@DEBUG_VALUE: emplace_front<arm::app::image::Detection &>:__a <- [DW_OP_plus_uconst 24] [$sp+0]
	@DEBUG_VALUE: allocate:__a <- [DW_OP_plus_uconst 24] [$sp+0]
	@DEBUG_VALUE: allocate:__n <- 1
	@DEBUG_VALUE: allocate:this <- [DW_OP_plus_uconst 24] [$sp+0]
	@DEBUG_VALUE: allocate:__n <- 1
	@DEBUG_VALUE: __libcpp_allocate:__size <- 36
	@DEBUG_VALUE: __libcpp_allocate:__align <- 4
	@DEBUG_VALUE: __libcpp_operator_new<unsigned int>:__args <- 36
	.loc	60 270 10 is_stmt 1             @ C:\Keil_v5\ARM\ARMCLANG\Bin\..\include\libcxx\new:270:10
	movs	r0, #36
	bl	_Znwj
.Ltmp305:
	.loc	17 49 12                        @ ../../../../ThirdParty/ml-embedded-evaluation-kit/source/application/api/common/include\ImageUtils.hpp:49:12
	add	r3, sp, #48
.Ltmp306:
	.loc	60 270 10                       @ C:\Keil_v5\ARM\ARMCLANG\Bin\..\include\libcxx\new:270:10
	mov	r6, r0
.Ltmp307:
	@DEBUG_VALUE: Detection: <- [DW_OP_plus_uconst 48, DW_OP_stack_value] $sp
	@DEBUG_VALUE: construct<arm::app::image::Detection, arm::app::image::Detection &>:__args <- [DW_OP_plus_uconst 48, DW_OP_stack_value] $sp
	@DEBUG_VALUE: construct<arm::app::image::Detection, arm::app::image::Detection &>:this <- [DW_OP_plus_uconst 24] [$sp+0]
	@DEBUG_VALUE: construct<arm::app::image::Detection, arm::app::image::Detection &, void>:__args <- [DW_OP_plus_uconst 48, DW_OP_stack_value] $sp
	@DEBUG_VALUE: construct<arm::app::image::Detection, arm::app::image::Detection &, void>:__a <- [DW_OP_plus_uconst 24] [$sp+0]
	@DEBUG_VALUE: Detection:this <- [DW_OP_plus_uconst 4, DW_OP_stack_value] $r6
	@DEBUG_VALUE: construct<arm::app::image::Detection, arm::app::image::Detection &>:__p <- [DW_OP_plus_uconst 4, DW_OP_stack_value] $r6
	@DEBUG_VALUE: construct<arm::app::image::Detection, arm::app::image::Detection &, void>:__p <- [DW_OP_plus_uconst 4, DW_OP_stack_value] $r6
	@DEBUG_VALUE: emplace_front<arm::app::image::Detection &>:__h <- [DW_OP_LLVM_fragment 64 32] 1
	@DEBUG_VALUE: emplace_front<arm::app::image::Detection &>:__h <- [DW_OP_plus_uconst 24, DW_OP_LLVM_fragment 32 32] [$sp+0]
	@DEBUG_VALUE: emplace_front<arm::app::image::Detection &>:__h <- [DW_OP_LLVM_fragment 0 32] $r6
	.loc	17 49 12                        @ ../../../../ThirdParty/ml-embedded-evaluation-kit/source/application/api/common/include\ImageUtils.hpp:49:12
	ldm	r3, {r0, r1, r2, r3}
.Ltmp308:
	@DEBUG_VALUE: __n <- undef
	@DEBUG_VALUE: size:this <- [DW_OP_plus_uconst 48, DW_OP_plus_uconst 16, DW_OP_stack_value] $sp
	@DEBUG_VALUE: __compressed_pair_elem<std::nullptr_t, void>:__u <- undef
	@DEBUG_VALUE: __compressed_pair<std::nullptr_t, std::__2::allocator<float> >:__t2 <- undef
	@DEBUG_VALUE: __compressed_pair<std::nullptr_t, std::__2::allocator<float> >:__t1 <- undef
	add.w	r12, r6, #4
.Ltmp309:
	.loc	1 1189 9                        @ C:\Keil_v5\ARM\ARMCLANG\Bin\..\include\libcxx\vector:1189:9
	cmp	r4, r11
.Ltmp310:
	@DEBUG_VALUE: __compressed_pair_elem<std::nullptr_t, void>:this <- [DW_OP_plus_uconst 28, DW_OP_stack_value] $r6
	@DEBUG_VALUE: __compressed_pair<std::nullptr_t, std::__2::allocator<float> >:this <- [DW_OP_plus_uconst 28, DW_OP_stack_value] $r6
	.loc	17 49 12                        @ ../../../../ThirdParty/ml-embedded-evaluation-kit/source/application/api/common/include\ImageUtils.hpp:49:12
	stm.w	r12, {r0, r1, r2, r3}
	mov.w	r0, #0
.Ltmp311:
	@DEBUG_VALUE: vector:__x <- [DW_OP_plus_uconst 48, DW_OP_plus_uconst 16, DW_OP_stack_value] $sp
	@DEBUG_VALUE: vector:this <- [DW_OP_plus_uconst 20, DW_OP_stack_value] $r6
	.loc	1 666 13                        @ C:\Keil_v5\ARM\ARMCLANG\Bin\..\include\libcxx\vector:666:13
	strd	r0, r0, [r6, #20]
.Ltmp312:
	.loc	11 41 48                        @ C:\Keil_v5\ARM\ARMCLANG\Bin\..\include\libcxx\__memory/compressed_pair.h:41:48
	str	r0, [r6, #28]
	beq	.LBB2_63
.Ltmp313:
@ %bb.44:                               @   in Loop: Header=BB2_23 Depth=1
	@DEBUG_VALUE: vector:this <- [DW_OP_plus_uconst 20, DW_OP_stack_value] $r6
	@DEBUG_VALUE: vector:__x <- [DW_OP_plus_uconst 48, DW_OP_plus_uconst 16, DW_OP_stack_value] $sp
	@DEBUG_VALUE: emplace_front<arm::app::image::Detection &>:__h <- [DW_OP_LLVM_fragment 0 32] $r6
	@DEBUG_VALUE: emplace_front<arm::app::image::Detection &>:__h <- [DW_OP_plus_uconst 24, DW_OP_LLVM_fragment 32 32] [$sp+0]
	@DEBUG_VALUE: emplace_front<arm::app::image::Detection &>:__h <- [DW_OP_LLVM_fragment 64 32] 1
	@DEBUG_VALUE: construct<arm::app::image::Detection, arm::app::image::Detection &, void>:__p <- [DW_OP_plus_uconst 4, DW_OP_stack_value] $r6
	@DEBUG_VALUE: construct<arm::app::image::Detection, arm::app::image::Detection &>:__p <- [DW_OP_plus_uconst 4, DW_OP_stack_value] $r6
	@DEBUG_VALUE: Detection:this <- [DW_OP_plus_uconst 4, DW_OP_stack_value] $r6
	@DEBUG_VALUE: construct<arm::app::image::Detection, arm::app::image::Detection &, void>:__a <- [DW_OP_plus_uconst 24] [$sp+0]
	@DEBUG_VALUE: construct<arm::app::image::Detection, arm::app::image::Detection &, void>:__args <- [DW_OP_plus_uconst 48, DW_OP_stack_value] $sp
	@DEBUG_VALUE: construct<arm::app::image::Detection, arm::app::image::Detection &>:this <- [DW_OP_plus_uconst 24] [$sp+0]
	@DEBUG_VALUE: construct<arm::app::image::Detection, arm::app::image::Detection &>:__args <- [DW_OP_plus_uconst 48, DW_OP_stack_value] $sp
	@DEBUG_VALUE: Detection: <- [DW_OP_plus_uconst 48, DW_OP_stack_value] $sp
	@DEBUG_VALUE: emplace_front<arm::app::image::Detection &>:__a <- [DW_OP_plus_uconst 24] [$sp+0]
	@DEBUG_VALUE: emplace_front<arm::app::image::Detection &>:__args <- [DW_OP_plus_uconst 48, DW_OP_stack_value] $sp
	@DEBUG_VALUE: emplace_front<arm::app::image::Detection &>:this <- [DW_OP_plus_uconst 24] [$sp+0]
	@DEBUG_VALUE: GetNetworkBoxes:hsizes <- [DW_OP_plus_uconst 28, DW_OP_LLVM_fragment 0 32] [$sp+0]
	@DEBUG_VALUE: objectness <- $s28
	@DEBUG_VALUE: i <- $r9
	@DEBUG_VALUE: GetNetworkBoxes:num <- [DW_OP_plus_uconst 32] [$sp+0]
	@DEBUG_VALUE: GetNetworkBoxes:section1_1d <- [DW_OP_plus_uconst 16] [$sp+0]
	@DEBUG_VALUE: GetNetworkBoxes:wsizes <- [DW_OP_LLVM_fragment 0 32] $r8
	@DEBUG_VALUE: GetNetworkBoxes:net <- [DW_OP_plus_uconst 44] [$sp+0]
	@DEBUG_VALUE: GetNetworkBoxes:threshold <- $s16
	@DEBUG_VALUE: GetNetworkBoxes:this <- [DW_OP_LLVM_entry_value 1] $r0
	@DEBUG_VALUE: GetNetworkBoxes:detections <- [DW_OP_plus_uconst 184] [$sp+0]
	.loc	1 0 0 is_stmt 0                 @ C:\Keil_v5\ARM\ARMCLANG\Bin\..\include\libcxx\vector:0:0
	sub.w	r5, r4, r11
.Ltmp314:
	@DEBUG_VALUE: __vallocate:__n <- undef
	@DEBUG_VALUE: __n <- undef
	.loc	1 681 13 is_stmt 1              @ C:\Keil_v5\ARM\ARMCLANG\Bin\..\include\libcxx\vector:681:13
	cmp.w	r5, #-1
.Ltmp315:
	@DEBUG_VALUE: __vallocate:this <- [DW_OP_plus_uconst 20, DW_OP_stack_value] $r6
	.loc	1 0 13 is_stmt 0                @ C:\Keil_v5\ARM\ARMCLANG\Bin\..\include\libcxx\vector:0:13
	ble.w	.LBB2_69
.Ltmp316:
@ %bb.45:                               @   in Loop: Header=BB2_23 Depth=1
	@DEBUG_VALUE: __vallocate:this <- [DW_OP_plus_uconst 20, DW_OP_stack_value] $r6
	@DEBUG_VALUE: vector:this <- [DW_OP_plus_uconst 20, DW_OP_stack_value] $r6
	@DEBUG_VALUE: vector:__x <- [DW_OP_plus_uconst 48, DW_OP_plus_uconst 16, DW_OP_stack_value] $sp
	@DEBUG_VALUE: emplace_front<arm::app::image::Detection &>:__h <- [DW_OP_LLVM_fragment 0 32] $r6
	@DEBUG_VALUE: emplace_front<arm::app::image::Detection &>:__h <- [DW_OP_plus_uconst 24, DW_OP_LLVM_fragment 32 32] [$sp+0]
	@DEBUG_VALUE: emplace_front<arm::app::image::Detection &>:__h <- [DW_OP_LLVM_fragment 64 32] 1
	@DEBUG_VALUE: construct<arm::app::image::Detection, arm::app::image::Detection &, void>:__p <- [DW_OP_plus_uconst 4, DW_OP_stack_value] $r6
	@DEBUG_VALUE: construct<arm::app::image::Detection, arm::app::image::Detection &>:__p <- [DW_OP_plus_uconst 4, DW_OP_stack_value] $r6
	@DEBUG_VALUE: Detection:this <- [DW_OP_plus_uconst 4, DW_OP_stack_value] $r6
	@DEBUG_VALUE: construct<arm::app::image::Detection, arm::app::image::Detection &, void>:__a <- [DW_OP_plus_uconst 24] [$sp+0]
	@DEBUG_VALUE: construct<arm::app::image::Detection, arm::app::image::Detection &, void>:__args <- [DW_OP_plus_uconst 48, DW_OP_stack_value] $sp
	@DEBUG_VALUE: construct<arm::app::image::Detection, arm::app::image::Detection &>:this <- [DW_OP_plus_uconst 24] [$sp+0]
	@DEBUG_VALUE: construct<arm::app::image::Detection, arm::app::image::Detection &>:__args <- [DW_OP_plus_uconst 48, DW_OP_stack_value] $sp
	@DEBUG_VALUE: Detection: <- [DW_OP_plus_uconst 48, DW_OP_stack_value] $sp
	@DEBUG_VALUE: emplace_front<arm::app::image::Detection &>:__a <- [DW_OP_plus_uconst 24] [$sp+0]
	@DEBUG_VALUE: emplace_front<arm::app::image::Detection &>:__args <- [DW_OP_plus_uconst 48, DW_OP_stack_value] $sp
	@DEBUG_VALUE: emplace_front<arm::app::image::Detection &>:this <- [DW_OP_plus_uconst 24] [$sp+0]
	@DEBUG_VALUE: GetNetworkBoxes:hsizes <- [DW_OP_plus_uconst 28, DW_OP_LLVM_fragment 0 32] [$sp+0]
	@DEBUG_VALUE: objectness <- $s28
	@DEBUG_VALUE: i <- $r9
	@DEBUG_VALUE: GetNetworkBoxes:num <- [DW_OP_plus_uconst 32] [$sp+0]
	@DEBUG_VALUE: GetNetworkBoxes:section1_1d <- [DW_OP_plus_uconst 16] [$sp+0]
	@DEBUG_VALUE: GetNetworkBoxes:wsizes <- [DW_OP_LLVM_fragment 0 32] $r8
	@DEBUG_VALUE: GetNetworkBoxes:net <- [DW_OP_plus_uconst 44] [$sp+0]
	@DEBUG_VALUE: GetNetworkBoxes:threshold <- $s16
	@DEBUG_VALUE: GetNetworkBoxes:this <- [DW_OP_LLVM_entry_value 1] $r0
	@DEBUG_VALUE: GetNetworkBoxes:detections <- [DW_OP_plus_uconst 184] [$sp+0]
	.loc	60 270 10 is_stmt 1             @ C:\Keil_v5\ARM\ARMCLANG\Bin\..\include\libcxx\new:270:10
	mov	r0, r5
.Ltmp317:
	.loc	1 0 0 is_stmt 0                 @ C:\Keil_v5\ARM\ARMCLANG\Bin\..\include\libcxx\vector:0:0
	asrs	r7, r5, #2
.Ltmp318:
	@DEBUG_VALUE: __libcpp_operator_new<unsigned int>:__args <- $r5
	@DEBUG_VALUE: __libcpp_allocate:__align <- 4
	@DEBUG_VALUE: __libcpp_allocate:__size <- $r5
	@DEBUG_VALUE: allocate:__n <- $r7
	@DEBUG_VALUE: __allocate_at_least<std::__2::allocator<float> >:__n <- $r7
	@DEBUG_VALUE: __vallocate:__n <- $r7
	@DEBUG_VALUE: __n <- $r7
	.loc	60 270 10                       @ C:\Keil_v5\ARM\ARMCLANG\Bin\..\include\libcxx\new:270:10
	bl	_Znwj
.Ltmp319:
	@DEBUG_VALUE: __vallocate:__allocation <- [DW_OP_LLVM_fragment 32 32] $r7
	@DEBUG_VALUE: __construct_at_end<float *>:__tx <- [DW_OP_LLVM_arg 0, DW_OP_LLVM_arg 1, DW_OP_constu 4, DW_OP_mul, DW_OP_plus, DW_OP_stack_value, DW_OP_LLVM_fragment 64 32] $r0, $r7
	@DEBUG_VALUE: __vallocate:__allocation <- [DW_OP_LLVM_fragment 0 32] $r0
	.loc	1 686 32 is_stmt 1              @ C:\Keil_v5\ARM\ARMCLANG\Bin\..\include\libcxx\vector:686:32
	add.w	r2, r0, r7, lsl #2
.Ltmp320:
	.loc	66 539 3                        @ C:\Keil_v5\ARM\ARMCLANG\Bin\..\include\libcxx\__memory/uninitialized_algorithms.h:539:3
	subs	r1, r5, #4
.Ltmp321:
	.loc	1 684 18                        @ C:\Keil_v5\ARM\ARMCLANG\Bin\..\include\libcxx\vector:684:18
	str	r0, [r6, #20]
.Ltmp322:
	@DEBUG_VALUE: __uninitialized_allocator_copy<std::__2::allocator<float>, float *, float *, float *>:__first2 <- $r0
	@DEBUG_VALUE: __construct_at_end<float *>:__tx <- [DW_OP_LLVM_fragment 32 32] $r0
	.loc	66 539 3                        @ C:\Keil_v5\ARM\ARMCLANG\Bin\..\include\libcxx\__memory/uninitialized_algorithms.h:539:3
	cmp	r1, #28
.Ltmp323:
	@DEBUG_VALUE: allocate:this <- [DW_OP_plus_uconst 20, DW_OP_plus_uconst 8, DW_OP_stack_value] $r6
	@DEBUG_VALUE: __allocate_at_least<std::__2::allocator<float> >:__alloc <- [DW_OP_plus_uconst 20, DW_OP_plus_uconst 8, DW_OP_stack_value] $r6
	.loc	1 686 21                        @ C:\Keil_v5\ARM\ARMCLANG\Bin\..\include\libcxx\vector:686:21
	str	r2, [r6, #28]
.Ltmp324:
	@DEBUG_VALUE: __uninitialized_allocator_copy<std::__2::allocator<float>, float *, float *, float *>:__alloc <- [DW_OP_plus_uconst 20, DW_OP_plus_uconst 8, DW_OP_stack_value] $r6
	@DEBUG_VALUE: __construct_at_end<float *>:__tx <- [DW_OP_plus_uconst 20, DW_OP_stack_value, DW_OP_LLVM_fragment 0 32] $r6
	@DEBUG_VALUE: __construct_at_end<float *>:this <- [DW_OP_plus_uconst 20, DW_OP_stack_value] $r6
	@DEBUG_VALUE: __uninitialized_allocator_copy<std::__2::allocator<float>, float *, float *, float *>:__last1 <- $r4
	@DEBUG_VALUE: __uninitialized_allocator_copy<std::__2::allocator<float>, float *, float *, float *>:__first1 <- $r11
	@DEBUG_VALUE: __construct_at_end<float *>:__n <- undef
	@DEBUG_VALUE: __construct_at_end<float *>:__last <- $r4
	@DEBUG_VALUE: __construct_at_end<float *>:__first <- $r11
	@DEBUG_VALUE: __construct_at_end<float *>:__tx <- [DW_OP_LLVM_fragment 32 32] $r0
	.loc	66 539 3                        @ C:\Keil_v5\ARM\ARMCLANG\Bin\..\include\libcxx\__memory/uninitialized_algorithms.h:539:3
	itt	hs
	subhs.w	r2, r0, r11
	cmphs	r2, #16
	bhs	.LBB2_57
.Ltmp325:
@ %bb.46:                               @   in Loop: Header=BB2_23 Depth=1
	@DEBUG_VALUE: __construct_at_end<float *>:__first <- $r11
	@DEBUG_VALUE: __construct_at_end<float *>:__last <- $r4
	@DEBUG_VALUE: __uninitialized_allocator_copy<std::__2::allocator<float>, float *, float *, float *>:__first1 <- $r11
	@DEBUG_VALUE: __uninitialized_allocator_copy<std::__2::allocator<float>, float *, float *, float *>:__last1 <- $r4
	@DEBUG_VALUE: __construct_at_end<float *>:this <- [DW_OP_plus_uconst 20, DW_OP_stack_value] $r6
	@DEBUG_VALUE: __construct_at_end<float *>:__tx <- [DW_OP_plus_uconst 20, DW_OP_stack_value, DW_OP_LLVM_fragment 0 32] $r6
	@DEBUG_VALUE: __uninitialized_allocator_copy<std::__2::allocator<float>, float *, float *, float *>:__alloc <- [DW_OP_plus_uconst 20, DW_OP_plus_uconst 8, DW_OP_stack_value] $r6
	@DEBUG_VALUE: __allocate_at_least<std::__2::allocator<float> >:__alloc <- [DW_OP_plus_uconst 20, DW_OP_plus_uconst 8, DW_OP_stack_value] $r6
	@DEBUG_VALUE: allocate:this <- [DW_OP_plus_uconst 20, DW_OP_plus_uconst 8, DW_OP_stack_value] $r6
	@DEBUG_VALUE: __construct_at_end<float *>:__tx <- [DW_OP_LLVM_fragment 32 32] $r0
	@DEBUG_VALUE: __uninitialized_allocator_copy<std::__2::allocator<float>, float *, float *, float *>:__first2 <- $r0
	@DEBUG_VALUE: __vallocate:__allocation <- [DW_OP_LLVM_fragment 0 32] $r0
	@DEBUG_VALUE: __construct_at_end<float *>:__tx <- [DW_OP_LLVM_arg 0, DW_OP_LLVM_arg 1, DW_OP_constu 4, DW_OP_mul, DW_OP_plus, DW_OP_stack_value, DW_OP_LLVM_fragment 64 32] $r0, $r7
	@DEBUG_VALUE: __vallocate:__allocation <- [DW_OP_LLVM_fragment 32 32] $r7
	@DEBUG_VALUE: __n <- $r7
	@DEBUG_VALUE: __vallocate:__n <- $r7
	@DEBUG_VALUE: __allocate_at_least<std::__2::allocator<float> >:__n <- $r7
	@DEBUG_VALUE: allocate:__n <- $r7
	@DEBUG_VALUE: __libcpp_allocate:__size <- $r5
	@DEBUG_VALUE: __libcpp_allocate:__align <- 4
	@DEBUG_VALUE: __libcpp_operator_new<unsigned int>:__args <- $r5
	@DEBUG_VALUE: __vallocate:this <- [DW_OP_plus_uconst 20, DW_OP_stack_value] $r6
	@DEBUG_VALUE: vector:this <- [DW_OP_plus_uconst 20, DW_OP_stack_value] $r6
	@DEBUG_VALUE: vector:__x <- [DW_OP_plus_uconst 48, DW_OP_plus_uconst 16, DW_OP_stack_value] $sp
	@DEBUG_VALUE: emplace_front<arm::app::image::Detection &>:__h <- [DW_OP_LLVM_fragment 0 32] $r6
	@DEBUG_VALUE: emplace_front<arm::app::image::Detection &>:__h <- [DW_OP_plus_uconst 24, DW_OP_LLVM_fragment 32 32] [$sp+0]
	@DEBUG_VALUE: emplace_front<arm::app::image::Detection &>:__h <- [DW_OP_LLVM_fragment 64 32] 1
	@DEBUG_VALUE: construct<arm::app::image::Detection, arm::app::image::Detection &, void>:__p <- [DW_OP_plus_uconst 4, DW_OP_stack_value] $r6
	@DEBUG_VALUE: construct<arm::app::image::Detection, arm::app::image::Detection &>:__p <- [DW_OP_plus_uconst 4, DW_OP_stack_value] $r6
	@DEBUG_VALUE: Detection:this <- [DW_OP_plus_uconst 4, DW_OP_stack_value] $r6
	@DEBUG_VALUE: construct<arm::app::image::Detection, arm::app::image::Detection &, void>:__a <- [DW_OP_plus_uconst 24] [$sp+0]
	@DEBUG_VALUE: construct<arm::app::image::Detection, arm::app::image::Detection &, void>:__args <- [DW_OP_plus_uconst 48, DW_OP_stack_value] $sp
	@DEBUG_VALUE: construct<arm::app::image::Detection, arm::app::image::Detection &>:this <- [DW_OP_plus_uconst 24] [$sp+0]
	@DEBUG_VALUE: construct<arm::app::image::Detection, arm::app::image::Detection &>:__args <- [DW_OP_plus_uconst 48, DW_OP_stack_value] $sp
	@DEBUG_VALUE: Detection: <- [DW_OP_plus_uconst 48, DW_OP_stack_value] $sp
	@DEBUG_VALUE: emplace_front<arm::app::image::Detection &>:__a <- [DW_OP_plus_uconst 24] [$sp+0]
	@DEBUG_VALUE: emplace_front<arm::app::image::Detection &>:__args <- [DW_OP_plus_uconst 48, DW_OP_stack_value] $sp
	@DEBUG_VALUE: emplace_front<arm::app::image::Detection &>:this <- [DW_OP_plus_uconst 24] [$sp+0]
	@DEBUG_VALUE: GetNetworkBoxes:hsizes <- [DW_OP_plus_uconst 28, DW_OP_LLVM_fragment 0 32] [$sp+0]
	@DEBUG_VALUE: objectness <- $s28
	@DEBUG_VALUE: i <- $r9
	@DEBUG_VALUE: GetNetworkBoxes:num <- [DW_OP_plus_uconst 32] [$sp+0]
	@DEBUG_VALUE: GetNetworkBoxes:section1_1d <- [DW_OP_plus_uconst 16] [$sp+0]
	@DEBUG_VALUE: GetNetworkBoxes:wsizes <- [DW_OP_LLVM_fragment 0 32] $r8
	@DEBUG_VALUE: GetNetworkBoxes:net <- [DW_OP_plus_uconst 44] [$sp+0]
	@DEBUG_VALUE: GetNetworkBoxes:threshold <- $s16
	@DEBUG_VALUE: GetNetworkBoxes:this <- [DW_OP_LLVM_entry_value 1] $r0
	@DEBUG_VALUE: GetNetworkBoxes:detections <- [DW_OP_plus_uconst 184] [$sp+0]
	.loc	66 0 3 is_stmt 0                @ C:\Keil_v5\ARM\ARMCLANG\Bin\..\include\libcxx\__memory/uninitialized_algorithms.h:0:3
	mov	r1, r0
	mov	r2, r11
	b	.LBB2_60
.Ltmp326:
	.p2align	2
@ %bb.47:
__arm_cp.2_3:
	.long	0x00000000                      @ float 0
.Lcpi_end0:
	.size	__arm_cp.2_3, .Lcpi_end0-__arm_cp.2_3
	.p2align	2
@ %bb.48:
__arm_cp.2_4:
	.long	0x42000000                      @ float 32
.Lcpi_end1:
	.size	__arm_cp.2_4, .Lcpi_end1-__arm_cp.2_4
	.p2align	2
.LBB2_49:                               @   in Loop: Header=BB2_23 Depth=1
.Ltmp327:
	@DEBUG_VALUE: GetNetworkBoxes:hsizes <- [DW_OP_plus_uconst 28, DW_OP_LLVM_fragment 0 32] [$sp+0]
	@DEBUG_VALUE: objectness <- $s28
	@DEBUG_VALUE: i <- $r9
	@DEBUG_VALUE: GetNetworkBoxes:num <- [DW_OP_plus_uconst 32] [$sp+0]
	@DEBUG_VALUE: GetNetworkBoxes:section1_1d <- [DW_OP_plus_uconst 16] [$sp+0]
	@DEBUG_VALUE: GetNetworkBoxes:wsizes <- [DW_OP_LLVM_fragment 0 32] $r8
	@DEBUG_VALUE: GetNetworkBoxes:net <- [DW_OP_plus_uconst 44] [$sp+0]
	@DEBUG_VALUE: GetNetworkBoxes:threshold <- $s16
	@DEBUG_VALUE: GetNetworkBoxes:this <- [DW_OP_LLVM_entry_value 1] $r0
	@DEBUG_VALUE: GetNetworkBoxes:detections <- [DW_OP_plus_uconst 184] [$sp+0]
	ldr	r4, [sp, #20]                   @ 4-byte Reload
	.loc	59 264 22 is_stmt 1             @ ../DetectorPostProcessing.cpp:264:22
	cmp	r7, r0
	bne.w	.LBB2_20
.Ltmp328:
@ %bb.50:                               @   in Loop: Header=BB2_23 Depth=1
	@DEBUG_VALUE: GetNetworkBoxes:hsizes <- [DW_OP_plus_uconst 28, DW_OP_LLVM_fragment 0 32] [$sp+0]
	@DEBUG_VALUE: objectness <- $s28
	@DEBUG_VALUE: i <- $r9
	@DEBUG_VALUE: GetNetworkBoxes:num <- [DW_OP_plus_uconst 32] [$sp+0]
	@DEBUG_VALUE: GetNetworkBoxes:section1_1d <- [DW_OP_plus_uconst 16] [$sp+0]
	@DEBUG_VALUE: GetNetworkBoxes:wsizes <- [DW_OP_LLVM_fragment 0 32] $r8
	@DEBUG_VALUE: GetNetworkBoxes:net <- [DW_OP_plus_uconst 44] [$sp+0]
	@DEBUG_VALUE: GetNetworkBoxes:threshold <- $s16
	@DEBUG_VALUE: GetNetworkBoxes:this <- [DW_OP_LLVM_entry_value 1] $r0
	@DEBUG_VALUE: GetNetworkBoxes:detections <- [DW_OP_plus_uconst 184] [$sp+0]
	@DEBUG_VALUE: sort<(lambda at ../DetectorPostProcessing.cpp:182:38)>:this <- [DW_OP_plus_uconst 24] [$sp+0]
	.loc	18 1651 70                      @ C:\Keil_v5\ARM\ARMCLANG\Bin\..\include\libcxx\forward_list:1651:70
	ldr	r0, [sp, #24]                   @ 4-byte Reload
.Ltmp329:
	@DEBUG_VALUE: sort<(lambda at ../DetectorPostProcessing.cpp:182:38)>:this <- $r0
	ldr	r0, [r0]
.Ltmp330:
	@DEBUG_VALUE: operator==:__y <- undef
	@DEBUG_VALUE: operator==:__x <- undef
	@DEBUG_VALUE: operator!=:__y <- undef
	@DEBUG_VALUE: operator!=:__x <- undef
	@DEBUG_VALUE: __distance<std::__2::__forward_list_iterator<std::__2::__forward_list_node<arm::app::image::Detection, void *> *> >:__r <- 0
	@DEBUG_VALUE: __distance<std::__2::__forward_list_iterator<std::__2::__forward_list_node<arm::app::image::Detection, void *> *> >:__last <- 0
	@DEBUG_VALUE: distance<std::__2::__forward_list_iterator<std::__2::__forward_list_node<arm::app::image::Detection, void *> *> >:__last <- undef
	@DEBUG_VALUE: distance<std::__2::__forward_list_iterator<std::__2::__forward_list_node<arm::app::image::Detection, void *> *> >:__first <- undef
	@DEBUG_VALUE: __distance<std::__2::__forward_list_iterator<std::__2::__forward_list_node<arm::app::image::Detection, void *> *> >:__first <- $r0
	@DEBUG_VALUE: sort<(lambda at ../DetectorPostProcessing.cpp:182:38)>:this <- [DW_OP_plus_uconst 24] [$sp+0]
	.file	70 "C:\\Keil_v5\\ARM\\ARMCLANG\\Bin\\..\\include\\libcxx\\__iterator" "distance.h"
	.loc	70 34 5                         @ C:\Keil_v5\ARM\ARMCLANG\Bin\..\include\libcxx\__iterator/distance.h:34:5
	cmp	r0, #0
	beq	.LBB2_64
.Ltmp331:
@ %bb.51:                               @   in Loop: Header=BB2_23 Depth=1
	@DEBUG_VALUE: __distance<std::__2::__forward_list_iterator<std::__2::__forward_list_node<arm::app::image::Detection, void *> *> >:__first <- $r0
	@DEBUG_VALUE: __distance<std::__2::__forward_list_iterator<std::__2::__forward_list_node<arm::app::image::Detection, void *> *> >:__last <- 0
	@DEBUG_VALUE: __distance<std::__2::__forward_list_iterator<std::__2::__forward_list_node<arm::app::image::Detection, void *> *> >:__r <- 0
	@DEBUG_VALUE: sort<(lambda at ../DetectorPostProcessing.cpp:182:38)>:this <- [DW_OP_plus_uconst 24] [$sp+0]
	@DEBUG_VALUE: GetNetworkBoxes:hsizes <- [DW_OP_plus_uconst 28, DW_OP_LLVM_fragment 0 32] [$sp+0]
	@DEBUG_VALUE: objectness <- $s28
	@DEBUG_VALUE: i <- $r9
	@DEBUG_VALUE: GetNetworkBoxes:num <- [DW_OP_plus_uconst 32] [$sp+0]
	@DEBUG_VALUE: GetNetworkBoxes:section1_1d <- [DW_OP_plus_uconst 16] [$sp+0]
	@DEBUG_VALUE: GetNetworkBoxes:wsizes <- [DW_OP_LLVM_fragment 0 32] $r8
	@DEBUG_VALUE: GetNetworkBoxes:net <- [DW_OP_plus_uconst 44] [$sp+0]
	@DEBUG_VALUE: GetNetworkBoxes:threshold <- $s16
	@DEBUG_VALUE: GetNetworkBoxes:this <- [DW_OP_LLVM_entry_value 1] $r0
	@DEBUG_VALUE: GetNetworkBoxes:detections <- [DW_OP_plus_uconst 184] [$sp+0]
	.loc	70 0 5 is_stmt 0                @ C:\Keil_v5\ARM\ARMCLANG\Bin\..\include\libcxx\__iterator/distance.h:0:5
	movs	r1, #1
	mov	r2, r0
.Ltmp332:
	.p2align	2
.LBB2_52:                               @   Parent Loop BB2_23 Depth=1
                                        @ =>  This Inner Loop Header: Depth=2
	@DEBUG_VALUE: __distance<std::__2::__forward_list_iterator<std::__2::__forward_list_node<arm::app::image::Detection, void *> *> >:__last <- 0
	@DEBUG_VALUE: sort<(lambda at ../DetectorPostProcessing.cpp:182:38)>:this <- [DW_OP_plus_uconst 24] [$sp+0]
	@DEBUG_VALUE: GetNetworkBoxes:hsizes <- [DW_OP_plus_uconst 28, DW_OP_LLVM_fragment 0 32] [$sp+0]
	@DEBUG_VALUE: objectness <- $s28
	@DEBUG_VALUE: i <- $r9
	@DEBUG_VALUE: GetNetworkBoxes:num <- [DW_OP_plus_uconst 32] [$sp+0]
	@DEBUG_VALUE: GetNetworkBoxes:section1_1d <- [DW_OP_plus_uconst 16] [$sp+0]
	@DEBUG_VALUE: GetNetworkBoxes:wsizes <- [DW_OP_LLVM_fragment 0 32] $r8
	@DEBUG_VALUE: GetNetworkBoxes:net <- [DW_OP_plus_uconst 44] [$sp+0]
	@DEBUG_VALUE: GetNetworkBoxes:threshold <- $s16
	@DEBUG_VALUE: GetNetworkBoxes:this <- [DW_OP_LLVM_entry_value 1] $r0
	@DEBUG_VALUE: GetNetworkBoxes:detections <- [DW_OP_plus_uconst 184] [$sp+0]
	@DEBUG_VALUE: __distance<std::__2::__forward_list_iterator<std::__2::__forward_list_node<arm::app::image::Detection, void *> *> >:__first <- $r2
	@DEBUG_VALUE: __distance<std::__2::__forward_list_iterator<std::__2::__forward_list_node<arm::app::image::Detection, void *> *> >:__r <- [DW_OP_constu 1, DW_OP_or, DW_OP_stack_value] $r1
	@DEBUG_VALUE: operator++:this <- undef
	.loc	18 372 51 is_stmt 1             @ C:\Keil_v5\ARM\ARMCLANG\Bin\..\include\libcxx\forward_list:372:51
	ldr	r2, [r2]
.Ltmp333:
	@DEBUG_VALUE: operator==:__y <- undef
	@DEBUG_VALUE: operator==:__x <- undef
	@DEBUG_VALUE: operator!=:__y <- undef
	@DEBUG_VALUE: operator!=:__x <- undef
	@DEBUG_VALUE: __distance<std::__2::__forward_list_iterator<std::__2::__forward_list_node<arm::app::image::Detection, void *> *> >:__first <- $r2
	.loc	70 34 5                         @ C:\Keil_v5\ARM\ARMCLANG\Bin\..\include\libcxx\__iterator/distance.h:34:5
	cmp	r2, #0
	beq	.LBB2_67
.Ltmp334:
@ %bb.53:                               @   in Loop: Header=BB2_52 Depth=2
	@DEBUG_VALUE: __distance<std::__2::__forward_list_iterator<std::__2::__forward_list_node<arm::app::image::Detection, void *> *> >:__r <- [DW_OP_constu 1, DW_OP_or, DW_OP_stack_value] $r1
	@DEBUG_VALUE: __distance<std::__2::__forward_list_iterator<std::__2::__forward_list_node<arm::app::image::Detection, void *> *> >:__first <- $r2
	@DEBUG_VALUE: __distance<std::__2::__forward_list_iterator<std::__2::__forward_list_node<arm::app::image::Detection, void *> *> >:__last <- 0
	@DEBUG_VALUE: sort<(lambda at ../DetectorPostProcessing.cpp:182:38)>:this <- [DW_OP_plus_uconst 24] [$sp+0]
	@DEBUG_VALUE: GetNetworkBoxes:hsizes <- [DW_OP_plus_uconst 28, DW_OP_LLVM_fragment 0 32] [$sp+0]
	@DEBUG_VALUE: objectness <- $s28
	@DEBUG_VALUE: i <- $r9
	@DEBUG_VALUE: GetNetworkBoxes:num <- [DW_OP_plus_uconst 32] [$sp+0]
	@DEBUG_VALUE: GetNetworkBoxes:section1_1d <- [DW_OP_plus_uconst 16] [$sp+0]
	@DEBUG_VALUE: GetNetworkBoxes:wsizes <- [DW_OP_LLVM_fragment 0 32] $r8
	@DEBUG_VALUE: GetNetworkBoxes:net <- [DW_OP_plus_uconst 44] [$sp+0]
	@DEBUG_VALUE: GetNetworkBoxes:threshold <- $s16
	@DEBUG_VALUE: GetNetworkBoxes:this <- [DW_OP_LLVM_entry_value 1] $r0
	@DEBUG_VALUE: GetNetworkBoxes:detections <- [DW_OP_plus_uconst 184] [$sp+0]
	@DEBUG_VALUE: __distance<std::__2::__forward_list_iterator<std::__2::__forward_list_node<arm::app::image::Detection, void *> *> >:__first <- $r2
	@DEBUG_VALUE: __distance<std::__2::__forward_list_iterator<std::__2::__forward_list_node<arm::app::image::Detection, void *> *> >:__r <- [DW_OP_constu 2, DW_OP_or, DW_OP_stack_value] $r1
	@DEBUG_VALUE: operator++:this <- undef
	.loc	18 372 51                       @ C:\Keil_v5\ARM\ARMCLANG\Bin\..\include\libcxx\forward_list:372:51
	ldr	r2, [r2]
.Ltmp335:
	@DEBUG_VALUE: operator==:__y <- undef
	@DEBUG_VALUE: operator==:__x <- undef
	@DEBUG_VALUE: operator!=:__y <- undef
	@DEBUG_VALUE: operator!=:__x <- undef
	@DEBUG_VALUE: __distance<std::__2::__forward_list_iterator<std::__2::__forward_list_node<arm::app::image::Detection, void *> *> >:__first <- $r2
	.loc	70 34 5                         @ C:\Keil_v5\ARM\ARMCLANG\Bin\..\include\libcxx\__iterator/distance.h:34:5
	cmp	r2, #0
	beq	.LBB2_65
.Ltmp336:
@ %bb.54:                               @   in Loop: Header=BB2_52 Depth=2
	@DEBUG_VALUE: __distance<std::__2::__forward_list_iterator<std::__2::__forward_list_node<arm::app::image::Detection, void *> *> >:__r <- [DW_OP_constu 2, DW_OP_or, DW_OP_stack_value] $r1
	@DEBUG_VALUE: __distance<std::__2::__forward_list_iterator<std::__2::__forward_list_node<arm::app::image::Detection, void *> *> >:__first <- $r2
	@DEBUG_VALUE: __distance<std::__2::__forward_list_iterator<std::__2::__forward_list_node<arm::app::image::Detection, void *> *> >:__last <- 0
	@DEBUG_VALUE: sort<(lambda at ../DetectorPostProcessing.cpp:182:38)>:this <- [DW_OP_plus_uconst 24] [$sp+0]
	@DEBUG_VALUE: GetNetworkBoxes:hsizes <- [DW_OP_plus_uconst 28, DW_OP_LLVM_fragment 0 32] [$sp+0]
	@DEBUG_VALUE: objectness <- $s28
	@DEBUG_VALUE: i <- $r9
	@DEBUG_VALUE: GetNetworkBoxes:num <- [DW_OP_plus_uconst 32] [$sp+0]
	@DEBUG_VALUE: GetNetworkBoxes:section1_1d <- [DW_OP_plus_uconst 16] [$sp+0]
	@DEBUG_VALUE: GetNetworkBoxes:wsizes <- [DW_OP_LLVM_fragment 0 32] $r8
	@DEBUG_VALUE: GetNetworkBoxes:net <- [DW_OP_plus_uconst 44] [$sp+0]
	@DEBUG_VALUE: GetNetworkBoxes:threshold <- $s16
	@DEBUG_VALUE: GetNetworkBoxes:this <- [DW_OP_LLVM_entry_value 1] $r0
	@DEBUG_VALUE: GetNetworkBoxes:detections <- [DW_OP_plus_uconst 184] [$sp+0]
	@DEBUG_VALUE: __distance<std::__2::__forward_list_iterator<std::__2::__forward_list_node<arm::app::image::Detection, void *> *> >:__first <- $r2
	@DEBUG_VALUE: __distance<std::__2::__forward_list_iterator<std::__2::__forward_list_node<arm::app::image::Detection, void *> *> >:__r <- [DW_OP_constu 3, DW_OP_or, DW_OP_stack_value] $r1
	@DEBUG_VALUE: operator++:this <- undef
	.loc	18 372 51                       @ C:\Keil_v5\ARM\ARMCLANG\Bin\..\include\libcxx\forward_list:372:51
	ldr	r2, [r2]
.Ltmp337:
	@DEBUG_VALUE: operator==:__y <- undef
	@DEBUG_VALUE: operator==:__x <- undef
	@DEBUG_VALUE: operator!=:__y <- undef
	@DEBUG_VALUE: operator!=:__x <- undef
	@DEBUG_VALUE: __distance<std::__2::__forward_list_iterator<std::__2::__forward_list_node<arm::app::image::Detection, void *> *> >:__first <- $r2
	.loc	70 34 5                         @ C:\Keil_v5\ARM\ARMCLANG\Bin\..\include\libcxx\__iterator/distance.h:34:5
	cmp	r2, #0
	beq	.LBB2_66
.Ltmp338:
@ %bb.55:                               @   in Loop: Header=BB2_52 Depth=2
	@DEBUG_VALUE: __distance<std::__2::__forward_list_iterator<std::__2::__forward_list_node<arm::app::image::Detection, void *> *> >:__r <- [DW_OP_constu 3, DW_OP_or, DW_OP_stack_value] $r1
	@DEBUG_VALUE: __distance<std::__2::__forward_list_iterator<std::__2::__forward_list_node<arm::app::image::Detection, void *> *> >:__first <- $r2
	@DEBUG_VALUE: __distance<std::__2::__forward_list_iterator<std::__2::__forward_list_node<arm::app::image::Detection, void *> *> >:__last <- 0
	@DEBUG_VALUE: sort<(lambda at ../DetectorPostProcessing.cpp:182:38)>:this <- [DW_OP_plus_uconst 24] [$sp+0]
	@DEBUG_VALUE: GetNetworkBoxes:hsizes <- [DW_OP_plus_uconst 28, DW_OP_LLVM_fragment 0 32] [$sp+0]
	@DEBUG_VALUE: objectness <- $s28
	@DEBUG_VALUE: i <- $r9
	@DEBUG_VALUE: GetNetworkBoxes:num <- [DW_OP_plus_uconst 32] [$sp+0]
	@DEBUG_VALUE: GetNetworkBoxes:section1_1d <- [DW_OP_plus_uconst 16] [$sp+0]
	@DEBUG_VALUE: GetNetworkBoxes:wsizes <- [DW_OP_LLVM_fragment 0 32] $r8
	@DEBUG_VALUE: GetNetworkBoxes:net <- [DW_OP_plus_uconst 44] [$sp+0]
	@DEBUG_VALUE: GetNetworkBoxes:threshold <- $s16
	@DEBUG_VALUE: GetNetworkBoxes:this <- [DW_OP_LLVM_entry_value 1] $r0
	@DEBUG_VALUE: GetNetworkBoxes:detections <- [DW_OP_plus_uconst 184] [$sp+0]
	@DEBUG_VALUE: __distance<std::__2::__forward_list_iterator<std::__2::__forward_list_node<arm::app::image::Detection, void *> *> >:__first <- $r2
	@DEBUG_VALUE: __distance<std::__2::__forward_list_iterator<std::__2::__forward_list_node<arm::app::image::Detection, void *> *> >:__r <- [DW_OP_plus_uconst 3, DW_OP_stack_value] $r1
	@DEBUG_VALUE: operator++:this <- undef
	.loc	18 372 51                       @ C:\Keil_v5\ARM\ARMCLANG\Bin\..\include\libcxx\forward_list:372:51
	ldr	r2, [r2]
.Ltmp339:
	@DEBUG_VALUE: operator==:__y <- undef
	@DEBUG_VALUE: operator==:__x <- undef
	@DEBUG_VALUE: operator!=:__y <- undef
	@DEBUG_VALUE: operator!=:__x <- undef
	@DEBUG_VALUE: __distance<std::__2::__forward_list_iterator<std::__2::__forward_list_node<arm::app::image::Detection, void *> *> >:__first <- $r2
	.loc	70 34 5                         @ C:\Keil_v5\ARM\ARMCLANG\Bin\..\include\libcxx\__iterator/distance.h:34:5
	adds	r1, #4
.Ltmp340:
	cbz	r2, .LBB2_56
	le	.LBB2_52
.Ltmp341:
.LBB2_56:                               @   in Loop: Header=BB2_23 Depth=1
	@DEBUG_VALUE: sort<(lambda at ../DetectorPostProcessing.cpp:182:38)>:this <- [DW_OP_plus_uconst 24] [$sp+0]
	@DEBUG_VALUE: GetNetworkBoxes:hsizes <- [DW_OP_plus_uconst 28, DW_OP_LLVM_fragment 0 32] [$sp+0]
	@DEBUG_VALUE: objectness <- $s28
	@DEBUG_VALUE: i <- $r9
	@DEBUG_VALUE: GetNetworkBoxes:num <- [DW_OP_plus_uconst 32] [$sp+0]
	@DEBUG_VALUE: GetNetworkBoxes:section1_1d <- [DW_OP_plus_uconst 16] [$sp+0]
	@DEBUG_VALUE: GetNetworkBoxes:wsizes <- [DW_OP_LLVM_fragment 0 32] $r8
	@DEBUG_VALUE: GetNetworkBoxes:net <- [DW_OP_plus_uconst 44] [$sp+0]
	@DEBUG_VALUE: GetNetworkBoxes:threshold <- $s16
	@DEBUG_VALUE: GetNetworkBoxes:this <- [DW_OP_LLVM_entry_value 1] $r0
	@DEBUG_VALUE: GetNetworkBoxes:detections <- [DW_OP_plus_uconst 184] [$sp+0]
	.loc	18 1651 39                      @ C:\Keil_v5\ARM\ARMCLANG\Bin\..\include\libcxx\forward_list:1651:39
	subs	r1, #1
	b	.LBB2_67
.Ltmp342:
.LBB2_57:                               @   in Loop: Header=BB2_23 Depth=1
	@DEBUG_VALUE: __construct_at_end<float *>:__first <- $r11
	@DEBUG_VALUE: __construct_at_end<float *>:__last <- $r4
	@DEBUG_VALUE: __uninitialized_allocator_copy<std::__2::allocator<float>, float *, float *, float *>:__first1 <- $r11
	@DEBUG_VALUE: __uninitialized_allocator_copy<std::__2::allocator<float>, float *, float *, float *>:__last1 <- $r4
	@DEBUG_VALUE: __construct_at_end<float *>:this <- [DW_OP_plus_uconst 20, DW_OP_stack_value] $r6
	@DEBUG_VALUE: __construct_at_end<float *>:__tx <- [DW_OP_plus_uconst 20, DW_OP_stack_value, DW_OP_LLVM_fragment 0 32] $r6
	@DEBUG_VALUE: __uninitialized_allocator_copy<std::__2::allocator<float>, float *, float *, float *>:__alloc <- [DW_OP_plus_uconst 20, DW_OP_plus_uconst 8, DW_OP_stack_value] $r6
	@DEBUG_VALUE: __construct_at_end<float *>:__tx <- [DW_OP_LLVM_fragment 32 32] $r0
	@DEBUG_VALUE: __uninitialized_allocator_copy<std::__2::allocator<float>, float *, float *, float *>:__first2 <- $r0
	@DEBUG_VALUE: __construct_at_end<float *>:__tx <- [DW_OP_LLVM_arg 0, DW_OP_LLVM_arg 1, DW_OP_constu 4, DW_OP_mul, DW_OP_plus, DW_OP_stack_value, DW_OP_LLVM_fragment 64 32] $r0, $r7
	@DEBUG_VALUE: __n <- $r7
	@DEBUG_VALUE: vector:this <- [DW_OP_plus_uconst 20, DW_OP_stack_value] $r6
	@DEBUG_VALUE: vector:__x <- [DW_OP_plus_uconst 48, DW_OP_plus_uconst 16, DW_OP_stack_value] $sp
	@DEBUG_VALUE: emplace_front<arm::app::image::Detection &>:__h <- [DW_OP_LLVM_fragment 0 32] $r6
	@DEBUG_VALUE: emplace_front<arm::app::image::Detection &>:__h <- [DW_OP_plus_uconst 24, DW_OP_LLVM_fragment 32 32] [$sp+0]
	@DEBUG_VALUE: emplace_front<arm::app::image::Detection &>:__h <- [DW_OP_LLVM_fragment 64 32] 1
	@DEBUG_VALUE: construct<arm::app::image::Detection, arm::app::image::Detection &, void>:__p <- [DW_OP_plus_uconst 4, DW_OP_stack_value] $r6
	@DEBUG_VALUE: construct<arm::app::image::Detection, arm::app::image::Detection &>:__p <- [DW_OP_plus_uconst 4, DW_OP_stack_value] $r6
	@DEBUG_VALUE: Detection:this <- [DW_OP_plus_uconst 4, DW_OP_stack_value] $r6
	@DEBUG_VALUE: construct<arm::app::image::Detection, arm::app::image::Detection &, void>:__a <- [DW_OP_plus_uconst 24] [$sp+0]
	@DEBUG_VALUE: construct<arm::app::image::Detection, arm::app::image::Detection &, void>:__args <- [DW_OP_plus_uconst 48, DW_OP_stack_value] $sp
	@DEBUG_VALUE: construct<arm::app::image::Detection, arm::app::image::Detection &>:this <- [DW_OP_plus_uconst 24] [$sp+0]
	@DEBUG_VALUE: construct<arm::app::image::Detection, arm::app::image::Detection &>:__args <- [DW_OP_plus_uconst 48, DW_OP_stack_value] $sp
	@DEBUG_VALUE: Detection: <- [DW_OP_plus_uconst 48, DW_OP_stack_value] $sp
	@DEBUG_VALUE: emplace_front<arm::app::image::Detection &>:__a <- [DW_OP_plus_uconst 24] [$sp+0]
	@DEBUG_VALUE: emplace_front<arm::app::image::Detection &>:__args <- [DW_OP_plus_uconst 48, DW_OP_stack_value] $sp
	@DEBUG_VALUE: emplace_front<arm::app::image::Detection &>:this <- [DW_OP_plus_uconst 24] [$sp+0]
	@DEBUG_VALUE: GetNetworkBoxes:hsizes <- [DW_OP_plus_uconst 28, DW_OP_LLVM_fragment 0 32] [$sp+0]
	@DEBUG_VALUE: objectness <- $s28
	@DEBUG_VALUE: i <- $r9
	@DEBUG_VALUE: GetNetworkBoxes:num <- [DW_OP_plus_uconst 32] [$sp+0]
	@DEBUG_VALUE: GetNetworkBoxes:section1_1d <- [DW_OP_plus_uconst 16] [$sp+0]
	@DEBUG_VALUE: GetNetworkBoxes:wsizes <- [DW_OP_LLVM_fragment 0 32] $r8
	@DEBUG_VALUE: GetNetworkBoxes:net <- [DW_OP_plus_uconst 44] [$sp+0]
	@DEBUG_VALUE: GetNetworkBoxes:threshold <- $s16
	@DEBUG_VALUE: GetNetworkBoxes:this <- [DW_OP_LLVM_entry_value 1] $r0
	@DEBUG_VALUE: GetNetworkBoxes:detections <- [DW_OP_plus_uconst 184] [$sp+0]
	.loc	18 0 39 is_stmt 0               @ C:\Keil_v5\ARM\ARMCLANG\Bin\..\include\libcxx\forward_list:0:39
	movs	r2, #1
.Ltmp343:
	.loc	66 539 3 is_stmt 1              @ C:\Keil_v5\ARM\ARMCLANG\Bin\..\include\libcxx\__memory/uninitialized_algorithms.h:539:3
	mvn	r5, #3
	add.w	r3, r2, r1, lsr #2
	movw	r1, #65532
	movt	r1, #32767
	and.w	r7, r3, r1
.Ltmp344:
	rsb	r1, r7, r7, lsl #30
	subs	r1, r5, r1
	mov	r5, r11
	add.w	lr, r2, r1, lsr #2
	add.w	r1, r0, r7, lsl #2
	add.w	r2, r11, r7, lsl #2
.Ltmp345:
	.p2align	2
.LBB2_58:                               @   Parent Loop BB2_23 Depth=1
                                        @ =>  This Inner Loop Header: Depth=2
	@DEBUG_VALUE: __construct_at_end<float *>:__first <- $r11
	@DEBUG_VALUE: __construct_at_end<float *>:__last <- $r4
	@DEBUG_VALUE: __uninitialized_allocator_copy<std::__2::allocator<float>, float *, float *, float *>:__first1 <- $r11
	@DEBUG_VALUE: __uninitialized_allocator_copy<std::__2::allocator<float>, float *, float *, float *>:__last1 <- $r4
	@DEBUG_VALUE: __construct_at_end<float *>:this <- [DW_OP_plus_uconst 20, DW_OP_stack_value] $r6
	@DEBUG_VALUE: __construct_at_end<float *>:__tx <- [DW_OP_plus_uconst 20, DW_OP_stack_value, DW_OP_LLVM_fragment 0 32] $r6
	@DEBUG_VALUE: __uninitialized_allocator_copy<std::__2::allocator<float>, float *, float *, float *>:__alloc <- [DW_OP_plus_uconst 20, DW_OP_plus_uconst 8, DW_OP_stack_value] $r6
	@DEBUG_VALUE: vector:this <- [DW_OP_plus_uconst 20, DW_OP_stack_value] $r6
	@DEBUG_VALUE: vector:__x <- [DW_OP_plus_uconst 48, DW_OP_plus_uconst 16, DW_OP_stack_value] $sp
	@DEBUG_VALUE: emplace_front<arm::app::image::Detection &>:__h <- [DW_OP_LLVM_fragment 0 32] $r6
	@DEBUG_VALUE: emplace_front<arm::app::image::Detection &>:__h <- [DW_OP_plus_uconst 24, DW_OP_LLVM_fragment 32 32] [$sp+0]
	@DEBUG_VALUE: emplace_front<arm::app::image::Detection &>:__h <- [DW_OP_LLVM_fragment 64 32] 1
	@DEBUG_VALUE: construct<arm::app::image::Detection, arm::app::image::Detection &, void>:__p <- [DW_OP_plus_uconst 4, DW_OP_stack_value] $r6
	@DEBUG_VALUE: construct<arm::app::image::Detection, arm::app::image::Detection &>:__p <- [DW_OP_plus_uconst 4, DW_OP_stack_value] $r6
	@DEBUG_VALUE: Detection:this <- [DW_OP_plus_uconst 4, DW_OP_stack_value] $r6
	@DEBUG_VALUE: construct<arm::app::image::Detection, arm::app::image::Detection &, void>:__a <- [DW_OP_plus_uconst 24] [$sp+0]
	@DEBUG_VALUE: construct<arm::app::image::Detection, arm::app::image::Detection &, void>:__args <- [DW_OP_plus_uconst 48, DW_OP_stack_value] $sp
	@DEBUG_VALUE: construct<arm::app::image::Detection, arm::app::image::Detection &>:this <- [DW_OP_plus_uconst 24] [$sp+0]
	@DEBUG_VALUE: construct<arm::app::image::Detection, arm::app::image::Detection &>:__args <- [DW_OP_plus_uconst 48, DW_OP_stack_value] $sp
	@DEBUG_VALUE: Detection: <- [DW_OP_plus_uconst 48, DW_OP_stack_value] $sp
	@DEBUG_VALUE: emplace_front<arm::app::image::Detection &>:__a <- [DW_OP_plus_uconst 24] [$sp+0]
	@DEBUG_VALUE: emplace_front<arm::app::image::Detection &>:__args <- [DW_OP_plus_uconst 48, DW_OP_stack_value] $sp
	@DEBUG_VALUE: emplace_front<arm::app::image::Detection &>:this <- [DW_OP_plus_uconst 24] [$sp+0]
	@DEBUG_VALUE: GetNetworkBoxes:hsizes <- [DW_OP_plus_uconst 28, DW_OP_LLVM_fragment 0 32] [$sp+0]
	@DEBUG_VALUE: objectness <- $s28
	@DEBUG_VALUE: i <- $r9
	@DEBUG_VALUE: GetNetworkBoxes:num <- [DW_OP_plus_uconst 32] [$sp+0]
	@DEBUG_VALUE: GetNetworkBoxes:section1_1d <- [DW_OP_plus_uconst 16] [$sp+0]
	@DEBUG_VALUE: GetNetworkBoxes:wsizes <- [DW_OP_LLVM_fragment 0 32] $r8
	@DEBUG_VALUE: GetNetworkBoxes:net <- [DW_OP_plus_uconst 44] [$sp+0]
	@DEBUG_VALUE: GetNetworkBoxes:threshold <- $s16
	@DEBUG_VALUE: GetNetworkBoxes:this <- [DW_OP_LLVM_entry_value 1] $r0
	@DEBUG_VALUE: GetNetworkBoxes:detections <- [DW_OP_plus_uconst 184] [$sp+0]
	.loc	8 165 32                        @ C:\Keil_v5\ARM\ARMCLANG\Bin\..\include\libcxx\__memory/allocator.h:165:32
	vldrw.u32	q0, [r5], #16
	.loc	8 165 9 is_stmt 0               @ C:\Keil_v5\ARM\ARMCLANG\Bin\..\include\libcxx\__memory/allocator.h:165:9
	vstrb.8	q0, [r0], #16
	le	lr, .LBB2_58
.Ltmp346:
@ %bb.59:                               @   in Loop: Header=BB2_23 Depth=1
	@DEBUG_VALUE: __construct_at_end<float *>:__first <- $r11
	@DEBUG_VALUE: __construct_at_end<float *>:__last <- $r4
	@DEBUG_VALUE: __uninitialized_allocator_copy<std::__2::allocator<float>, float *, float *, float *>:__first1 <- $r11
	@DEBUG_VALUE: __uninitialized_allocator_copy<std::__2::allocator<float>, float *, float *, float *>:__last1 <- $r4
	@DEBUG_VALUE: __construct_at_end<float *>:this <- [DW_OP_plus_uconst 20, DW_OP_stack_value] $r6
	@DEBUG_VALUE: __construct_at_end<float *>:__tx <- [DW_OP_plus_uconst 20, DW_OP_stack_value, DW_OP_LLVM_fragment 0 32] $r6
	@DEBUG_VALUE: __uninitialized_allocator_copy<std::__2::allocator<float>, float *, float *, float *>:__alloc <- [DW_OP_plus_uconst 20, DW_OP_plus_uconst 8, DW_OP_stack_value] $r6
	@DEBUG_VALUE: vector:this <- [DW_OP_plus_uconst 20, DW_OP_stack_value] $r6
	@DEBUG_VALUE: vector:__x <- [DW_OP_plus_uconst 48, DW_OP_plus_uconst 16, DW_OP_stack_value] $sp
	@DEBUG_VALUE: emplace_front<arm::app::image::Detection &>:__h <- [DW_OP_LLVM_fragment 0 32] $r6
	@DEBUG_VALUE: emplace_front<arm::app::image::Detection &>:__h <- [DW_OP_plus_uconst 24, DW_OP_LLVM_fragment 32 32] [$sp+0]
	@DEBUG_VALUE: emplace_front<arm::app::image::Detection &>:__h <- [DW_OP_LLVM_fragment 64 32] 1
	@DEBUG_VALUE: construct<arm::app::image::Detection, arm::app::image::Detection &, void>:__p <- [DW_OP_plus_uconst 4, DW_OP_stack_value] $r6
	@DEBUG_VALUE: construct<arm::app::image::Detection, arm::app::image::Detection &>:__p <- [DW_OP_plus_uconst 4, DW_OP_stack_value] $r6
	@DEBUG_VALUE: Detection:this <- [DW_OP_plus_uconst 4, DW_OP_stack_value] $r6
	@DEBUG_VALUE: construct<arm::app::image::Detection, arm::app::image::Detection &, void>:__a <- [DW_OP_plus_uconst 24] [$sp+0]
	@DEBUG_VALUE: construct<arm::app::image::Detection, arm::app::image::Detection &, void>:__args <- [DW_OP_plus_uconst 48, DW_OP_stack_value] $sp
	@DEBUG_VALUE: construct<arm::app::image::Detection, arm::app::image::Detection &>:this <- [DW_OP_plus_uconst 24] [$sp+0]
	@DEBUG_VALUE: construct<arm::app::image::Detection, arm::app::image::Detection &>:__args <- [DW_OP_plus_uconst 48, DW_OP_stack_value] $sp
	@DEBUG_VALUE: Detection: <- [DW_OP_plus_uconst 48, DW_OP_stack_value] $sp
	@DEBUG_VALUE: emplace_front<arm::app::image::Detection &>:__a <- [DW_OP_plus_uconst 24] [$sp+0]
	@DEBUG_VALUE: emplace_front<arm::app::image::Detection &>:__args <- [DW_OP_plus_uconst 48, DW_OP_stack_value] $sp
	@DEBUG_VALUE: emplace_front<arm::app::image::Detection &>:this <- [DW_OP_plus_uconst 24] [$sp+0]
	@DEBUG_VALUE: GetNetworkBoxes:hsizes <- [DW_OP_plus_uconst 28, DW_OP_LLVM_fragment 0 32] [$sp+0]
	@DEBUG_VALUE: objectness <- $s28
	@DEBUG_VALUE: i <- $r9
	@DEBUG_VALUE: GetNetworkBoxes:num <- [DW_OP_plus_uconst 32] [$sp+0]
	@DEBUG_VALUE: GetNetworkBoxes:section1_1d <- [DW_OP_plus_uconst 16] [$sp+0]
	@DEBUG_VALUE: GetNetworkBoxes:wsizes <- [DW_OP_LLVM_fragment 0 32] $r8
	@DEBUG_VALUE: GetNetworkBoxes:net <- [DW_OP_plus_uconst 44] [$sp+0]
	@DEBUG_VALUE: GetNetworkBoxes:threshold <- $s16
	@DEBUG_VALUE: GetNetworkBoxes:this <- [DW_OP_LLVM_entry_value 1] $r0
	@DEBUG_VALUE: GetNetworkBoxes:detections <- [DW_OP_plus_uconst 184] [$sp+0]
	.loc	66 539 3 is_stmt 1              @ C:\Keil_v5\ARM\ARMCLANG\Bin\..\include\libcxx\__memory/uninitialized_algorithms.h:539:3
	cmp	r3, r7
	beq	.LBB2_62
.Ltmp347:
.LBB2_60:                               @   in Loop: Header=BB2_23 Depth=1
	@DEBUG_VALUE: __construct_at_end<float *>:__first <- $r11
	@DEBUG_VALUE: __construct_at_end<float *>:__last <- $r4
	@DEBUG_VALUE: __uninitialized_allocator_copy<std::__2::allocator<float>, float *, float *, float *>:__first1 <- $r11
	@DEBUG_VALUE: __uninitialized_allocator_copy<std::__2::allocator<float>, float *, float *, float *>:__last1 <- $r4
	@DEBUG_VALUE: __construct_at_end<float *>:this <- [DW_OP_plus_uconst 20, DW_OP_stack_value] $r6
	@DEBUG_VALUE: __construct_at_end<float *>:__tx <- [DW_OP_plus_uconst 20, DW_OP_stack_value, DW_OP_LLVM_fragment 0 32] $r6
	@DEBUG_VALUE: __uninitialized_allocator_copy<std::__2::allocator<float>, float *, float *, float *>:__alloc <- [DW_OP_plus_uconst 20, DW_OP_plus_uconst 8, DW_OP_stack_value] $r6
	@DEBUG_VALUE: vector:this <- [DW_OP_plus_uconst 20, DW_OP_stack_value] $r6
	@DEBUG_VALUE: vector:__x <- [DW_OP_plus_uconst 48, DW_OP_plus_uconst 16, DW_OP_stack_value] $sp
	@DEBUG_VALUE: emplace_front<arm::app::image::Detection &>:__h <- [DW_OP_LLVM_fragment 0 32] $r6
	@DEBUG_VALUE: emplace_front<arm::app::image::Detection &>:__h <- [DW_OP_plus_uconst 24, DW_OP_LLVM_fragment 32 32] [$sp+0]
	@DEBUG_VALUE: emplace_front<arm::app::image::Detection &>:__h <- [DW_OP_LLVM_fragment 64 32] 1
	@DEBUG_VALUE: construct<arm::app::image::Detection, arm::app::image::Detection &, void>:__p <- [DW_OP_plus_uconst 4, DW_OP_stack_value] $r6
	@DEBUG_VALUE: construct<arm::app::image::Detection, arm::app::image::Detection &>:__p <- [DW_OP_plus_uconst 4, DW_OP_stack_value] $r6
	@DEBUG_VALUE: Detection:this <- [DW_OP_plus_uconst 4, DW_OP_stack_value] $r6
	@DEBUG_VALUE: construct<arm::app::image::Detection, arm::app::image::Detection &, void>:__a <- [DW_OP_plus_uconst 24] [$sp+0]
	@DEBUG_VALUE: construct<arm::app::image::Detection, arm::app::image::Detection &, void>:__args <- [DW_OP_plus_uconst 48, DW_OP_stack_value] $sp
	@DEBUG_VALUE: construct<arm::app::image::Detection, arm::app::image::Detection &>:this <- [DW_OP_plus_uconst 24] [$sp+0]
	@DEBUG_VALUE: construct<arm::app::image::Detection, arm::app::image::Detection &>:__args <- [DW_OP_plus_uconst 48, DW_OP_stack_value] $sp
	@DEBUG_VALUE: Detection: <- [DW_OP_plus_uconst 48, DW_OP_stack_value] $sp
	@DEBUG_VALUE: emplace_front<arm::app::image::Detection &>:__a <- [DW_OP_plus_uconst 24] [$sp+0]
	@DEBUG_VALUE: emplace_front<arm::app::image::Detection &>:__args <- [DW_OP_plus_uconst 48, DW_OP_stack_value] $sp
	@DEBUG_VALUE: emplace_front<arm::app::image::Detection &>:this <- [DW_OP_plus_uconst 24] [$sp+0]
	@DEBUG_VALUE: GetNetworkBoxes:hsizes <- [DW_OP_plus_uconst 28, DW_OP_LLVM_fragment 0 32] [$sp+0]
	@DEBUG_VALUE: objectness <- $s28
	@DEBUG_VALUE: i <- $r9
	@DEBUG_VALUE: GetNetworkBoxes:num <- [DW_OP_plus_uconst 32] [$sp+0]
	@DEBUG_VALUE: GetNetworkBoxes:section1_1d <- [DW_OP_plus_uconst 16] [$sp+0]
	@DEBUG_VALUE: GetNetworkBoxes:wsizes <- [DW_OP_LLVM_fragment 0 32] $r8
	@DEBUG_VALUE: GetNetworkBoxes:net <- [DW_OP_plus_uconst 44] [$sp+0]
	@DEBUG_VALUE: GetNetworkBoxes:threshold <- $s16
	@DEBUG_VALUE: GetNetworkBoxes:this <- [DW_OP_LLVM_entry_value 1] $r0
	@DEBUG_VALUE: GetNetworkBoxes:detections <- [DW_OP_plus_uconst 184] [$sp+0]
	subs	r0, r4, r2
	movs	r3, #1
	subs	r0, #4
	add.w	lr, r3, r0, lsr #2
.Ltmp348:
	.p2align	2
.LBB2_61:                               @   Parent Loop BB2_23 Depth=1
                                        @ =>  This Inner Loop Header: Depth=2
	@DEBUG_VALUE: __construct_at_end<float *>:__first <- $r11
	@DEBUG_VALUE: __construct_at_end<float *>:__last <- $r4
	@DEBUG_VALUE: __uninitialized_allocator_copy<std::__2::allocator<float>, float *, float *, float *>:__last1 <- $r4
	@DEBUG_VALUE: __construct_at_end<float *>:this <- [DW_OP_plus_uconst 20, DW_OP_stack_value] $r6
	@DEBUG_VALUE: __construct_at_end<float *>:__tx <- [DW_OP_plus_uconst 20, DW_OP_stack_value, DW_OP_LLVM_fragment 0 32] $r6
	@DEBUG_VALUE: __uninitialized_allocator_copy<std::__2::allocator<float>, float *, float *, float *>:__alloc <- [DW_OP_plus_uconst 20, DW_OP_plus_uconst 8, DW_OP_stack_value] $r6
	@DEBUG_VALUE: vector:this <- [DW_OP_plus_uconst 20, DW_OP_stack_value] $r6
	@DEBUG_VALUE: vector:__x <- [DW_OP_plus_uconst 48, DW_OP_plus_uconst 16, DW_OP_stack_value] $sp
	@DEBUG_VALUE: emplace_front<arm::app::image::Detection &>:__h <- [DW_OP_LLVM_fragment 0 32] $r6
	@DEBUG_VALUE: emplace_front<arm::app::image::Detection &>:__h <- [DW_OP_plus_uconst 24, DW_OP_LLVM_fragment 32 32] [$sp+0]
	@DEBUG_VALUE: emplace_front<arm::app::image::Detection &>:__h <- [DW_OP_LLVM_fragment 64 32] 1
	@DEBUG_VALUE: construct<arm::app::image::Detection, arm::app::image::Detection &, void>:__p <- [DW_OP_plus_uconst 4, DW_OP_stack_value] $r6
	@DEBUG_VALUE: construct<arm::app::image::Detection, arm::app::image::Detection &>:__p <- [DW_OP_plus_uconst 4, DW_OP_stack_value] $r6
	@DEBUG_VALUE: Detection:this <- [DW_OP_plus_uconst 4, DW_OP_stack_value] $r6
	@DEBUG_VALUE: construct<arm::app::image::Detection, arm::app::image::Detection &, void>:__a <- [DW_OP_plus_uconst 24] [$sp+0]
	@DEBUG_VALUE: construct<arm::app::image::Detection, arm::app::image::Detection &, void>:__args <- [DW_OP_plus_uconst 48, DW_OP_stack_value] $sp
	@DEBUG_VALUE: construct<arm::app::image::Detection, arm::app::image::Detection &>:this <- [DW_OP_plus_uconst 24] [$sp+0]
	@DEBUG_VALUE: construct<arm::app::image::Detection, arm::app::image::Detection &>:__args <- [DW_OP_plus_uconst 48, DW_OP_stack_value] $sp
	@DEBUG_VALUE: Detection: <- [DW_OP_plus_uconst 48, DW_OP_stack_value] $sp
	@DEBUG_VALUE: emplace_front<arm::app::image::Detection &>:__a <- [DW_OP_plus_uconst 24] [$sp+0]
	@DEBUG_VALUE: emplace_front<arm::app::image::Detection &>:__args <- [DW_OP_plus_uconst 48, DW_OP_stack_value] $sp
	@DEBUG_VALUE: emplace_front<arm::app::image::Detection &>:this <- [DW_OP_plus_uconst 24] [$sp+0]
	@DEBUG_VALUE: GetNetworkBoxes:hsizes <- [DW_OP_plus_uconst 28, DW_OP_LLVM_fragment 0 32] [$sp+0]
	@DEBUG_VALUE: objectness <- $s28
	@DEBUG_VALUE: i <- $r9
	@DEBUG_VALUE: GetNetworkBoxes:num <- [DW_OP_plus_uconst 32] [$sp+0]
	@DEBUG_VALUE: GetNetworkBoxes:section1_1d <- [DW_OP_plus_uconst 16] [$sp+0]
	@DEBUG_VALUE: GetNetworkBoxes:wsizes <- [DW_OP_LLVM_fragment 0 32] $r8
	@DEBUG_VALUE: GetNetworkBoxes:net <- [DW_OP_plus_uconst 44] [$sp+0]
	@DEBUG_VALUE: GetNetworkBoxes:threshold <- $s16
	@DEBUG_VALUE: GetNetworkBoxes:this <- [DW_OP_LLVM_entry_value 1] $r0
	@DEBUG_VALUE: GetNetworkBoxes:detections <- [DW_OP_plus_uconst 184] [$sp+0]
	@DEBUG_VALUE: __uninitialized_allocator_copy<std::__2::allocator<float>, float *, float *, float *>:__first2 <- $r1
	@DEBUG_VALUE: __uninitialized_allocator_copy<std::__2::allocator<float>, float *, float *, float *>:__first1 <- $r2
	@DEBUG_VALUE: construct<float, float &, void>:__p <- $r1
	@DEBUG_VALUE: construct<float, float &, void>:__args <- $r2
	@DEBUG_VALUE: construct<float, float &>:__p <- $r1
	@DEBUG_VALUE: construct<float, float &>:__args <- $r2
	.loc	8 165 32                        @ C:\Keil_v5\ARM\ARMCLANG\Bin\..\include\libcxx\__memory/allocator.h:165:32
	ldr	r0, [r2], #4
.Ltmp349:
	.loc	8 165 9 is_stmt 0               @ C:\Keil_v5\ARM\ARMCLANG\Bin\..\include\libcxx\__memory/allocator.h:165:9
	str	r0, [r1], #4
.Ltmp350:
	@DEBUG_VALUE: construct<float, float &>:this <- [DW_OP_plus_uconst 20, DW_OP_plus_uconst 8, DW_OP_stack_value] $r6
	@DEBUG_VALUE: construct<float, float &, void>:__a <- [DW_OP_plus_uconst 20, DW_OP_plus_uconst 8, DW_OP_stack_value] $r6
	@DEBUG_VALUE: __uninitialized_allocator_copy<std::__2::allocator<float>, float *, float *, float *>:__first1 <- $r2
	@DEBUG_VALUE: __uninitialized_allocator_copy<std::__2::allocator<float>, float *, float *, float *>:__first2 <- $r1
	.loc	66 539 3 is_stmt 1              @ C:\Keil_v5\ARM\ARMCLANG\Bin\..\include\libcxx\__memory/uninitialized_algorithms.h:539:3
	le	lr, .LBB2_61
.Ltmp351:
.LBB2_62:                               @   in Loop: Header=BB2_23 Depth=1
	@DEBUG_VALUE: __construct_at_end<float *>:__first <- $r11
	@DEBUG_VALUE: __construct_at_end<float *>:__last <- $r4
	@DEBUG_VALUE: __construct_at_end<float *>:this <- [DW_OP_plus_uconst 20, DW_OP_stack_value] $r6
	@DEBUG_VALUE: __construct_at_end<float *>:__tx <- [DW_OP_plus_uconst 20, DW_OP_stack_value, DW_OP_LLVM_fragment 0 32] $r6
	@DEBUG_VALUE: vector:this <- [DW_OP_plus_uconst 20, DW_OP_stack_value] $r6
	@DEBUG_VALUE: vector:__x <- [DW_OP_plus_uconst 48, DW_OP_plus_uconst 16, DW_OP_stack_value] $sp
	@DEBUG_VALUE: emplace_front<arm::app::image::Detection &>:__h <- [DW_OP_LLVM_fragment 0 32] $r6
	@DEBUG_VALUE: emplace_front<arm::app::image::Detection &>:__h <- [DW_OP_plus_uconst 24, DW_OP_LLVM_fragment 32 32] [$sp+0]
	@DEBUG_VALUE: emplace_front<arm::app::image::Detection &>:__h <- [DW_OP_LLVM_fragment 64 32] 1
	@DEBUG_VALUE: construct<arm::app::image::Detection, arm::app::image::Detection &, void>:__p <- [DW_OP_plus_uconst 4, DW_OP_stack_value] $r6
	@DEBUG_VALUE: construct<arm::app::image::Detection, arm::app::image::Detection &>:__p <- [DW_OP_plus_uconst 4, DW_OP_stack_value] $r6
	@DEBUG_VALUE: Detection:this <- [DW_OP_plus_uconst 4, DW_OP_stack_value] $r6
	@DEBUG_VALUE: construct<arm::app::image::Detection, arm::app::image::Detection &, void>:__a <- [DW_OP_plus_uconst 24] [$sp+0]
	@DEBUG_VALUE: construct<arm::app::image::Detection, arm::app::image::Detection &, void>:__args <- [DW_OP_plus_uconst 48, DW_OP_stack_value] $sp
	@DEBUG_VALUE: construct<arm::app::image::Detection, arm::app::image::Detection &>:this <- [DW_OP_plus_uconst 24] [$sp+0]
	@DEBUG_VALUE: construct<arm::app::image::Detection, arm::app::image::Detection &>:__args <- [DW_OP_plus_uconst 48, DW_OP_stack_value] $sp
	@DEBUG_VALUE: Detection: <- [DW_OP_plus_uconst 48, DW_OP_stack_value] $sp
	@DEBUG_VALUE: emplace_front<arm::app::image::Detection &>:__a <- [DW_OP_plus_uconst 24] [$sp+0]
	@DEBUG_VALUE: emplace_front<arm::app::image::Detection &>:__args <- [DW_OP_plus_uconst 48, DW_OP_stack_value] $sp
	@DEBUG_VALUE: emplace_front<arm::app::image::Detection &>:this <- [DW_OP_plus_uconst 24] [$sp+0]
	@DEBUG_VALUE: GetNetworkBoxes:hsizes <- [DW_OP_plus_uconst 28, DW_OP_LLVM_fragment 0 32] [$sp+0]
	@DEBUG_VALUE: objectness <- $s28
	@DEBUG_VALUE: i <- $r9
	@DEBUG_VALUE: GetNetworkBoxes:num <- [DW_OP_plus_uconst 32] [$sp+0]
	@DEBUG_VALUE: GetNetworkBoxes:section1_1d <- [DW_OP_plus_uconst 16] [$sp+0]
	@DEBUG_VALUE: GetNetworkBoxes:wsizes <- [DW_OP_LLVM_fragment 0 32] $r8
	@DEBUG_VALUE: GetNetworkBoxes:net <- [DW_OP_plus_uconst 44] [$sp+0]
	@DEBUG_VALUE: GetNetworkBoxes:threshold <- $s16
	@DEBUG_VALUE: GetNetworkBoxes:this <- [DW_OP_LLVM_entry_value 1] $r0
	@DEBUG_VALUE: GetNetworkBoxes:detections <- [DW_OP_plus_uconst 184] [$sp+0]
	@DEBUG_VALUE: __construct_at_end<float *>:__tx <- [DW_OP_LLVM_fragment 32 32] $r1
	@DEBUG_VALUE: ~_ConstructTransaction:this <- undef
	.loc	66 0 3 is_stmt 0                @ C:\Keil_v5\ARM\ARMCLANG\Bin\..\include\libcxx\__memory/uninitialized_algorithms.h:0:3
	ldr	r5, [sp, #44]                   @ 4-byte Reload
	ldr	r7, [sp, #32]                   @ 4-byte Reload
.Ltmp352:
	.loc	1 788 19 is_stmt 1              @ C:\Keil_v5\ARM\ARMCLANG\Bin\..\include\libcxx\vector:788:19
	str	r1, [r6, #24]
.Ltmp353:
.LBB2_63:                               @   in Loop: Header=BB2_23 Depth=1
	@DEBUG_VALUE: emplace_front<arm::app::image::Detection &>:__h <- [DW_OP_LLVM_fragment 0 32] $r6
	@DEBUG_VALUE: emplace_front<arm::app::image::Detection &>:__h <- [DW_OP_plus_uconst 24, DW_OP_LLVM_fragment 32 32] [$sp+0]
	@DEBUG_VALUE: emplace_front<arm::app::image::Detection &>:__h <- [DW_OP_LLVM_fragment 64 32] 1
	@DEBUG_VALUE: construct<arm::app::image::Detection, arm::app::image::Detection &, void>:__p <- [DW_OP_plus_uconst 4, DW_OP_stack_value] $r6
	@DEBUG_VALUE: construct<arm::app::image::Detection, arm::app::image::Detection &>:__p <- [DW_OP_plus_uconst 4, DW_OP_stack_value] $r6
	@DEBUG_VALUE: Detection:this <- [DW_OP_plus_uconst 4, DW_OP_stack_value] $r6
	@DEBUG_VALUE: construct<arm::app::image::Detection, arm::app::image::Detection &, void>:__a <- [DW_OP_plus_uconst 24] [$sp+0]
	@DEBUG_VALUE: construct<arm::app::image::Detection, arm::app::image::Detection &, void>:__args <- [DW_OP_plus_uconst 48, DW_OP_stack_value] $sp
