	.text
	.syntax unified
	.eabi_attribute	67, "2.09"	@ Tag_conformance
	.cpu	cortex-m55
	.eabi_attribute	6, 21	@ Tag_CPU_arch
	.eabi_attribute	7, 77	@ Tag_CPU_arch_profile
	.eabi_attribute	8, 0	@ Tag_ARM_ISA_use
	.eabi_attribute	9, 3	@ Tag_THUMB_ISA_use
	.fpu	fpv5-d16
	.arch_extension	mve.fp
	.eabi_attribute	36, 1	@ Tag_FP_HP_extension
	.eabi_attribute	48, 2	@ Tag_MVE_arch
	.eabi_attribute	46, 1	@ Tag_DSP_extension
	.eabi_attribute	34, 1	@ Tag_CPU_unaligned_access
	.eabi_attribute	17, 1	@ Tag_ABI_PCS_GOT_use
	.eabi_attribute	20, 2	@ Tag_ABI_FP_denormal
	.eabi_attribute	21, 0	@ Tag_ABI_FP_exceptions
	.eabi_attribute	23, 1	@ Tag_ABI_FP_number_model
	.eabi_attribute	24, 1	@ Tag_ABI_align_needed
	.eabi_attribute	25, 1	@ Tag_ABI_align_preserved
	.eabi_attribute	28, 1	@ Tag_ABI_VFP_args
	.eabi_attribute	38, 1	@ Tag_ABI_FP_16bit_format
	.eabi_attribute	18, 2	@ Tag_ABI_PCS_wchar_t
	.eabi_attribute	26, 1	@ Tag_ABI_enum_size
	.eabi_attribute	14, 0	@ Tag_ABI_PCS_R9_use
	.file	"PlatformMath.cc"
	.file	1 "D:\\M55M1_NuEdgeWise\\ML_M55M1_SampleCode\\M55M1BSP-3.00.001\\SampleCode\\NuEdgeWise\\ObjectDetection_FreeRTOS_yoloxn\\KEIL" "../../../../ThirdParty/ml-embedded-evaluation-kit/source/math/PlatformMath.cc"
	.file	2 "C:\\Keil_v5\\ARM\\ARMCLANG\\bin\\..\\include\\libcxx" "vector"
	.file	3 "C:\\Keil_v5\\ARM\\ARMCLANG\\bin\\..\\include\\libcxx" "stdexcept"
	.file	4 "C:\\Keil_v5\\ARM\\ARMCLANG\\bin\\..\\include\\libcxx" "new"
	.file	5 "D:\\M55M1_NuEdgeWise\\ML_M55M1_SampleCode\\M55M1BSP-3.00.001\\SampleCode\\NuEdgeWise\\ObjectDetection_FreeRTOS_yoloxn\\KEIL" "../../../../ThirdParty/ml-embedded-evaluation-kit/source/math/include\\PlatformMath.hpp"
	.file	6 "D:\\M55M1_NuEdgeWise\\ML_M55M1_SampleCode\\M55M1BSP-3.00.001\\SampleCode\\NuEdgeWise\\ObjectDetection_FreeRTOS_yoloxn\\KEIL" "../../../../Library/CMSIS/DSP/Include\\arm_math_types.h"
	.file	7 "C:\\Keil_v5\\ARM\\ARMCLANG\\bin\\..\\include" "stdlib.h"
	.file	8 "C:\\Keil_v5\\ARM\\ARMCLANG\\bin\\..\\include\\libcxx\\__string" "constexpr_c_functions.h"
	.file	9 "C:\\Keil_v5\\ARM\\ARMCLANG\\bin\\..\\include\\libcxx" "limits"
	.file	10 "C:\\Keil_v5\\ARM\\ARMCLANG\\bin\\..\\include\\libcxx\\__memory" "allocator.h"
	.file	11 "C:\\Keil_v5\\ARM\\ARMCLANG\\bin\\..\\include" "time.h"
	.file	12 "C:\\Keil_v5\\ARM\\ARMCLANG\\bin\\..\\include\\libcxx\\__memory" "allocator_traits.h"
	.file	13 "C:\\Keil_v5\\ARM\\ARMCLANG\\bin\\..\\include\\libcxx\\__iterator" "iterator_traits.h"
	.file	14 "C:\\Keil_v5\\ARM\\ARMCLANG\\bin\\..\\include" "stddef.h"
	.file	15 "C:\\Keil_v5\\ARM\\ARMCLANG\\bin\\..\\include\\libcxx\\__iterator" "advance.h"
	.file	16 "C:\\Keil_v5\\ARM\\ARMCLANG\\bin\\..\\include\\libcxx\\__iterator" "wrap_iter.h"
	.file	17 "C:\\Keil_v5\\ARM\\ARMCLANG\\bin\\..\\include\\libcxx\\__memory" "compressed_pair.h"
	.file	18 "C:\\Keil_v5\\ARM\\ARMCLANG\\bin\\..\\include\\libcxx\\__utility" "pair.h"
	.file	19 "C:\\Keil_v5\\ARM\\ARMCLANG\\bin\\..\\include\\libcxx\\__type_traits" "datasizeof.h"
	.section	.text._ZN3arm3app4math9MathUtils9CosineF32Ef,"ax",%progbits
	.hidden	_ZN3arm3app4math9MathUtils9CosineF32Ef @ -- Begin function _ZN3arm3app4math9MathUtils9CosineF32Ef
	.globl	_ZN3arm3app4math9MathUtils9CosineF32Ef
	.p2align	2
	.type	_ZN3arm3app4math9MathUtils9CosineF32Ef,%function
	.code	16                              @ @_ZN3arm3app4math9MathUtils9CosineF32Ef
	.thumb_func
_ZN3arm3app4math9MathUtils9CosineF32Ef:
.Lfunc_begin0:
	.fnstart
	.cfi_sections .debug_frame
	.cfi_startproc
@ %bb.0:
	@DEBUG_VALUE: CosineF32:radians <- $s0
	.loc	1 28 16 prologue_end            @ ../../../../ThirdParty/ml-embedded-evaluation-kit/source/math/PlatformMath.cc:28:16
	b	arm_cos_f32
.Ltmp0:
.Lfunc_end0:
	.size	_ZN3arm3app4math9MathUtils9CosineF32Ef, .Lfunc_end0-_ZN3arm3app4math9MathUtils9CosineF32Ef
	.cfi_endproc
	.file	20 "C:\\Keil_v5\\ARM\\ARMCLANG\\bin\\..\\include" "stdint.h"
	.file	21 "D:\\M55M1_NuEdgeWise\\ML_M55M1_SampleCode\\M55M1BSP-3.00.001\\SampleCode\\NuEdgeWise\\ObjectDetection_FreeRTOS_yoloxn\\KEIL" "../../../../Library/CMSIS/DSP/Include\\dsp/transform_functions.h"
	.file	22 "D:\\M55M1_NuEdgeWise\\ML_M55M1_SampleCode\\M55M1BSP-3.00.001\\SampleCode\\NuEdgeWise\\ObjectDetection_FreeRTOS_yoloxn\\KEIL" "../../../../Library/CMSIS/DSP/Include\\dsp/fast_math_functions.h"
	.cantunwind
	.fnend
                                        @ -- End function
	.section	.text._ZN3arm3app4math9MathUtils7SineF32Ef,"ax",%progbits
	.hidden	_ZN3arm3app4math9MathUtils7SineF32Ef @ -- Begin function _ZN3arm3app4math9MathUtils7SineF32Ef
	.globl	_ZN3arm3app4math9MathUtils7SineF32Ef
	.p2align	2
	.type	_ZN3arm3app4math9MathUtils7SineF32Ef,%function
	.code	16                              @ @_ZN3arm3app4math9MathUtils7SineF32Ef
	.thumb_func
_ZN3arm3app4math9MathUtils7SineF32Ef:
.Lfunc_begin1:
	.fnstart
	.cfi_startproc
@ %bb.0:
	@DEBUG_VALUE: SineF32:radians <- $s0
	.loc	1 37 16 prologue_end            @ ../../../../ThirdParty/ml-embedded-evaluation-kit/source/math/PlatformMath.cc:37:16
	b	arm_sin_f32
.Ltmp1:
.Lfunc_end1:
	.size	_ZN3arm3app4math9MathUtils7SineF32Ef, .Lfunc_end1-_ZN3arm3app4math9MathUtils7SineF32Ef
	.cfi_endproc
	.cantunwind
	.fnend
                                        @ -- End function
	.section	.text._ZN3arm3app4math9MathUtils7SqrtF32Ef,"ax",%progbits
	.hidden	_ZN3arm3app4math9MathUtils7SqrtF32Ef @ -- Begin function _ZN3arm3app4math9MathUtils7SqrtF32Ef
	.globl	_ZN3arm3app4math9MathUtils7SqrtF32Ef
	.p2align	2
	.type	_ZN3arm3app4math9MathUtils7SqrtF32Ef,%function
	.code	16                              @ @_ZN3arm3app4math9MathUtils7SqrtF32Ef
	.thumb_func
_ZN3arm3app4math9MathUtils7SqrtF32Ef:
.Lfunc_begin2:
	.fnstart
	.cfi_startproc
@ %bb.0:
	@DEBUG_VALUE: SqrtF32:input <- $s0
	@DEBUG_VALUE: arm_sqrt_f32:in <- $s0
	@DEBUG_VALUE: SqrtF32:output <- 0.000000e+00
	.loc	22 260 9 prologue_end           @ ../../../../Library/CMSIS/DSP/Include\dsp/fast_math_functions.h:260:9
	vsqrt.f32	s2, s0
	vcmp.f32	s0, #0
	vldr	s4, .LCPI2_0
	vmrs	APSR_nzcv, fpscr
	it	lt
	vmovlt.f32	s2, s4
.Ltmp2:
	@DEBUG_VALUE: SqrtF32:output <- $s2
	.loc	1 48 9                          @ ../../../../ThirdParty/ml-embedded-evaluation-kit/source/math/PlatformMath.cc:48:9
	vmov.f32	s0, s2
.Ltmp3:
	@DEBUG_VALUE: SqrtF32:input <- [DW_OP_LLVM_entry_value 1] $s0
	bx	lr
.Ltmp4:
	.p2align	2
@ %bb.1:
	.loc	1 0 9 is_stmt 0                 @ ../../../../ThirdParty/ml-embedded-evaluation-kit/source/math/PlatformMath.cc:0:9
.LCPI2_0:
	.long	0x00000000                      @ float 0
.Lfunc_end2:
	.size	_ZN3arm3app4math9MathUtils7SqrtF32Ef, .Lfunc_end2-_ZN3arm3app4math9MathUtils7SqrtF32Ef
	.cfi_endproc
	.cantunwind
	.fnend
                                        @ -- End function
	.section	.text._ZN3arm3app4math9MathUtils7MeanF32EPfj,"ax",%progbits
	.hidden	_ZN3arm3app4math9MathUtils7MeanF32EPfj @ -- Begin function _ZN3arm3app4math9MathUtils7MeanF32EPfj
	.globl	_ZN3arm3app4math9MathUtils7MeanF32EPfj
	.p2align	2
	.type	_ZN3arm3app4math9MathUtils7MeanF32EPfj,%function
	.code	16                              @ @_ZN3arm3app4math9MathUtils7MeanF32EPfj
	.thumb_func
_ZN3arm3app4math9MathUtils7MeanF32EPfj:
.Lfunc_begin3:
	.fnstart
	.cfi_startproc
@ %bb.0:
	@DEBUG_VALUE: MeanF32:ptrSrc <- $r0
	@DEBUG_VALUE: MeanF32:srcLen <- $r1
	.loc	1 56 13 prologue_end is_stmt 1  @ ../../../../ThirdParty/ml-embedded-evaluation-kit/source/math/PlatformMath.cc:56:13
	cmp	r1, #0
	itt	eq
	vldreq	s0, .LCPI3_0
	.loc	1 68 5                          @ ../../../../ThirdParty/ml-embedded-evaluation-kit/source/math/PlatformMath.cc:68:5
	bxeq	lr
.Ltmp5:
.LBB3_1:
	@DEBUG_VALUE: MeanF32:srcLen <- $r1
	@DEBUG_VALUE: MeanF32:ptrSrc <- $r0
	.save	{r7, lr}
	push	{r7, lr}
	.cfi_def_cfa_offset 8
	.cfi_offset lr, -4
	.cfi_offset r7, -8
	.pad	#8
	sub	sp, #8
	.cfi_def_cfa_offset 16
	movs	r2, #0
	.loc	1 61 15                         @ ../../../../ThirdParty/ml-embedded-evaluation-kit/source/math/PlatformMath.cc:61:15
	str	r2, [sp, #4]
	add	r2, sp, #4
	.loc	1 62 9                          @ ../../../../ThirdParty/ml-embedded-evaluation-kit/source/math/PlatformMath.cc:62:9
	bl	arm_mean_f32
.Ltmp6:
	@DEBUG_VALUE: MeanF32:srcLen <- [DW_OP_LLVM_entry_value 1] $r1
	@DEBUG_VALUE: MeanF32:ptrSrc <- [DW_OP_LLVM_entry_value 1] $r0
	.loc	1 63 16                         @ ../../../../ThirdParty/ml-embedded-evaluation-kit/source/math/PlatformMath.cc:63:16
	vldr	s0, [sp, #4]
	add	sp, #8
	pop	{r7, pc}
.Ltmp7:
	.p2align	2
@ %bb.2:
	.loc	1 0 16 is_stmt 0                @ ../../../../ThirdParty/ml-embedded-evaluation-kit/source/math/PlatformMath.cc:0:16
.LCPI3_0:
	.long	0x00000000                      @ float 0
.Lfunc_end3:
	.size	_ZN3arm3app4math9MathUtils7MeanF32EPfj, .Lfunc_end3-_ZN3arm3app4math9MathUtils7MeanF32EPfj
	.cfi_endproc
	.cantunwind
	.fnend
                                        @ -- End function
	.section	.text._ZN3arm3app4math9MathUtils9StdDevF32EPfjf,"ax",%progbits
	.hidden	_ZN3arm3app4math9MathUtils9StdDevF32EPfjf @ -- Begin function _ZN3arm3app4math9MathUtils9StdDevF32EPfjf
	.globl	_ZN3arm3app4math9MathUtils9StdDevF32EPfjf
	.p2align	2
	.type	_ZN3arm3app4math9MathUtils9StdDevF32EPfjf,%function
	.code	16                              @ @_ZN3arm3app4math9MathUtils9StdDevF32EPfjf
	.thumb_func
_ZN3arm3app4math9MathUtils9StdDevF32EPfjf:
.Lfunc_begin4:
	.fnstart
	.cfi_startproc
@ %bb.0:
	@DEBUG_VALUE: StdDevF32:ptrSrc <- $r0
	@DEBUG_VALUE: StdDevF32:srcLen <- $r1
	@DEBUG_VALUE: StdDevF32:mean <- $s0
	.loc	1 73 13 prologue_end is_stmt 1  @ ../../../../ThirdParty/ml-embedded-evaluation-kit/source/math/PlatformMath.cc:73:13
	cmp	r1, #0
	itt	eq
	vldreq	s0, .LCPI4_0
.Ltmp8:
	@DEBUG_VALUE: StdDevF32:mean <- [DW_OP_LLVM_entry_value 1] $s0
	.loc	1 96 5                          @ ../../../../ThirdParty/ml-embedded-evaluation-kit/source/math/PlatformMath.cc:96:5
	bxeq	lr
.Ltmp9:
.LBB4_1:
	@DEBUG_VALUE: StdDevF32:mean <- [DW_OP_LLVM_entry_value 1] $s0
	@DEBUG_VALUE: StdDevF32:srcLen <- $r1
	@DEBUG_VALUE: StdDevF32:ptrSrc <- $r0
	.save	{r7, lr}
	push	{r7, lr}
	.cfi_def_cfa_offset 8
	.cfi_offset lr, -4
	.cfi_offset r7, -8
	.pad	#8
	sub	sp, #8
	.cfi_def_cfa_offset 16
	movs	r2, #0
	.loc	1 83 15                         @ ../../../../ThirdParty/ml-embedded-evaluation-kit/source/math/PlatformMath.cc:83:15
	str	r2, [sp, #4]
	add	r2, sp, #4
	.loc	1 84 9                          @ ../../../../ThirdParty/ml-embedded-evaluation-kit/source/math/PlatformMath.cc:84:9
	bl	arm_std_f32
.Ltmp10:
	@DEBUG_VALUE: StdDevF32:srcLen <- [DW_OP_LLVM_entry_value 1] $r1
	@DEBUG_VALUE: StdDevF32:ptrSrc <- [DW_OP_LLVM_entry_value 1] $r0
	.loc	1 85 16                         @ ../../../../ThirdParty/ml-embedded-evaluation-kit/source/math/PlatformMath.cc:85:16
	vldr	s0, [sp, #4]
	add	sp, #8
	pop	{r7, pc}
.Ltmp11:
	.p2align	2
@ %bb.2:
	.loc	1 0 16 is_stmt 0                @ ../../../../ThirdParty/ml-embedded-evaluation-kit/source/math/PlatformMath.cc:0:16
.LCPI4_0:
	.long	0x00000000                      @ float 0
.Lfunc_end4:
	.size	_ZN3arm3app4math9MathUtils9StdDevF32EPfjf, .Lfunc_end4-_ZN3arm3app4math9MathUtils9StdDevF32EPfjf
	.cfi_endproc
	.cantunwind
	.fnend
                                        @ -- End function
	.section	.text._ZN3arm3app4math9MathUtils10FftInitF32EtRNS1_11FftInstanceENS1_7FftTypeE,"ax",%progbits
	.hidden	_ZN3arm3app4math9MathUtils10FftInitF32EtRNS1_11FftInstanceENS1_7FftTypeE @ -- Begin function _ZN3arm3app4math9MathUtils10FftInitF32EtRNS1_11FftInstanceENS1_7FftTypeE
	.globl	_ZN3arm3app4math9MathUtils10FftInitF32EtRNS1_11FftInstanceENS1_7FftTypeE
	.p2align	2
	.type	_ZN3arm3app4math9MathUtils10FftInitF32EtRNS1_11FftInstanceENS1_7FftTypeE,%function
	.code	16                              @ @_ZN3arm3app4math9MathUtils10FftInitF32EtRNS1_11FftInstanceENS1_7FftTypeE
	.thumb_func
_ZN3arm3app4math9MathUtils10FftInitF32EtRNS1_11FftInstanceENS1_7FftTypeE:
.Lfunc_begin5:
	.loc	1 101 0 is_stmt 1               @ ../../../../ThirdParty/ml-embedded-evaluation-kit/source/math/PlatformMath.cc:101:0
	.fnstart
	.cfi_startproc
@ %bb.0:
	@DEBUG_VALUE: FftInitF32:fftLen <- $r0
	@DEBUG_VALUE: FftInitF32:fftInstance <- $r1
	@DEBUG_VALUE: FftInitF32:type <- $r2
	.save	{r4, r5, r7, lr}
	push	{r4, r5, r7, lr}
	.cfi_def_cfa_offset 16
	.cfi_offset lr, -4
	.cfi_offset r7, -8
	.cfi_offset r5, -12
	.cfi_offset r4, -16
	mov	r4, r1
.Ltmp12:
	@DEBUG_VALUE: FftInitF32:fftInstance <- $r4
	mov	r5, r0
.Ltmp13:
	@DEBUG_VALUE: FftInitF32:fftLen <- $r5
	.loc	1 102 30 prologue_end           @ ../../../../ThirdParty/ml-embedded-evaluation-kit/source/math/PlatformMath.cc:102:30
	strh.w	r0, [r1, #88]
	movs	r0, #0
	.loc	1 109 9                         @ ../../../../ThirdParty/ml-embedded-evaluation-kit/source/math/PlatformMath.cc:109:9
	cmp	r2, #1
	.loc	1 104 48                        @ ../../../../ThirdParty/ml-embedded-evaluation-kit/source/math/PlatformMath.cc:104:48
	strh.w	r0, [r1, #96]
	.loc	1 105 28                        @ ../../../../ThirdParty/ml-embedded-evaluation-kit/source/math/PlatformMath.cc:105:28
	str	r2, [r1, #92]
.Ltmp14:
	@DEBUG_VALUE: FftInitF32:status <- -1
	.loc	1 109 9                         @ ../../../../ThirdParty/ml-embedded-evaluation-kit/source/math/PlatformMath.cc:109:9
	beq	.LBB5_4
.Ltmp15:
@ %bb.1:
	@DEBUG_VALUE: FftInitF32:status <- -1
	@DEBUG_VALUE: FftInitF32:fftLen <- $r5
	@DEBUG_VALUE: FftInitF32:fftInstance <- $r4
	@DEBUG_VALUE: FftInitF32:type <- $r2
	cbnz	r2, .LBB5_7
.Ltmp16:
@ %bb.2:
	@DEBUG_VALUE: FftInitF32:status <- -1
	@DEBUG_VALUE: FftInitF32:fftLen <- $r5
	@DEBUG_VALUE: FftInitF32:fftInstance <- $r4
	@DEBUG_VALUE: FftInitF32:type <- $r2
	.loc	1 111 22                        @ ../../../../ThirdParty/ml-embedded-evaluation-kit/source/math/PlatformMath.cc:111:22
	mov	r0, r4
	mov	r1, r5
	bl	arm_rfft_fast_init_f32
.Ltmp17:
	@DEBUG_VALUE: FftInitF32:type <- [DW_OP_LLVM_entry_value 1] $r2
	@DEBUG_VALUE: FftInitF32:status <- undef
	@DEBUG_VALUE: FftInitF32:status <- $r0
	.loc	1 123 13                        @ ../../../../ThirdParty/ml-embedded-evaluation-kit/source/math/PlatformMath.cc:123:13
	cbz	r0, .LBB5_5
.Ltmp18:
.LBB5_3:
	@DEBUG_VALUE: FftInitF32:status <- $r0
	@DEBUG_VALUE: FftInitF32:type <- [DW_OP_LLVM_entry_value 1] $r2
	@DEBUG_VALUE: FftInitF32:fftLen <- $r5
	@DEBUG_VALUE: FftInitF32:fftInstance <- $r4
	.loc	1 124 13                        @ ../../../../ThirdParty/ml-embedded-evaluation-kit/source/math/PlatformMath.cc:124:13
	movw	r0, :lower16:.L.str
.Ltmp19:
	movt	r0, :upper16:.L.str
	bl	__2printf
.Ltmp20:
	adr	r0, .LCPI5_0
	mov	r1, r5
	bl	__2printf
.Ltmp21:
	.loc	1 0 13 is_stmt 0                @ ../../../../ThirdParty/ml-embedded-evaluation-kit/source/math/PlatformMath.cc:0:13
	b	.LBB5_6
.Ltmp22:
.LBB5_4:
	@DEBUG_VALUE: FftInitF32:status <- -1
	@DEBUG_VALUE: FftInitF32:fftLen <- $r5
	@DEBUG_VALUE: FftInitF32:fftInstance <- $r4
	@DEBUG_VALUE: FftInitF32:type <- $r2
	.loc	1 115 53 is_stmt 1              @ ../../../../ThirdParty/ml-embedded-evaluation-kit/source/math/PlatformMath.cc:115:53
	add.w	r0, r4, #48
	.loc	1 115 22 is_stmt 0              @ ../../../../ThirdParty/ml-embedded-evaluation-kit/source/math/PlatformMath.cc:115:22
	mov	r1, r5
	bl	arm_cfft_init_f32
.Ltmp23:
	@DEBUG_VALUE: FftInitF32:type <- [DW_OP_LLVM_entry_value 1] $r2
	@DEBUG_VALUE: FftInitF32:status <- undef
	@DEBUG_VALUE: FftInitF32:status <- $r0
	.loc	1 123 13 is_stmt 1              @ ../../../../ThirdParty/ml-embedded-evaluation-kit/source/math/PlatformMath.cc:123:13
	cmp	r0, #0
	bne	.LBB5_3
.Ltmp24:
.LBB5_5:
	@DEBUG_VALUE: FftInitF32:status <- $r0
	@DEBUG_VALUE: FftInitF32:type <- [DW_OP_LLVM_entry_value 1] $r2
	@DEBUG_VALUE: FftInitF32:fftLen <- $r5
	@DEBUG_VALUE: FftInitF32:fftInstance <- $r4
	.loc	1 0 13 is_stmt 0                @ ../../../../ThirdParty/ml-embedded-evaluation-kit/source/math/PlatformMath.cc:0:13
	movs	r0, #1
.Ltmp25:
	.loc	1 126 52 is_stmt 1              @ ../../../../ThirdParty/ml-embedded-evaluation-kit/source/math/PlatformMath.cc:126:52
	strb.w	r0, [r4, #96]
.Ltmp26:
.LBB5_6:
	@DEBUG_VALUE: FftInitF32:type <- [DW_OP_LLVM_entry_value 1] $r2
	@DEBUG_VALUE: FftInitF32:fftLen <- $r5
	@DEBUG_VALUE: FftInitF32:fftInstance <- $r4
	.loc	1 0 52 is_stmt 0                @ ../../../../ThirdParty/ml-embedded-evaluation-kit/source/math/PlatformMath.cc:0:52
	movs	r0, #1
	.loc	1 132 35 is_stmt 1              @ ../../../../ThirdParty/ml-embedded-evaluation-kit/source/math/PlatformMath.cc:132:35
	strb.w	r0, [r4, #97]
	.loc	1 133 5 epilogue_begin          @ ../../../../ThirdParty/ml-embedded-evaluation-kit/source/math/PlatformMath.cc:133:5
	pop	{r4, r5, r7, pc}
.Ltmp27:
.LBB5_7:
	@DEBUG_VALUE: FftInitF32:status <- -1
	@DEBUG_VALUE: FftInitF32:fftLen <- $r5
	@DEBUG_VALUE: FftInitF32:fftInstance <- $r4
	@DEBUG_VALUE: FftInitF32:type <- $r2
	.loc	1 119 13                        @ ../../../../ThirdParty/ml-embedded-evaluation-kit/source/math/PlatformMath.cc:119:13
	movw	r0, :lower16:.L.str
	movt	r0, :upper16:.L.str
	bl	__2printf
.Ltmp28:
	@DEBUG_VALUE: FftInitF32:type <- [DW_OP_LLVM_entry_value 1] $r2
	movw	r0, :lower16:.Lstr.12
	movt	r0, :upper16:.Lstr.12
	.loc	1 119 13 epilogue_begin is_stmt 0 @ ../../../../ThirdParty/ml-embedded-evaluation-kit/source/math/PlatformMath.cc:119:13
	pop.w	{r4, r5, r7, lr}
.Ltmp29:
	@DEBUG_VALUE: FftInitF32:fftLen <- [DW_OP_LLVM_entry_value 1] $r0
	@DEBUG_VALUE: FftInitF32:fftInstance <- [DW_OP_LLVM_entry_value 1] $r1
	b	puts
.Ltmp30:
	.p2align	2
@ %bb.8:
	.loc	1 0 13                          @ ../../../../ThirdParty/ml-embedded-evaluation-kit/source/math/PlatformMath.cc:0:13
.LCPI5_0:
.L.str.2:
	.asciz	"Failed to initialise FFT for len %d\n\000\000\000"
.Lfunc_end5:
	.size	_ZN3arm3app4math9MathUtils10FftInitF32EtRNS1_11FftInstanceENS1_7FftTypeE, .Lfunc_end5-_ZN3arm3app4math9MathUtils10FftInitF32EtRNS1_11FftInstanceENS1_7FftTypeE
	.cfi_endproc
	.cantunwind
	.fnend
                                        @ -- End function
	.section	.text._ZN3arm3app4math9MathUtils6FftF32ERNSt3__26vectorIfNS3_9allocatorIfEEEES8_RNS1_11FftInstanceE,"ax",%progbits
	.hidden	_ZN3arm3app4math9MathUtils6FftF32ERNSt3__26vectorIfNS3_9allocatorIfEEEES8_RNS1_11FftInstanceE @ -- Begin function _ZN3arm3app4math9MathUtils6FftF32ERNSt3__26vectorIfNS3_9allocatorIfEEEES8_RNS1_11FftInstanceE
	.globl	_ZN3arm3app4math9MathUtils6FftF32ERNSt3__26vectorIfNS3_9allocatorIfEEEES8_RNS1_11FftInstanceE
	.p2align	2
	.type	_ZN3arm3app4math9MathUtils6FftF32ERNSt3__26vectorIfNS3_9allocatorIfEEEES8_RNS1_11FftInstanceE,%function
	.code	16                              @ @_ZN3arm3app4math9MathUtils6FftF32ERNSt3__26vectorIfNS3_9allocatorIfEEEES8_RNS1_11FftInstanceE
	.thumb_func
_ZN3arm3app4math9MathUtils6FftF32ERNSt3__26vectorIfNS3_9allocatorIfEEEES8_RNS1_11FftInstanceE:
.Lfunc_begin6:
	.loc	1 190 0 is_stmt 1               @ ../../../../ThirdParty/ml-embedded-evaluation-kit/source/math/PlatformMath.cc:190:0
	.fnstart
	.cfi_startproc
@ %bb.0:
	@DEBUG_VALUE: FftF32:input <- $r0
	@DEBUG_VALUE: FftF32:fftOutput <- $r1
	@DEBUG_VALUE: FftF32:fftInstance <- $r2
	.save	{r4, r5, r6, lr}
	push	{r4, r5, r6, lr}
	.cfi_def_cfa_offset 16
	.cfi_offset lr, -4
	.cfi_offset r6, -8
	.cfi_offset r5, -12
	.cfi_offset r4, -16
.Ltmp31:
	.loc	1 191 26 prologue_end           @ ../../../../ThirdParty/ml-embedded-evaluation-kit/source/math/PlatformMath.cc:191:26
	ldrb.w	r3, [r2, #97]
.Ltmp32:
	.loc	1 191 13 is_stmt 0              @ ../../../../ThirdParty/ml-embedded-evaluation-kit/source/math/PlatformMath.cc:191:13
	cbz	r3, .LBB6_3
.Ltmp33:
@ %bb.1:
	@DEBUG_VALUE: FftF32:fftInstance <- $r2
	@DEBUG_VALUE: FftF32:fftOutput <- $r1
	@DEBUG_VALUE: FftF32:input <- $r0
	@DEBUG_VALUE: size:this <- $r0
	.loc	2 595 56 is_stmt 1              @ C:\Keil_v5\ARM\ARMCLANG\bin\..\include\libcxx\vector:595:56
	ldrd	lr, r4, [r0]
.Ltmp34:
	.loc	1 194 47                        @ ../../../../ThirdParty/ml-embedded-evaluation-kit/source/math/PlatformMath.cc:194:47
	ldrh.w	r5, [r2, #88]
.Ltmp35:
	.loc	2 595 48                        @ C:\Keil_v5\ARM\ARMCLANG\bin\..\include\libcxx\vector:595:48
	sub.w	r3, r4, lr
.Ltmp36:
	.loc	1 194 20                        @ ../../../../ThirdParty/ml-embedded-evaluation-kit/source/math/PlatformMath.cc:194:20
	cmp.w	r5, r3, asr #2
	bls	.LBB6_4
.Ltmp37:
@ %bb.2:
	@DEBUG_VALUE: FftF32:fftInstance <- $r2
	@DEBUG_VALUE: FftF32:fftOutput <- $r1
	@DEBUG_VALUE: FftF32:input <- $r0
	.loc	1 195 13                        @ ../../../../ThirdParty/ml-embedded-evaluation-kit/source/math/PlatformMath.cc:195:13
	movw	r1, :lower16:.L.str
.Ltmp38:
	@DEBUG_VALUE: FftF32:fftOutput <- [DW_OP_LLVM_entry_value 1] $r1
	.loc	1 0 13 is_stmt 0                @ ../../../../ThirdParty/ml-embedded-evaluation-kit/source/math/PlatformMath.cc:0:13
	mov	r4, r0
.Ltmp39:
	@DEBUG_VALUE: FftF32:input <- $r4
	.loc	1 195 13                        @ ../../../../ThirdParty/ml-embedded-evaluation-kit/source/math/PlatformMath.cc:195:13
	movt	r1, :upper16:.L.str
	mov	r5, r2
.Ltmp40:
	@DEBUG_VALUE: FftF32:fftInstance <- $r5
	mov	r0, r1
	bl	__2printf
.Ltmp41:
	.loc	2 595 56 is_stmt 1              @ C:\Keil_v5\ARM\ARMCLANG\bin\..\include\libcxx\vector:595:56
	ldrd	r0, r2, [r4]
.Ltmp42:
	.loc	1 195 13                        @ ../../../../ThirdParty/ml-embedded-evaluation-kit/source/math/PlatformMath.cc:195:13
	ldrh.w	r1, [r5, #88]
.Ltmp43:
	@DEBUG_VALUE: size:this <- undef
	.loc	2 595 48                        @ C:\Keil_v5\ARM\ARMCLANG\bin\..\include\libcxx\vector:595:48
	subs	r0, r2, r0
	asrs	r2, r0, #2
.Ltmp44:
	.loc	1 195 13                        @ ../../../../ThirdParty/ml-embedded-evaluation-kit/source/math/PlatformMath.cc:195:13
	movw	r0, :lower16:.L.str.4
	movt	r0, :upper16:.L.str.4
	.loc	1 195 13 epilogue_begin is_stmt 0 @ ../../../../ThirdParty/ml-embedded-evaluation-kit/source/math/PlatformMath.cc:195:13
	pop.w	{r4, r5, r6, lr}
.Ltmp45:
	@DEBUG_VALUE: FftF32:fftInstance <- [DW_OP_LLVM_entry_value 1] $r2
	@DEBUG_VALUE: FftF32:input <- [DW_OP_LLVM_entry_value 1] $r0
	b	__2printf
.Ltmp46:
.LBB6_3:
	@DEBUG_VALUE: FftF32:fftInstance <- $r2
	@DEBUG_VALUE: FftF32:fftOutput <- $r1
	@DEBUG_VALUE: FftF32:input <- $r0
	.loc	1 192 13 is_stmt 1              @ ../../../../ThirdParty/ml-embedded-evaluation-kit/source/math/PlatformMath.cc:192:13
	movw	r0, :lower16:.L.str
.Ltmp47:
	@DEBUG_VALUE: FftF32:input <- [DW_OP_LLVM_entry_value 1] $r0
	movt	r0, :upper16:.L.str
	bl	__2printf
.Ltmp48:
	@DEBUG_VALUE: FftF32:fftInstance <- [DW_OP_LLVM_entry_value 1] $r2
	@DEBUG_VALUE: FftF32:fftOutput <- [DW_OP_LLVM_entry_value 1] $r1
	adr	r0, .LCPI6_2
	.loc	1 192 13 epilogue_begin is_stmt 0 @ ../../../../ThirdParty/ml-embedded-evaluation-kit/source/math/PlatformMath.cc:192:13
	pop.w	{r4, r5, r6, lr}
.Ltmp49:
	b	puts
.Ltmp50:
.LBB6_4:
	@DEBUG_VALUE: FftF32:fftInstance <- $r2
	@DEBUG_VALUE: FftF32:fftOutput <- $r1
	@DEBUG_VALUE: FftF32:input <- $r0
	@DEBUG_VALUE: size:this <- $r1
	.loc	2 595 56 is_stmt 1              @ C:\Keil_v5\ARM\ARMCLANG\bin\..\include\libcxx\vector:595:56
	ldrd	r12, r6, [r1]
	.loc	2 595 48 is_stmt 0              @ C:\Keil_v5\ARM\ARMCLANG\bin\..\include\libcxx\vector:595:48
	sub.w	r6, r6, r12
.Ltmp51:
	@DEBUG_VALUE: size:this <- $r0
	.loc	1 198 20 is_stmt 1              @ ../../../../ThirdParty/ml-embedded-evaluation-kit/source/math/PlatformMath.cc:198:20
	cmp	r6, r3
	bhs	.LBB6_6
.Ltmp52:
@ %bb.5:
	@DEBUG_VALUE: FftF32:fftInstance <- $r2
	@DEBUG_VALUE: FftF32:fftOutput <- $r1
	@DEBUG_VALUE: FftF32:input <- $r0
	.loc	1 199 13                        @ ../../../../ThirdParty/ml-embedded-evaluation-kit/source/math/PlatformMath.cc:199:13
	movw	r0, :lower16:.L.str
.Ltmp53:
	@DEBUG_VALUE: FftF32:input <- [DW_OP_LLVM_entry_value 1] $r0
	movt	r0, :upper16:.L.str
	bl	__2printf
.Ltmp54:
	@DEBUG_VALUE: FftF32:fftInstance <- [DW_OP_LLVM_entry_value 1] $r2
	@DEBUG_VALUE: FftF32:fftOutput <- [DW_OP_LLVM_entry_value 1] $r1
	adr	r0, .LCPI6_1
	.loc	1 199 13 epilogue_begin is_stmt 0 @ ../../../../ThirdParty/ml-embedded-evaluation-kit/source/math/PlatformMath.cc:199:13
	pop.w	{r4, r5, r6, lr}
.Ltmp55:
	b	puts
.Ltmp56:
.LBB6_6:
	@DEBUG_VALUE: FftF32:fftInstance <- $r2
	@DEBUG_VALUE: FftF32:fftOutput <- $r1
	@DEBUG_VALUE: FftF32:input <- $r0
	.loc	1 203 29 is_stmt 1              @ ../../../../ThirdParty/ml-embedded-evaluation-kit/source/math/PlatformMath.cc:203:29
	ldr	r6, [r2, #92]
	.loc	1 203 9 is_stmt 0               @ ../../../../ThirdParty/ml-embedded-evaluation-kit/source/math/PlatformMath.cc:203:9
	cmp	r6, #1
	beq	.LBB6_10
.Ltmp57:
@ %bb.7:
	@DEBUG_VALUE: FftF32:fftInstance <- $r2
	@DEBUG_VALUE: FftF32:fftOutput <- $r1
	@DEBUG_VALUE: FftF32:input <- $r0
	cbnz	r6, .LBB6_12
.Ltmp58:
@ %bb.8:
	@DEBUG_VALUE: FftF32:fftInstance <- $r2
	@DEBUG_VALUE: FftF32:fftOutput <- $r1
	@DEBUG_VALUE: FftF32:input <- $r0
	.loc	1 207 29 is_stmt 1              @ ../../../../ThirdParty/ml-embedded-evaluation-kit/source/math/PlatformMath.cc:207:29
	ldrb.w	r3, [r2, #96]
.Ltmp59:
	.loc	1 207 17 is_stmt 0              @ ../../../../ThirdParty/ml-embedded-evaluation-kit/source/math/PlatformMath.cc:207:17
	cbz	r3, .LBB6_17
.Ltmp60:
@ %bb.9:
	@DEBUG_VALUE: FftF32:fftInstance <- $r2
	@DEBUG_VALUE: FftF32:fftOutput <- $r1
	@DEBUG_VALUE: FftF32:input <- $r0
	@DEBUG_VALUE: data:this <- undef
	@DEBUG_VALUE: data:this <- undef
	.loc	1 208 17 is_stmt 1              @ ../../../../ThirdParty/ml-embedded-evaluation-kit/source/math/PlatformMath.cc:208:17
	mov	r0, r2
.Ltmp61:
	@DEBUG_VALUE: FftF32:input <- [DW_OP_LLVM_entry_value 1] $r0
	mov	r1, lr
.Ltmp62:
	@DEBUG_VALUE: FftF32:fftOutput <- [DW_OP_LLVM_entry_value 1] $r1
	mov	r2, r12
.Ltmp63:
	@DEBUG_VALUE: FftF32:fftInstance <- [DW_OP_LLVM_entry_value 1] $r2
	movs	r3, #0
	.loc	1 208 17 epilogue_begin is_stmt 0 @ ../../../../ThirdParty/ml-embedded-evaluation-kit/source/math/PlatformMath.cc:208:17
	pop.w	{r4, r5, r6, lr}
.Ltmp64:
	b	arm_rfft_fast_f32
.Ltmp65:
.LBB6_10:
	@DEBUG_VALUE: FftF32:fftInstance <- $r2
	@DEBUG_VALUE: FftF32:fftOutput <- $r1
	@DEBUG_VALUE: FftF32:input <- $r0
	.loc	1 0 0                           @ ../../../../ThirdParty/ml-embedded-evaluation-kit/source/math/PlatformMath.cc:0:0
	asrs	r3, r3, #2
.Ltmp66:
	@DEBUG_VALUE: size:this <- $r0
	.loc	1 216 17 is_stmt 1              @ ../../../../ThirdParty/ml-embedded-evaluation-kit/source/math/PlatformMath.cc:216:17
	cmp.w	r3, r5, lsl #1
	bhs	.LBB6_13
.Ltmp67:
@ %bb.11:
	@DEBUG_VALUE: FftF32:fftInstance <- $r2
	@DEBUG_VALUE: FftF32:fftOutput <- $r1
	@DEBUG_VALUE: FftF32:input <- $r0
	.loc	1 217 17                        @ ../../../../ThirdParty/ml-embedded-evaluation-kit/source/math/PlatformMath.cc:217:17
	movw	r0, :lower16:.L.str
.Ltmp68:
	@DEBUG_VALUE: FftF32:input <- [DW_OP_LLVM_entry_value 1] $r0
	movt	r0, :upper16:.L.str
	bl	__2printf
.Ltmp69:
	@DEBUG_VALUE: FftF32:fftInstance <- [DW_OP_LLVM_entry_value 1] $r2
	@DEBUG_VALUE: FftF32:fftOutput <- [DW_OP_LLVM_entry_value 1] $r1
	adr	r0, .LCPI6_0
	.loc	1 217 17 epilogue_begin is_stmt 0 @ ../../../../ThirdParty/ml-embedded-evaluation-kit/source/math/PlatformMath.cc:217:17
	pop.w	{r4, r5, r6, lr}
.Ltmp70:
	b	__2printf
.Ltmp71:
.LBB6_12:
	@DEBUG_VALUE: FftF32:fftInstance <- $r2
	@DEBUG_VALUE: FftF32:fftOutput <- $r1
	@DEBUG_VALUE: FftF32:input <- $r0
	.loc	1 231 13 is_stmt 1              @ ../../../../ThirdParty/ml-embedded-evaluation-kit/source/math/PlatformMath.cc:231:13
	movw	r0, :lower16:.L.str
.Ltmp72:
	@DEBUG_VALUE: FftF32:input <- [DW_OP_LLVM_entry_value 1] $r0
	movt	r0, :upper16:.L.str
	bl	__2printf
.Ltmp73:
	@DEBUG_VALUE: FftF32:fftInstance <- [DW_OP_LLVM_entry_value 1] $r2
	@DEBUG_VALUE: FftF32:fftOutput <- [DW_OP_LLVM_entry_value 1] $r1
	movw	r0, :lower16:.Lstr.12
	movt	r0, :upper16:.Lstr.12
	.loc	1 231 13 epilogue_begin is_stmt 0 @ ../../../../ThirdParty/ml-embedded-evaluation-kit/source/math/PlatformMath.cc:231:13
	pop.w	{r4, r5, r6, lr}
.Ltmp74:
	b	puts
.Ltmp75:
.LBB6_13:
	@DEBUG_VALUE: FftF32:fftInstance <- $r2
	@DEBUG_VALUE: FftF32:fftOutput <- $r1
	@DEBUG_VALUE: FftF32:input <- $r0
	.loc	1 221 29 is_stmt 1              @ ../../../../ThirdParty/ml-embedded-evaluation-kit/source/math/PlatformMath.cc:221:29
	ldrb.w	r5, [r2, #96]
.Ltmp76:
	.loc	1 221 17 is_stmt 0              @ ../../../../ThirdParty/ml-embedded-evaluation-kit/source/math/PlatformMath.cc:221:17
	cbz	r5, .LBB6_18
.Ltmp77:
@ %bb.14:
	@DEBUG_VALUE: FftF32:fftInstance <- $r2
	@DEBUG_VALUE: FftF32:fftOutput <- $r1
	@DEBUG_VALUE: FftF32:input <- $r0
	@DEBUG_VALUE: operator=:this <- $r1
	@DEBUG_VALUE: operator=:__x <- $r0
	.loc	2 1312 7 is_stmt 1              @ C:\Keil_v5\ARM\ARMCLANG\bin\..\include\libcxx\vector:1312:7
	cmp	r1, r0
	beq	.LBB6_16
.Ltmp78:
@ %bb.15:
	@DEBUG_VALUE: operator=:__x <- $r0
	@DEBUG_VALUE: operator=:this <- $r1
	@DEBUG_VALUE: FftF32:fftInstance <- $r2
	@DEBUG_VALUE: FftF32:fftOutput <- $r1
	@DEBUG_VALUE: FftF32:input <- $r0
	@DEBUG_VALUE: assign<float *, 0>:this <- $r1
	@DEBUG_VALUE: assign<float *, 0>:__first <- $lr
	@DEBUG_VALUE: assign<float *, 0>:__last <- $r4
	.loc	2 1343 3                        @ C:\Keil_v5\ARM\ARMCLANG\bin\..\include\libcxx\vector:1343:3
	mov	r0, r1
.Ltmp79:
	@DEBUG_VALUE: FftF32:input <- [DW_OP_LLVM_entry_value 1] $r0
	.loc	2 0 3 is_stmt 0                 @ C:\Keil_v5\ARM\ARMCLANG\bin\..\include\libcxx\vector:0:3
	mov	r6, r1
.Ltmp80:
	@DEBUG_VALUE: FftF32:fftOutput <- $r6
	@DEBUG_VALUE: assign<float *, 0>:this <- $r6
	.loc	2 1343 3                        @ C:\Keil_v5\ARM\ARMCLANG\bin\..\include\libcxx\vector:1343:3
	mov	r1, lr
.Ltmp81:
	.loc	2 0 3                           @ C:\Keil_v5\ARM\ARMCLANG\bin\..\include\libcxx\vector:0:3
	mov	r5, r2
.Ltmp82:
	@DEBUG_VALUE: FftF32:fftInstance <- $r5
	.loc	2 1343 3                        @ C:\Keil_v5\ARM\ARMCLANG\bin\..\include\libcxx\vector:1343:3
	mov	r2, r4
	bl	_ZNSt3__26vectorIfNS_9allocatorIfEEE18__assign_with_sizeB8nn190000IPfS5_EEvT_T0_i
.Ltmp83:
	.loc	2 630 36 is_stmt 1              @ C:\Keil_v5\ARM\ARMCLANG\bin\..\include\libcxx\vector:630:36
	ldr.w	r12, [r6]
	mov	r2, r5
.Ltmp84:
.LBB6_16:
	.loc	1 223 43                        @ ../../../../ThirdParty/ml-embedded-evaluation-kit/source/math/PlatformMath.cc:223:43
	add.w	r0, r2, #48
	@DEBUG_VALUE: data:this <- undef
	.loc	1 223 17 is_stmt 0              @ ../../../../ThirdParty/ml-embedded-evaluation-kit/source/math/PlatformMath.cc:223:17
	mov	r1, r12
	movs	r2, #0
	movs	r3, #1
	.loc	1 223 17 epilogue_begin         @ ../../../../ThirdParty/ml-embedded-evaluation-kit/source/math/PlatformMath.cc:223:17
	pop.w	{r4, r5, r6, lr}
.Ltmp85:
	b	arm_cfft_f32
.Ltmp86:
.LBB6_17:
	@DEBUG_VALUE: FftF32:fftInstance <- $r2
	@DEBUG_VALUE: FftF32:fftOutput <- $r1
	@DEBUG_VALUE: FftF32:input <- $r0
	.loc	1 212 13 epilogue_begin is_stmt 1 @ ../../../../ThirdParty/ml-embedded-evaluation-kit/source/math/PlatformMath.cc:212:13
	pop.w	{r4, r5, r6, lr}
.Ltmp87:
	b	_ZN3arm3app4mathL10FftRealF32ERNSt3__26vectorIfNS2_9allocatorIfEEEES7_
.Ltmp88:
.LBB6_18:
	@DEBUG_VALUE: FftF32:fftInstance <- $r2
	@DEBUG_VALUE: FftF32:fftOutput <- $r1
	@DEBUG_VALUE: FftF32:input <- $r0
	.loc	1 227 13 epilogue_begin         @ ../../../../ThirdParty/ml-embedded-evaluation-kit/source/math/PlatformMath.cc:227:13
	pop.w	{r4, r5, r6, lr}
.Ltmp89:
	b	_ZN3arm3app4mathL13FftComplexF32ERNSt3__26vectorIfNS2_9allocatorIfEEEES7_
.Ltmp90:
	.p2align	2
@ %bb.19:
	.loc	1 0 13 is_stmt 0                @ ../../../../ThirdParty/ml-embedded-evaluation-kit/source/math/PlatformMath.cc:0:13
.LCPI6_0:
.L.str.6:
	.asciz	"Complex FFT instance should have input size >= (FFT len x 2)\000\000\000"
.LCPI6_1:
.Lstr.13:
	.asciz	"Output vector len insufficient to hold FFTs"
.LCPI6_2:
.Lstr.11:
	.asciz	"FFT uninitialised\000\000"
.Lfunc_end6:
	.size	_ZN3arm3app4math9MathUtils6FftF32ERNSt3__26vectorIfNS3_9allocatorIfEEEES8_RNS1_11FftInstanceE, .Lfunc_end6-_ZN3arm3app4math9MathUtils6FftF32ERNSt3__26vectorIfNS3_9allocatorIfEEEES8_RNS1_11FftInstanceE
	.cfi_endproc
	.cantunwind
	.fnend
                                        @ -- End function
	.section	.text._ZN3arm3app4mathL10FftRealF32ERNSt3__26vectorIfNS2_9allocatorIfEEEES7_,"ax",%progbits
	.p2align	2                               @ -- Begin function _ZN3arm3app4mathL10FftRealF32ERNSt3__26vectorIfNS2_9allocatorIfEEEES7_
	.type	_ZN3arm3app4mathL10FftRealF32ERNSt3__26vectorIfNS2_9allocatorIfEEEES7_,%function
	.code	16                              @ @_ZN3arm3app4mathL10FftRealF32ERNSt3__26vectorIfNS2_9allocatorIfEEEES7_
	.thumb_func
_ZN3arm3app4mathL10FftRealF32ERNSt3__26vectorIfNS2_9allocatorIfEEEES7_:
.Lfunc_begin7:
	.loc	1 137 0 is_stmt 1               @ ../../../../ThirdParty/ml-embedded-evaluation-kit/source/math/PlatformMath.cc:137:0
	.fnstart
	.cfi_startproc
@ %bb.0:
	@DEBUG_VALUE: FftRealF32:input <- $r0
	@DEBUG_VALUE: FftRealF32:fftOutput <- $r1
	@DEBUG_VALUE: size:this <- $r0
	.save	{r4, r5, r6, r7, r8, r9, r10, r11, lr}
	push.w	{r4, r5, r6, r7, r8, r9, r10, r11, lr}
	.cfi_def_cfa_offset 36
	.cfi_offset lr, -4
	.cfi_offset r11, -8
	.cfi_offset r10, -12
	.cfi_offset r9, -16
	.cfi_offset r8, -20
	.cfi_offset r7, -24
	.cfi_offset r6, -28
	.cfi_offset r5, -32
	.cfi_offset r4, -36
	.pad	#4
	sub	sp, #4
	.cfi_def_cfa_offset 40
	.vsave	{d8, d9, d10, d11, d12, d13, d14, d15}
	vpush	{d8, d9, d10, d11, d12, d13, d14, d15}
	.cfi_def_cfa_offset 104
	.cfi_offset d15, -48
	.cfi_offset d14, -56
	.cfi_offset d13, -64
	.cfi_offset d12, -72
	.cfi_offset d11, -80
	.cfi_offset d10, -88
	.cfi_offset d9, -96
	.cfi_offset d8, -104
	.pad	#8
	sub	sp, #8
	.cfi_def_cfa_offset 112
	mov	r4, r0
.Ltmp91:
	@DEBUG_VALUE: size:this <- $r4
	@DEBUG_VALUE: FftRealF32:input <- $r4
	.loc	2 595 56 prologue_end           @ C:\Keil_v5\ARM\ARMCLANG\bin\..\include\libcxx\vector:595:56
	ldrd	r0, r2, [r0]
	mov	r10, r1
.Ltmp92:
	@DEBUG_VALUE: FftRealF32:fftOutput <- $r10
	.loc	2 595 48 is_stmt 0              @ C:\Keil_v5\ARM\ARMCLANG\bin\..\include\libcxx\vector:595:48
	subs	r0, r2, r0
	asr.w	r9, r0, #2
.Ltmp93:
	@DEBUG_VALUE: size:this <- $r4
	@DEBUG_VALUE: FftRealF32:inputLength <- $r9
	.loc	2 1411 16 is_stmt 1             @ C:\Keil_v5\ARM\ARMCLANG\bin\..\include\libcxx\vector:1411:16
	ldr	r0, [r1]
.Ltmp94:
	.loc	1 139 48                        @ ../../../../ThirdParty/ml-embedded-evaluation-kit/source/math/PlatformMath.cc:139:48
	lsr.w	r1, r9, #1
	@DEBUG_VALUE: operator[]:__n <- 0
	@DEBUG_VALUE: operator[]:this <- $r10
.Ltmp95:
	@DEBUG_VALUE: FftRealF32:halfLength <- $r1
	.loc	1 0 48 is_stmt 0                @ ../../../../ThirdParty/ml-embedded-evaluation-kit/source/math/PlatformMath.cc:0:48
	str	r1, [sp, #4]                    @ 4-byte Spill
.Ltmp96:
	@DEBUG_VALUE: FftRealF32:halfLength <- [DW_OP_plus_uconst 4] [$sp+0]
	@DEBUG_VALUE: FftRealF32:halfLength <- [DW_OP_plus_uconst 4] [$sp+0]
	mov.w	r1, #0
.Ltmp97:
	@DEBUG_VALUE: t <- 0
	@DEBUG_VALUE: operator[]:__n <- 1
	@DEBUG_VALUE: operator[]:this <- $r10
	.loc	1 141 22 is_stmt 1              @ ../../../../ThirdParty/ml-embedded-evaluation-kit/source/math/PlatformMath.cc:141:22
	strd	r1, r1, [r0]
.Ltmp98:
	.loc	1 143 9                         @ ../../../../ThirdParty/ml-embedded-evaluation-kit/source/math/PlatformMath.cc:143:9
	beq	.LBB7_3
.Ltmp99:
@ %bb.1:
	@DEBUG_VALUE: t <- 0
	@DEBUG_VALUE: FftRealF32:halfLength <- [DW_OP_plus_uconst 4] [$sp+0]
	@DEBUG_VALUE: FftRealF32:inputLength <- $r9
	@DEBUG_VALUE: FftRealF32:fftOutput <- $r10
	@DEBUG_VALUE: FftRealF32:input <- $r4
	.loc	1 0 9 is_stmt 0                 @ ../../../../ThirdParty/ml-embedded-evaluation-kit/source/math/PlatformMath.cc:0:9
	ldr	r1, [sp, #4]                    @ 4-byte Reload
	.loc	1 143 9                         @ ../../../../ThirdParty/ml-embedded-evaluation-kit/source/math/PlatformMath.cc:143:9
	mov	r6, r9
	vldr	s2, .LCPI7_0
	vmov	s0, r1
	movs	r7, #0
	movs	r5, #0
	vcvt.f32.u32	s0, s0
	cmp.w	r9, #1
	it	ls
	movls	r6, #1
	vmul.f32	s16, s0, s2
	vmov	s0, r9
	vcvt.f32.u32	s18, s0
.Ltmp100:
	.p2align	2
.LBB7_2:                                @ =>This Inner Loop Header: Depth=1
	@DEBUG_VALUE: FftRealF32:halfLength <- [DW_OP_plus_uconst 4] [$sp+0]
	@DEBUG_VALUE: FftRealF32:inputLength <- $r9
	@DEBUG_VALUE: FftRealF32:fftOutput <- $r10
	@DEBUG_VALUE: FftRealF32:input <- $r4
	@DEBUG_VALUE: t <- $r5
	.loc	1 146 62 is_stmt 1              @ ../../../../ThirdParty/ml-embedded-evaluation-kit/source/math/PlatformMath.cc:146:62
	vmov	s0, r5
.Ltmp101:
	.loc	2 1411 16                       @ C:\Keil_v5\ARM\ARMCLANG\bin\..\include\libcxx\vector:1411:16
	ldr	r1, [r4]
.Ltmp102:
	.loc	1 146 62                        @ ../../../../ThirdParty/ml-embedded-evaluation-kit/source/math/PlatformMath.cc:146:62
	vcvt.f32.u32	s0, s0
	.loc	1 144 29                        @ ../../../../ThirdParty/ml-embedded-evaluation-kit/source/math/PlatformMath.cc:144:29
	add	r1, r7
	.loc	1 146 60                        @ ../../../../ThirdParty/ml-embedded-evaluation-kit/source/math/PlatformMath.cc:146:60
	vmul.f32	s0, s16, s0
	.loc	1 144 29                        @ ../../../../ThirdParty/ml-embedded-evaluation-kit/source/math/PlatformMath.cc:144:29
	vldr	s2, [r1]
.Ltmp103:
	@DEBUG_VALUE: operator[]:__n <- 0
	@DEBUG_VALUE: operator[]:this <- $r10
	.loc	1 146 64                        @ ../../../../ThirdParty/ml-embedded-evaluation-kit/source/math/PlatformMath.cc:146:64
	vdiv.f32	s0, s0, s18
	@DEBUG_VALUE: operator[]:__n <- $r5
	@DEBUG_VALUE: operator[]:this <- $r4
	.loc	1 144 26                        @ ../../../../ThirdParty/ml-embedded-evaluation-kit/source/math/PlatformMath.cc:144:26
	vldr	s4, [r0]
	vadd.f32	s2, s2, s4
	vstr	s2, [r0]
.Ltmp104:
	@DEBUG_VALUE: operator[]:__n <- $r5
	@DEBUG_VALUE: operator[]:this <- $r4
	.loc	1 145 29                        @ ../../../../ThirdParty/ml-embedded-evaluation-kit/source/math/PlatformMath.cc:145:29
	vldr	s20, [r1]
.Ltmp105:
	@DEBUG_VALUE: CosineF32:radians <- $s0
	.loc	1 28 16                         @ ../../../../ThirdParty/ml-embedded-evaluation-kit/source/math/PlatformMath.cc:28:16
	bl	arm_cos_f32
.Ltmp106:
	.loc	2 1411 16                       @ C:\Keil_v5\ARM\ARMCLANG\bin\..\include\libcxx\vector:1411:16
	ldr.w	r0, [r10]
.Ltmp107:
	.loc	1 143 30                        @ ../../../../ThirdParty/ml-embedded-evaluation-kit/source/math/PlatformMath.cc:143:30
	subs	r6, #1
	.loc	1 143 46 is_stmt 0              @ ../../../../ThirdParty/ml-embedded-evaluation-kit/source/math/PlatformMath.cc:143:46
	add.w	r5, r5, #1
.Ltmp108:
	@DEBUG_VALUE: t <- $r5
	.loc	1 143 30                        @ ../../../../ThirdParty/ml-embedded-evaluation-kit/source/math/PlatformMath.cc:143:30
	add.w	r7, r7, #4
.Ltmp109:
	.loc	1 145 26 is_stmt 1              @ ../../../../ThirdParty/ml-embedded-evaluation-kit/source/math/PlatformMath.cc:145:26
	vldr	s2, [r0, #4]
	@DEBUG_VALUE: operator[]:__n <- 1
	@DEBUG_VALUE: operator[]:this <- $r10
	vfma.f32	s2, s20, s0
	vstr	s2, [r0, #4]
.Ltmp110:
	.loc	1 143 9                         @ ../../../../ThirdParty/ml-embedded-evaluation-kit/source/math/PlatformMath.cc:143:9
	bne	.LBB7_2
.Ltmp111:
.LBB7_3:
	@DEBUG_VALUE: FftRealF32:halfLength <- [DW_OP_plus_uconst 4] [$sp+0]
	@DEBUG_VALUE: FftRealF32:inputLength <- $r9
	@DEBUG_VALUE: FftRealF32:fftOutput <- $r10
	@DEBUG_VALUE: FftRealF32:input <- $r4
	@DEBUG_VALUE: k <- 1
	@DEBUG_VALUE: j <- 2
	.loc	1 149 9                         @ ../../../../ThirdParty/ml-embedded-evaluation-kit/source/math/PlatformMath.cc:149:9
	cmp.w	r9, #4
	blo	.LBB7_8
.Ltmp112:
@ %bb.4:
	@DEBUG_VALUE: j <- 2
	@DEBUG_VALUE: k <- 1
	@DEBUG_VALUE: FftRealF32:halfLength <- [DW_OP_plus_uconst 4] [$sp+0]
	@DEBUG_VALUE: FftRealF32:inputLength <- $r9
	@DEBUG_VALUE: FftRealF32:fftOutput <- $r10
	@DEBUG_VALUE: FftRealF32:input <- $r4
	.loc	1 0 9 is_stmt 0                 @ ../../../../ThirdParty/ml-embedded-evaluation-kit/source/math/PlatformMath.cc:0:9
	vmov	s0, r9
	vldr	s20, .LCPI7_0
	vcvt.f32.u32	s18, s0
	vldr	s22, .LCPI7_1
	mov.w	r11, #2
	movs	r6, #1
.Ltmp113:
	.p2align	2
.LBB7_5:                                @ =>This Loop Header: Depth=1
                                        @     Child Loop BB7_6 Depth 2
	@DEBUG_VALUE: FftRealF32:halfLength <- [DW_OP_plus_uconst 4] [$sp+0]
	@DEBUG_VALUE: FftRealF32:inputLength <- $r9
	@DEBUG_VALUE: FftRealF32:fftOutput <- $r10
	@DEBUG_VALUE: FftRealF32:input <- $r4
	@DEBUG_VALUE: k <- $r6
	@DEBUG_VALUE: j <- $r11
	@DEBUG_VALUE: sumReal <- 0.000000e+00
	@DEBUG_VALUE: sumImag <- 0.000000e+00
	.loc	1 153 62 is_stmt 1              @ ../../../../ThirdParty/ml-embedded-evaluation-kit/source/math/PlatformMath.cc:153:62
	vmov	s0, r6
	mov	r5, r9
	movs	r7, #0
	@DEBUG_VALUE: t <- 0
	vcvt.f32.u32	s0, s0
	mov.w	r8, #0
	.loc	1 153 60 is_stmt 0              @ ../../../../ThirdParty/ml-embedded-evaluation-kit/source/math/PlatformMath.cc:153:60
	vmul.f32	s0, s0, s20
	vmov.f32	s26, s22
	.loc	1 153 64                        @ ../../../../ThirdParty/ml-embedded-evaluation-kit/source/math/PlatformMath.cc:153:64
	vdiv.f32	s24, s0, s18
.Ltmp114:
	@DEBUG_VALUE: theta <- $s24
	.loc	1 0 64                          @ ../../../../ThirdParty/ml-embedded-evaluation-kit/source/math/PlatformMath.cc:0:64
	vmov.f32	s28, s22
.Ltmp115:
	.p2align	2
.LBB7_6:                                @   Parent Loop BB7_5 Depth=1
                                        @ =>  This Inner Loop Header: Depth=2
	@DEBUG_VALUE: theta <- $s24
	@DEBUG_VALUE: j <- $r11
	@DEBUG_VALUE: k <- $r6
	@DEBUG_VALUE: FftRealF32:halfLength <- [DW_OP_plus_uconst 4] [$sp+0]
	@DEBUG_VALUE: FftRealF32:inputLength <- $r9
	@DEBUG_VALUE: FftRealF32:fftOutput <- $r10
	@DEBUG_VALUE: FftRealF32:input <- $r4
	@DEBUG_VALUE: sumReal <- $s28
	@DEBUG_VALUE: sumImag <- $s26
	@DEBUG_VALUE: t <- $r8
	.loc	1 156 55 is_stmt 1              @ ../../../../ThirdParty/ml-embedded-evaluation-kit/source/math/PlatformMath.cc:156:55
	vmov	s0, r8
.Ltmp116:
	.loc	2 1411 16                       @ C:\Keil_v5\ARM\ARMCLANG\bin\..\include\libcxx\vector:1411:16
	ldr	r0, [r4]
.Ltmp117:
	.loc	1 156 55                        @ ../../../../ThirdParty/ml-embedded-evaluation-kit/source/math/PlatformMath.cc:156:55
	vcvt.f32.u32	s0, s0
	.loc	1 157 28                        @ ../../../../ThirdParty/ml-embedded-evaluation-kit/source/math/PlatformMath.cc:157:28
	add	r0, r7
	.loc	1 156 57                        @ ../../../../ThirdParty/ml-embedded-evaluation-kit/source/math/PlatformMath.cc:156:57
	vmul.f32	s16, s24, s0
	@DEBUG_VALUE: operator[]:__n <- $r8
	@DEBUG_VALUE: operator[]:this <- $r4
.Ltmp118:
	@DEBUG_VALUE: angle <- $s16
	.loc	1 157 28                        @ ../../../../ThirdParty/ml-embedded-evaluation-kit/source/math/PlatformMath.cc:157:28
	vldr	s30, [r0]
.Ltmp119:
	@DEBUG_VALUE: CosineF32:radians <- $s16
	.loc	1 28 16                         @ ../../../../ThirdParty/ml-embedded-evaluation-kit/source/math/PlatformMath.cc:28:16
	vmov.f32	s0, s16
	bl	arm_cos_f32
.Ltmp120:
	.loc	2 1411 16                       @ C:\Keil_v5\ARM\ARMCLANG\bin\..\include\libcxx\vector:1411:16
	ldr	r0, [r4]
.Ltmp121:
	.loc	1 157 25                        @ ../../../../ThirdParty/ml-embedded-evaluation-kit/source/math/PlatformMath.cc:157:25
	vfma.f32	s28, s30, s0
.Ltmp122:
	@DEBUG_VALUE: operator[]:__n <- $r8
	@DEBUG_VALUE: operator[]:this <- $r4
	@DEBUG_VALUE: sumReal <- $s28
	.loc	1 158 29                        @ ../../../../ThirdParty/ml-embedded-evaluation-kit/source/math/PlatformMath.cc:158:29
	add	r0, r7
	vldr	s30, [r0]
.Ltmp123:
	@DEBUG_VALUE: SineF32:radians <- $s16
	.loc	1 37 16                         @ ../../../../ThirdParty/ml-embedded-evaluation-kit/source/math/PlatformMath.cc:37:16
	vmov.f32	s0, s16
	bl	arm_sin_f32
.Ltmp124:
	.loc	1 158 25                        @ ../../../../ThirdParty/ml-embedded-evaluation-kit/source/math/PlatformMath.cc:158:25
	vfms.f32	s26, s30, s0
.Ltmp125:
	@DEBUG_VALUE: sumImag <- $s26
	.loc	1 155 34                        @ ../../../../ThirdParty/ml-embedded-evaluation-kit/source/math/PlatformMath.cc:155:34
	subs	r5, #1
	.loc	1 155 50 is_stmt 0              @ ../../../../ThirdParty/ml-embedded-evaluation-kit/source/math/PlatformMath.cc:155:50
	add.w	r8, r8, #1
.Ltmp126:
	@DEBUG_VALUE: t <- $r8
	.loc	1 155 34                        @ ../../../../ThirdParty/ml-embedded-evaluation-kit/source/math/PlatformMath.cc:155:34
	add.w	r7, r7, #4
.Ltmp127:
	.loc	1 155 13                        @ ../../../../ThirdParty/ml-embedded-evaluation-kit/source/math/PlatformMath.cc:155:13
	bne	.LBB7_6
.Ltmp128:
@ %bb.7:                                @   in Loop: Header=BB7_5 Depth=1
	@DEBUG_VALUE: sumImag <- $s26
	@DEBUG_VALUE: sumReal <- $s28
	@DEBUG_VALUE: theta <- $s24
	@DEBUG_VALUE: j <- $r11
	@DEBUG_VALUE: k <- $r6
	@DEBUG_VALUE: FftRealF32:halfLength <- [DW_OP_plus_uconst 4] [$sp+0]
	@DEBUG_VALUE: FftRealF32:inputLength <- $r9
	@DEBUG_VALUE: FftRealF32:fftOutput <- $r10
	@DEBUG_VALUE: FftRealF32:input <- $r4
	.loc	2 1411 16 is_stmt 1             @ C:\Keil_v5\ARM\ARMCLANG\bin\..\include\libcxx\vector:1411:16
	ldr.w	r0, [r10]
.Ltmp129:
	@DEBUG_VALUE: operator[]:__n <- $r11
	@DEBUG_VALUE: operator[]:this <- $r10
	.loc	1 149 51                        @ ../../../../ThirdParty/ml-embedded-evaluation-kit/source/math/PlatformMath.cc:149:51
	adds	r6, #1
.Ltmp130:
	@DEBUG_VALUE: k <- $r6
	.loc	2 1411 10                       @ C:\Keil_v5\ARM\ARMCLANG\bin\..\include\libcxx\vector:1411:10
	add.w	r0, r0, r11, lsl #2
.Ltmp131:
	@DEBUG_VALUE: operator[]:__n <- undef
	@DEBUG_VALUE: operator[]:this <- $r10
	.loc	1 149 58                        @ ../../../../ThirdParty/ml-embedded-evaluation-kit/source/math/PlatformMath.cc:149:58
	add.w	r11, r11, #2
.Ltmp132:
	@DEBUG_VALUE: j <- $r11
	.loc	1 162 26                        @ ../../../../ThirdParty/ml-embedded-evaluation-kit/source/math/PlatformMath.cc:162:26
	vstr	s28, [r0]
	.loc	1 163 30                        @ ../../../../ThirdParty/ml-embedded-evaluation-kit/source/math/PlatformMath.cc:163:30
	vstr	s26, [r0, #4]
.Ltmp133:
	.loc	1 149 9                         @ ../../../../ThirdParty/ml-embedded-evaluation-kit/source/math/PlatformMath.cc:149:9
	ldr	r0, [sp, #4]                    @ 4-byte Reload
	cmp	r6, r0
	bne	.LBB7_5
.Ltmp134:
.LBB7_8:
	@DEBUG_VALUE: FftRealF32:halfLength <- [DW_OP_plus_uconst 4] [$sp+0]
	@DEBUG_VALUE: FftRealF32:inputLength <- $r9
	@DEBUG_VALUE: FftRealF32:fftOutput <- $r10
	@DEBUG_VALUE: FftRealF32:input <- $r4
	.loc	1 165 5 epilogue_begin          @ ../../../../ThirdParty/ml-embedded-evaluation-kit/source/math/PlatformMath.cc:165:5
	add	sp, #8
	vpop	{d8, d9, d10, d11, d12, d13, d14, d15}
	add	sp, #4
	pop.w	{r4, r5, r6, r7, r8, r9, r10, r11, pc}
.Ltmp135:
	.p2align	2
@ %bb.9:
	.loc	1 0 5 is_stmt 0                 @ ../../../../ThirdParty/ml-embedded-evaluation-kit/source/math/PlatformMath.cc:0:5
.LCPI7_0:
	.long	0x40c90fdb                      @ float 6.28318548
.LCPI7_1:
	.long	0x00000000                      @ float 0
.Lfunc_end7:
	.size	_ZN3arm3app4mathL10FftRealF32ERNSt3__26vectorIfNS2_9allocatorIfEEEES7_, .Lfunc_end7-_ZN3arm3app4mathL10FftRealF32ERNSt3__26vectorIfNS2_9allocatorIfEEEES7_
	.cfi_endproc
	.cantunwind
	.fnend
                                        @ -- End function
	.section	.text._ZN3arm3app4mathL13FftComplexF32ERNSt3__26vectorIfNS2_9allocatorIfEEEES7_,"ax",%progbits
	.p2align	2                               @ -- Begin function _ZN3arm3app4mathL13FftComplexF32ERNSt3__26vectorIfNS2_9allocatorIfEEEES7_
	.type	_ZN3arm3app4mathL13FftComplexF32ERNSt3__26vectorIfNS2_9allocatorIfEEEES7_,%function
	.code	16                              @ @_ZN3arm3app4mathL13FftComplexF32ERNSt3__26vectorIfNS2_9allocatorIfEEEES7_
	.thumb_func
_ZN3arm3app4mathL13FftComplexF32ERNSt3__26vectorIfNS2_9allocatorIfEEEES7_:
.Lfunc_begin8:
	.loc	1 169 0 is_stmt 1               @ ../../../../ThirdParty/ml-embedded-evaluation-kit/source/math/PlatformMath.cc:169:0
	.fnstart
	.cfi_startproc
@ %bb.0:
	@DEBUG_VALUE: FftComplexF32:input <- $r0
	@DEBUG_VALUE: FftComplexF32:fftOutput <- $r1
	@DEBUG_VALUE: size:this <- $r0
	.save	{r4, r5, r6, r7, r8, r9, r10, lr}
	push.w	{r4, r5, r6, r7, r8, r9, r10, lr}
	.cfi_def_cfa_offset 32
	.cfi_offset lr, -4
	.cfi_offset r10, -8
	.cfi_offset r9, -12
	.cfi_offset r8, -16
	.cfi_offset r7, -20
	.cfi_offset r6, -24
	.cfi_offset r5, -28
	.cfi_offset r4, -32
	.vsave	{d8, d9, d10, d11, d12, d13, d14, d15}
	vpush	{d8, d9, d10, d11, d12, d13, d14, d15}
	.cfi_def_cfa_offset 96
	.cfi_offset d15, -40
	.cfi_offset d14, -48
	.cfi_offset d13, -56
	.cfi_offset d12, -64
	.cfi_offset d11, -72
	.cfi_offset d10, -80
	.cfi_offset d9, -88
	.cfi_offset d8, -96
	mov	r4, r0
.Ltmp136:
	@DEBUG_VALUE: size:this <- $r4
	@DEBUG_VALUE: FftComplexF32:input <- $r4
	.loc	2 595 56 prologue_end           @ C:\Keil_v5\ARM\ARMCLANG\bin\..\include\libcxx\vector:595:56
	ldrd	r0, r2, [r0]
	.loc	2 595 48 is_stmt 0              @ C:\Keil_v5\ARM\ARMCLANG\bin\..\include\libcxx\vector:595:48
	subs	r0, r2, r0
	asrs	r0, r0, #2
.Ltmp137:
	.loc	1 170 44 is_stmt 1              @ ../../../../ThirdParty/ml-embedded-evaluation-kit/source/math/PlatformMath.cc:170:44
	lsrs.w	r9, r0, #1
.Ltmp138:
	@DEBUG_VALUE: k <- 0
	@DEBUG_VALUE: FftComplexF32:fftLen <- $r9
	@DEBUG_VALUE: FftComplexF32:fftOutput <- $r1
	.loc	1 171 9                         @ ../../../../ThirdParty/ml-embedded-evaluation-kit/source/math/PlatformMath.cc:171:9
	beq	.LBB8_5
.Ltmp139:
@ %bb.1:
	@DEBUG_VALUE: FftComplexF32:fftLen <- $r9
	@DEBUG_VALUE: k <- 0
	@DEBUG_VALUE: FftComplexF32:input <- $r4
	@DEBUG_VALUE: size:this <- $r4
	@DEBUG_VALUE: FftComplexF32:fftOutput <- $r1
	.loc	1 0 9 is_stmt 0                 @ ../../../../ThirdParty/ml-embedded-evaluation-kit/source/math/PlatformMath.cc:0:9
	vmov	s0, r9
	vldr	s22, .LCPI8_0
	vcvt.f32.u32	s20, s0
	vldr	s24, .LCPI8_1
	mov	r8, r1
.Ltmp140:
	@DEBUG_VALUE: FftComplexF32:fftOutput <- $r8
	@DEBUG_VALUE: FftComplexF32:fftOutput <- $r8
	mov.w	r10, #0
.Ltmp141:
	.p2align	2
.LBB8_2:                                @ =>This Loop Header: Depth=1
                                        @     Child Loop BB8_3 Depth 2
	@DEBUG_VALUE: FftComplexF32:fftOutput <- $r8
	@DEBUG_VALUE: FftComplexF32:fftLen <- $r9
	@DEBUG_VALUE: FftComplexF32:input <- $r4
	@DEBUG_VALUE: k <- $r10
	@DEBUG_VALUE: sumReal <- 0.000000e+00
	@DEBUG_VALUE: sumImag <- 0.000000e+00
	.loc	1 174 62 is_stmt 1              @ ../../../../ThirdParty/ml-embedded-evaluation-kit/source/math/PlatformMath.cc:174:62
	vmov	s0, r10
	mov	r6, r9
	movs	r5, #0
	@DEBUG_VALUE: t <- 0
	vcvt.f32.u32	s0, s0
	vmov.f32	s30, s24
	.loc	1 174 60 is_stmt 0              @ ../../../../ThirdParty/ml-embedded-evaluation-kit/source/math/PlatformMath.cc:174:60
	vmul.f32	s0, s0, s22
	movs	r7, #0
	.loc	1 174 64                        @ ../../../../ThirdParty/ml-embedded-evaluation-kit/source/math/PlatformMath.cc:174:64
	vdiv.f32	s28, s0, s20
.Ltmp142:
	@DEBUG_VALUE: theta <- $s28
	.loc	1 0 64                          @ ../../../../ThirdParty/ml-embedded-evaluation-kit/source/math/PlatformMath.cc:0:64
	vmov.f32	s26, s24
.Ltmp143:
	.p2align	2
.LBB8_3:                                @   Parent Loop BB8_2 Depth=1
                                        @ =>  This Inner Loop Header: Depth=2
	@DEBUG_VALUE: theta <- $s28
	@DEBUG_VALUE: k <- $r10
	@DEBUG_VALUE: FftComplexF32:fftOutput <- $r8
	@DEBUG_VALUE: FftComplexF32:fftLen <- $r9
	@DEBUG_VALUE: FftComplexF32:input <- $r4
	@DEBUG_VALUE: sumReal <- $s30
	@DEBUG_VALUE: sumImag <- $s26
	@DEBUG_VALUE: t <- $r7
	.loc	1 176 44 is_stmt 1              @ ../../../../ThirdParty/ml-embedded-evaluation-kit/source/math/PlatformMath.cc:176:44
	vmov	s0, r7
	vcvt.f32.u32	s0, s0
	.loc	1 176 42 is_stmt 0              @ ../../../../ThirdParty/ml-embedded-evaluation-kit/source/math/PlatformMath.cc:176:42
	vmul.f32	s16, s28, s0
.Ltmp144:
	@DEBUG_VALUE: CosineF32:radians <- $s16
	@DEBUG_VALUE: angle <- $s16
	.loc	1 28 16 is_stmt 1               @ ../../../../ThirdParty/ml-embedded-evaluation-kit/source/math/PlatformMath.cc:28:16
	vmov.f32	s0, s16
	bl	arm_cos_f32
.Ltmp145:
	vmov.f32	s18, s0
.Ltmp146:
	@DEBUG_VALUE: SineF32:radians <- $s16
	@DEBUG_VALUE: cosine <- $s18
	.loc	1 37 16                         @ ../../../../ThirdParty/ml-embedded-evaluation-kit/source/math/PlatformMath.cc:37:16
	vmov.f32	s0, s16
	bl	arm_sin_f32
.Ltmp147:
	.loc	2 1411 16                       @ C:\Keil_v5\ARM\ARMCLANG\bin\..\include\libcxx\vector:1411:16
	ldr	r0, [r4]
.Ltmp148:
	@DEBUG_VALUE: operator[]:__n <- [DW_OP_constu 1, DW_OP_shl, DW_OP_stack_value] $r7
	@DEBUG_VALUE: operator[]:this <- $r4
	@DEBUG_VALUE: sine <- $s0
	.loc	1 175 34                        @ ../../../../ThirdParty/ml-embedded-evaluation-kit/source/math/PlatformMath.cc:175:34
	subs	r6, #1
	.loc	1 175 45 is_stmt 0              @ ../../../../ThirdParty/ml-embedded-evaluation-kit/source/math/PlatformMath.cc:175:45
	add.w	r7, r7, #1
.Ltmp149:
	@DEBUG_VALUE: t <- $r7
	.loc	1 179 28 is_stmt 1              @ ../../../../ThirdParty/ml-embedded-evaluation-kit/source/math/PlatformMath.cc:179:28
	add	r0, r5
.Ltmp150:
	@DEBUG_VALUE: operator[]:__n <- [DW_OP_constu 1, DW_OP_shl, DW_OP_constu 1, DW_OP_or, DW_OP_stack_value] $r7
	@DEBUG_VALUE: operator[]:this <- $r4
	.loc	1 175 34                        @ ../../../../ThirdParty/ml-embedded-evaluation-kit/source/math/PlatformMath.cc:175:34
	add.w	r5, r5, #8
.Ltmp151:
	.loc	1 179 50                        @ ../../../../ThirdParty/ml-embedded-evaluation-kit/source/math/PlatformMath.cc:179:50
	vldr	s2, [r0, #4]
	.loc	1 179 28 is_stmt 0              @ ../../../../ThirdParty/ml-embedded-evaluation-kit/source/math/PlatformMath.cc:179:28
	vldr	s4, [r0]
	.loc	1 179 65                        @ ../../../../ThirdParty/ml-embedded-evaluation-kit/source/math/PlatformMath.cc:179:65
	vmul.f32	s6, s0, s2
	.loc	1 180 64 is_stmt 1              @ ../../../../ThirdParty/ml-embedded-evaluation-kit/source/math/PlatformMath.cc:180:64
	vmul.f32	s2, s18, s2
	.loc	1 179 48                        @ ../../../../ThirdParty/ml-embedded-evaluation-kit/source/math/PlatformMath.cc:179:48
	vfma.f32	s6, s4, s18
	.loc	1 180 47                        @ ../../../../ThirdParty/ml-embedded-evaluation-kit/source/math/PlatformMath.cc:180:47
	vfms.f32	s2, s4, s0
	.loc	1 179 25                        @ ../../../../ThirdParty/ml-embedded-evaluation-kit/source/math/PlatformMath.cc:179:25
	vadd.f32	s30, s30, s6
.Ltmp152:
	@DEBUG_VALUE: operator[]:__n <- [DW_OP_constu 1, DW_OP_shl, DW_OP_constu 1, DW_OP_or, DW_OP_stack_value] $r7
	@DEBUG_VALUE: operator[]:this <- $r4
	@DEBUG_VALUE: operator[]:__n <- [DW_OP_constu 1, DW_OP_shl, DW_OP_stack_value] $r7
	@DEBUG_VALUE: operator[]:this <- $r4
	@DEBUG_VALUE: sumReal <- $s30
	.loc	1 180 25                        @ ../../../../ThirdParty/ml-embedded-evaluation-kit/source/math/PlatformMath.cc:180:25
	vadd.f32	s26, s26, s2
.Ltmp153:
	@DEBUG_VALUE: sumImag <- $s26
	.loc	1 175 13                        @ ../../../../ThirdParty/ml-embedded-evaluation-kit/source/math/PlatformMath.cc:175:13
	bne	.LBB8_3
.Ltmp154:
@ %bb.4:                                @   in Loop: Header=BB8_2 Depth=1
	@DEBUG_VALUE: sumImag <- $s26
	@DEBUG_VALUE: sumReal <- $s30
	@DEBUG_VALUE: theta <- $s28
	@DEBUG_VALUE: k <- $r10
	@DEBUG_VALUE: FftComplexF32:fftOutput <- $r8
	@DEBUG_VALUE: FftComplexF32:fftLen <- $r9
	@DEBUG_VALUE: FftComplexF32:input <- $r4
	@DEBUG_VALUE: operator[]:this <- $r8
	@DEBUG_VALUE: operator[]:__n <- undef
	.loc	2 1411 16                       @ C:\Keil_v5\ARM\ARMCLANG\bin\..\include\libcxx\vector:1411:16
	ldr.w	r0, [r8]
	.loc	2 1411 10 is_stmt 0             @ C:\Keil_v5\ARM\ARMCLANG\bin\..\include\libcxx\vector:1411:10
	add.w	r0, r0, r10, lsl #3
.Ltmp155:
	@DEBUG_VALUE: operator[]:__n <- undef
	@DEBUG_VALUE: operator[]:this <- $r8
	.loc	1 171 41 is_stmt 1              @ ../../../../ThirdParty/ml-embedded-evaluation-kit/source/math/PlatformMath.cc:171:41
	add.w	r10, r10, #1
.Ltmp156:
	@DEBUG_VALUE: k <- $r10
	.loc	1 171 9 is_stmt 0               @ ../../../../ThirdParty/ml-embedded-evaluation-kit/source/math/PlatformMath.cc:171:9
	cmp	r10, r9
.Ltmp157:
	.loc	1 182 28 is_stmt 1              @ ../../../../ThirdParty/ml-embedded-evaluation-kit/source/math/PlatformMath.cc:182:28
	vstr	s30, [r0]
	.loc	1 183 32                        @ ../../../../ThirdParty/ml-embedded-evaluation-kit/source/math/PlatformMath.cc:183:32
	vstr	s26, [r0, #4]
.Ltmp158:
	.loc	1 171 9                         @ ../../../../ThirdParty/ml-embedded-evaluation-kit/source/math/PlatformMath.cc:171:9
	bne	.LBB8_2
.Ltmp159:
.LBB8_5:
	@DEBUG_VALUE: FftComplexF32:fftLen <- $r9
	@DEBUG_VALUE: FftComplexF32:input <- $r4
	.loc	1 185 5 epilogue_begin          @ ../../../../ThirdParty/ml-embedded-evaluation-kit/source/math/PlatformMath.cc:185:5
	vpop	{d8, d9, d10, d11, d12, d13, d14, d15}
	pop.w	{r4, r5, r6, r7, r8, r9, r10, pc}
.Ltmp160:
	.p2align	2
@ %bb.6:
	.loc	1 0 5 is_stmt 0                 @ ../../../../ThirdParty/ml-embedded-evaluation-kit/source/math/PlatformMath.cc:0:5
.LCPI8_0:
	.long	0x40c90fdb                      @ float 6.28318548
.LCPI8_1:
	.long	0x00000000                      @ float 0
.Lfunc_end8:
	.size	_ZN3arm3app4mathL13FftComplexF32ERNSt3__26vectorIfNS2_9allocatorIfEEEES7_, .Lfunc_end8-_ZN3arm3app4mathL13FftComplexF32ERNSt3__26vectorIfNS2_9allocatorIfEEEES7_
	.cfi_endproc
	.cantunwind
	.fnend
                                        @ -- End function
	.section	.text._ZN3arm3app4math9MathUtils15VecLogarithmF32ERNSt3__26vectorIfNS3_9allocatorIfEEEES8_,"ax",%progbits
	.hidden	_ZN3arm3app4math9MathUtils15VecLogarithmF32ERNSt3__26vectorIfNS3_9allocatorIfEEEES8_ @ -- Begin function _ZN3arm3app4math9MathUtils15VecLogarithmF32ERNSt3__26vectorIfNS3_9allocatorIfEEEES8_
	.globl	_ZN3arm3app4math9MathUtils15VecLogarithmF32ERNSt3__26vectorIfNS3_9allocatorIfEEEES8_
	.p2align	2
	.type	_ZN3arm3app4math9MathUtils15VecLogarithmF32ERNSt3__26vectorIfNS3_9allocatorIfEEEES8_,%function
	.code	16                              @ @_ZN3arm3app4math9MathUtils15VecLogarithmF32ERNSt3__26vectorIfNS3_9allocatorIfEEEES8_
	.thumb_func
_ZN3arm3app4math9MathUtils15VecLogarithmF32ERNSt3__26vectorIfNS3_9allocatorIfEEEES8_:
.Lfunc_begin9:
	.fnstart
	.cfi_startproc
@ %bb.0:
	@DEBUG_VALUE: VecLogarithmF32:input <- $r0
	@DEBUG_VALUE: VecLogarithmF32:output <- $r1
	@DEBUG_VALUE: data:this <- $r0
	.loc	2 630 36 prologue_end is_stmt 1 @ C:\Keil_v5\ARM\ARMCLANG\bin\..\include\libcxx\vector:630:36
	ldrd	r1, r2, [r1]
.Ltmp161:
	@DEBUG_VALUE: VecLogarithmF32:output <- [DW_OP_LLVM_entry_value 1] $r1
	.loc	2 630 36 is_stmt 0              @ C:\Keil_v5\ARM\ARMCLANG\bin\..\include\libcxx\vector:630:36
	ldr	r0, [r0]
.Ltmp162:
	@DEBUG_VALUE: VecLogarithmF32:input <- [DW_OP_LLVM_entry_value 1] $r0
	@DEBUG_VALUE: size:this <- undef
	@DEBUG_VALUE: data:this <- undef
	.loc	2 595 48 is_stmt 1              @ C:\Keil_v5\ARM\ARMCLANG\bin\..\include\libcxx\vector:595:48
	subs	r2, r2, r1
	asrs	r2, r2, #2
.Ltmp163:
	.loc	1 240 9                         @ ../../../../ThirdParty/ml-embedded-evaluation-kit/source/math/PlatformMath.cc:240:9
	b	arm_vlog_f32
.Ltmp164:
.Lfunc_end9:
	.size	_ZN3arm3app4math9MathUtils15VecLogarithmF32ERNSt3__26vectorIfNS3_9allocatorIfEEEES8_, .Lfunc_end9-_ZN3arm3app4math9MathUtils15VecLogarithmF32ERNSt3__26vectorIfNS3_9allocatorIfEEEES8_
	.cfi_endproc
	.cantunwind
	.fnend
                                        @ -- End function
	.section	.text._ZN3arm3app4math9MathUtils13DotProductF32EPfS3_j,"ax",%progbits
	.hidden	_ZN3arm3app4math9MathUtils13DotProductF32EPfS3_j @ -- Begin function _ZN3arm3app4math9MathUtils13DotProductF32EPfS3_j
	.globl	_ZN3arm3app4math9MathUtils13DotProductF32EPfS3_j
	.p2align	2
	.type	_ZN3arm3app4math9MathUtils13DotProductF32EPfS3_j,%function
	.code	16                              @ @_ZN3arm3app4math9MathUtils13DotProductF32EPfS3_j
	.thumb_func
_ZN3arm3app4math9MathUtils13DotProductF32EPfS3_j:
.Lfunc_begin10:
	.loc	1 252 0                         @ ../../../../ThirdParty/ml-embedded-evaluation-kit/source/math/PlatformMath.cc:252:0
	.fnstart
	.cfi_startproc
@ %bb.0:
	@DEBUG_VALUE: DotProductF32:srcPtrA <- $r0
	@DEBUG_VALUE: DotProductF32:srcPtrB <- $r1
	@DEBUG_VALUE: DotProductF32:srcLen <- $r2
	.save	{r7, lr}
	push	{r7, lr}
	.cfi_def_cfa_offset 8
	.cfi_offset lr, -4
	.cfi_offset r7, -8
	.pad	#8
	sub	sp, #8
	.cfi_def_cfa_offset 16
	movs	r3, #0
.Ltmp165:
	.loc	1 253 15 prologue_end           @ ../../../../ThirdParty/ml-embedded-evaluation-kit/source/math/PlatformMath.cc:253:15
	str	r3, [sp, #4]
	add	r3, sp, #4
	.loc	1 256 9                         @ ../../../../ThirdParty/ml-embedded-evaluation-kit/source/math/PlatformMath.cc:256:9
	bl	arm_dot_prod_f32
.Ltmp166:
	@DEBUG_VALUE: DotProductF32:srcLen <- [DW_OP_LLVM_entry_value 1] $r2
	@DEBUG_VALUE: DotProductF32:srcPtrB <- [DW_OP_LLVM_entry_value 1] $r1
	@DEBUG_VALUE: DotProductF32:srcPtrA <- [DW_OP_LLVM_entry_value 1] $r0
	.loc	1 263 16                        @ ../../../../ThirdParty/ml-embedded-evaluation-kit/source/math/PlatformMath.cc:263:16
	vldr	s0, [sp, #4]
	.loc	1 263 9 epilogue_begin is_stmt 0 @ ../../../../ThirdParty/ml-embedded-evaluation-kit/source/math/PlatformMath.cc:263:9
	add	sp, #8
	pop	{r7, pc}
.Ltmp167:
.Lfunc_end10:
	.size	_ZN3arm3app4math9MathUtils13DotProductF32EPfS3_j, .Lfunc_end10-_ZN3arm3app4math9MathUtils13DotProductF32EPfS3_j
	.cfi_endproc
	.cantunwind
	.fnend
                                        @ -- End function
	.section	.text._ZN3arm3app4math9MathUtils26ComplexMagnitudeSquaredF32EPfjS3_j,"ax",%progbits
	.hidden	_ZN3arm3app4math9MathUtils26ComplexMagnitudeSquaredF32EPfjS3_j @ -- Begin function _ZN3arm3app4math9MathUtils26ComplexMagnitudeSquaredF32EPfjS3_j
	.globl	_ZN3arm3app4math9MathUtils26ComplexMagnitudeSquaredF32EPfjS3_j
	.p2align	2
	.type	_ZN3arm3app4math9MathUtils26ComplexMagnitudeSquaredF32EPfjS3_j,%function
	.code	16                              @ @_ZN3arm3app4math9MathUtils26ComplexMagnitudeSquaredF32EPfjS3_j
	.thumb_func
_ZN3arm3app4math9MathUtils26ComplexMagnitudeSquaredF32EPfjS3_j:
.Lfunc_begin11:
	.loc	1 270 0 is_stmt 1               @ ../../../../ThirdParty/ml-embedded-evaluation-kit/source/math/PlatformMath.cc:270:0
	.fnstart
	.cfi_startproc
@ %bb.0:
	@DEBUG_VALUE: ComplexMagnitudeSquaredF32:ptrSrc <- $r0
	@DEBUG_VALUE: ComplexMagnitudeSquaredF32:srcLen <- $r1
	@DEBUG_VALUE: ComplexMagnitudeSquaredF32:ptrDst <- $r2
	@DEBUG_VALUE: ComplexMagnitudeSquaredF32:dstLen <- $r3
	.save	{r4, r5, r7, lr}
	push	{r4, r5, r7, lr}
	.cfi_def_cfa_offset 16
	.cfi_offset lr, -4
	.cfi_offset r7, -8
	.cfi_offset r5, -12
	.cfi_offset r4, -16
.Ltmp168:
	.loc	1 271 13 prologue_end           @ ../../../../ThirdParty/ml-embedded-evaluation-kit/source/math/PlatformMath.cc:271:13
	cmp.w	r3, r1, lsr #1
	mov	r4, r3
.Ltmp169:
	@DEBUG_VALUE: ComplexMagnitudeSquaredF32:dstLen <- $r4
	@DEBUG_VALUE: ComplexMagnitudeSquaredF32:dstLen <- $r4
	.loc	1 271 28 is_stmt 0              @ ../../../../ThirdParty/ml-embedded-evaluation-kit/source/math/PlatformMath.cc:271:28
	lsr.w	r5, r1, #1
.Ltmp170:
	.loc	1 271 13                        @ ../../../../ThirdParty/ml-embedded-evaluation-kit/source/math/PlatformMath.cc:271:13
	blo	.LBB11_2
.Ltmp171:
@ %bb.1:
	@DEBUG_VALUE: ComplexMagnitudeSquaredF32:dstLen <- $r4
	@DEBUG_VALUE: ComplexMagnitudeSquaredF32:ptrDst <- $r2
	@DEBUG_VALUE: ComplexMagnitudeSquaredF32:srcLen <- $r1
	@DEBUG_VALUE: ComplexMagnitudeSquaredF32:ptrSrc <- $r0
	.loc	1 277 9 is_stmt 1               @ ../../../../ThirdParty/ml-embedded-evaluation-kit/source/math/PlatformMath.cc:277:9
	mov	r1, r2
.Ltmp172:
	@DEBUG_VALUE: ComplexMagnitudeSquaredF32:srcLen <- [DW_OP_LLVM_entry_value 1] $r1
	mov	r2, r5
.Ltmp173:
	@DEBUG_VALUE: ComplexMagnitudeSquaredF32:ptrDst <- [DW_OP_LLVM_entry_value 1] $r2
	bl	arm_cmplx_mag_squared_f32
.Ltmp174:
	@DEBUG_VALUE: ComplexMagnitudeSquaredF32:ptrSrc <- [DW_OP_LLVM_entry_value 1] $r0
	.loc	1 0 9 is_stmt 0                 @ ../../../../ThirdParty/ml-embedded-evaluation-kit/source/math/PlatformMath.cc:0:9
	b	.LBB11_3
.Ltmp175:
.LBB11_2:
	@DEBUG_VALUE: ComplexMagnitudeSquaredF32:dstLen <- $r4
	@DEBUG_VALUE: ComplexMagnitudeSquaredF32:ptrDst <- $r2
	@DEBUG_VALUE: ComplexMagnitudeSquaredF32:srcLen <- $r1
	@DEBUG_VALUE: ComplexMagnitudeSquaredF32:ptrSrc <- $r0
	.loc	1 272 13 is_stmt 1              @ ../../../../ThirdParty/ml-embedded-evaluation-kit/source/math/PlatformMath.cc:272:13
	movw	r0, :lower16:.L.str
.Ltmp176:
	@DEBUG_VALUE: ComplexMagnitudeSquaredF32:ptrSrc <- [DW_OP_LLVM_entry_value 1] $r0
	movt	r0, :upper16:.L.str
	bl	__2printf
.Ltmp177:
	@DEBUG_VALUE: ComplexMagnitudeSquaredF32:ptrDst <- [DW_OP_LLVM_entry_value 1] $r2
	@DEBUG_VALUE: ComplexMagnitudeSquaredF32:srcLen <- [DW_OP_LLVM_entry_value 1] $r1
	adr	r0, .LCPI11_0
	bl	__2printf
.Ltmp178:
.LBB11_3:
	@DEBUG_VALUE: ComplexMagnitudeSquaredF32:ptrDst <- [DW_OP_LLVM_entry_value 1] $r2
	@DEBUG_VALUE: ComplexMagnitudeSquaredF32:srcLen <- [DW_OP_LLVM_entry_value 1] $r1
	@DEBUG_VALUE: ComplexMagnitudeSquaredF32:ptrSrc <- [DW_OP_LLVM_entry_value 1] $r0
	@DEBUG_VALUE: ComplexMagnitudeSquaredF32:dstLen <- $r4
	.loc	1 271 20                        @ ../../../../ThirdParty/ml-embedded-evaluation-kit/source/math/PlatformMath.cc:271:20
	cmp	r5, r4
	cset	r0, ls
.Ltmp179:
	.loc	1 286 5 epilogue_begin          @ ../../../../ThirdParty/ml-embedded-evaluation-kit/source/math/PlatformMath.cc:286:5
	pop	{r4, r5, r7, pc}
.Ltmp180:
	.p2align	2
@ %bb.4:
	.loc	1 0 5 is_stmt 0                 @ ../../../../ThirdParty/ml-embedded-evaluation-kit/source/math/PlatformMath.cc:0:5
.LCPI11_0:
.L.str.7:
	.asciz	"dstLen must be greater than srcLen/2\000\000\000"
.Lfunc_end11:
	.size	_ZN3arm3app4math9MathUtils26ComplexMagnitudeSquaredF32EPfjS3_j, .Lfunc_end11-_ZN3arm3app4math9MathUtils26ComplexMagnitudeSquaredF32EPfjS3_j
	.cfi_endproc
	.cantunwind
	.fnend
                                        @ -- End function
	.section	.text._ZN3arm3app4math9MathUtils10SoftmaxF32ERNSt3__26vectorIfNS3_9allocatorIfEEEE,"ax",%progbits
	.hidden	_ZN3arm3app4math9MathUtils10SoftmaxF32ERNSt3__26vectorIfNS3_9allocatorIfEEEE @ -- Begin function _ZN3arm3app4math9MathUtils10SoftmaxF32ERNSt3__26vectorIfNS3_9allocatorIfEEEE
	.globl	_ZN3arm3app4math9MathUtils10SoftmaxF32ERNSt3__26vectorIfNS3_9allocatorIfEEEE
	.p2align	2
	.type	_ZN3arm3app4math9MathUtils10SoftmaxF32ERNSt3__26vectorIfNS3_9allocatorIfEEEE,%function
	.code	16                              @ @_ZN3arm3app4math9MathUtils10SoftmaxF32ERNSt3__26vectorIfNS3_9allocatorIfEEEE
	.thumb_func
_ZN3arm3app4math9MathUtils10SoftmaxF32ERNSt3__26vectorIfNS3_9allocatorIfEEEE:
.Lfunc_begin12:
	.loc	1 289 0 is_stmt 1               @ ../../../../ThirdParty/ml-embedded-evaluation-kit/source/math/PlatformMath.cc:289:0
	.fnstart
	.cfi_startproc
@ %bb.0:
	@DEBUG_VALUE: SoftmaxF32:vec <- $r0
	@DEBUG_VALUE: begin:this <- $r0
	@DEBUG_VALUE: end:this <- $r0
	@DEBUG_VALUE: __max_element<std::__2::__less<void, void> &, std::__2::__wrap_iter<float *> >:__last <- undef
	@DEBUG_VALUE: __max_element<std::__2::__less<void, void> &, std::__2::__wrap_iter<float *> >:__first <- undef
	.save	{r4, r5, r6, lr}
	push	{r4, r5, r6, lr}
	.cfi_def_cfa_offset 16
	.cfi_offset lr, -4
	.cfi_offset r6, -8
	.cfi_offset r5, -12
	.cfi_offset r4, -16
	.vsave	{d8}
	vpush	{d8}
	.cfi_def_cfa_offset 24
	.cfi_offset d8, -24
.Ltmp181:
	@DEBUG_VALUE: SoftmaxF32:start <- undef
	@DEBUG_VALUE: SoftmaxF32:end <- undef
	@DEBUG_VALUE: __i <- undef
	.loc	2 1386 28 prologue_end          @ C:\Keil_v5\ARM\ARMCLANG\bin\..\include\libcxx\vector:1386:28
	ldrd	r5, r4, [r0]
	mov	r0, r5
.Ltmp182:
	@DEBUG_VALUE: SoftmaxF32:vec <- [DW_OP_LLVM_entry_value 1] $r0
	.file	23 "C:\\Keil_v5\\ARM\\ARMCLANG\\bin\\..\\include\\libcxx\\__algorithm" "max_element.h"
	.loc	23 28 7                         @ C:\Keil_v5\ARM\ARMCLANG\bin\..\include\libcxx\__algorithm/max_element.h:28:7
	cmp	r5, r4
	beq	.LBB12_7
.Ltmp183:
@ %bb.1:
	@DEBUG_VALUE: SoftmaxF32:vec <- [DW_OP_LLVM_entry_value 1] $r0
	.loc	23 0 7 is_stmt 0                @ C:\Keil_v5\ARM\ARMCLANG\bin\..\include\libcxx\__algorithm/max_element.h:0:7
	adds	r1, r5, #4
	@DEBUG_VALUE: __i <- $r1
	mov	r0, r5
	.loc	23 28 7                         @ C:\Keil_v5\ARM\ARMCLANG\bin\..\include\libcxx\__algorithm/max_element.h:28:7
	cmp	r1, r4
	beq	.LBB12_7
.Ltmp184:
@ %bb.2:
	@DEBUG_VALUE: __i <- $r1
	@DEBUG_VALUE: SoftmaxF32:vec <- [DW_OP_LLVM_entry_value 1] $r0
	.file	24 "C:\\Keil_v5\\ARM\\ARMCLANG\\bin\\..\\include\\libcxx\\__algorithm" "comp.h"
	.loc	24 41 12 is_stmt 1              @ C:\Keil_v5\ARM\ARMCLANG\bin\..\include\libcxx\__algorithm/comp.h:41:12
	vldr	s0, [r5]
	mov	r0, r5
.Ltmp185:
	.p2align	2
.LBB12_3:                               @ =>This Inner Loop Header: Depth=1
	@DEBUG_VALUE: SoftmaxF32:vec <- [DW_OP_LLVM_entry_value 1] $r0
	@DEBUG_VALUE: __max_element<std::__2::__less<void, void> &, std::__2::__wrap_iter<float *> >:__first <- $r0
	@DEBUG_VALUE: operator()<float, float>:this <- undef
	@DEBUG_VALUE: operator()<float, float>:__lhs <- $r0
	@DEBUG_VALUE: operator()<float, float>:__rhs <- $r1
	.loc	24 41 20 is_stmt 0              @ C:\Keil_v5\ARM\ARMCLANG\bin\..\include\libcxx\__algorithm/comp.h:41:20
	vldr	s2, [r1]
.Ltmp186:
	.loc	23 31 11 is_stmt 1              @ C:\Keil_v5\ARM\ARMCLANG\bin\..\include\libcxx\__algorithm/max_element.h:31:11
	vcmp.f32	s0, s2
	vmrs	APSR_nzcv, fpscr
	csel	r0, r1, r0, lt
.Ltmp187:
	@DEBUG_VALUE: operator++:this <- undef
	@DEBUG_VALUE: __i <- $r1
	@DEBUG_VALUE: __max_element<std::__2::__less<void, void> &, std::__2::__wrap_iter<float *> >:__first <- $r0
	.loc	16 53 5                         @ C:\Keil_v5\ARM\ARMCLANG\bin\..\include\libcxx\__iterator/wrap_iter.h:53:5
	adds	r1, #4
.Ltmp188:
	@DEBUG_VALUE: operator==<float *>:__y <- undef
	@DEBUG_VALUE: operator==<float *>:__x <- undef
	@DEBUG_VALUE: operator!=<float *>:__y <- undef
	@DEBUG_VALUE: operator!=<float *>:__x <- undef
	@DEBUG_VALUE: __i <- $r1
	.loc	23 30 5                         @ C:\Keil_v5\ARM\ARMCLANG\bin\..\include\libcxx\__algorithm/max_element.h:30:5
	cmp	r1, r4
	beq	.LBB12_7
.Ltmp189:
@ %bb.4:                                @   in Loop: Header=BB12_3 Depth=1
	@DEBUG_VALUE: __max_element<std::__2::__less<void, void> &, std::__2::__wrap_iter<float *> >:__first <- $r0
	@DEBUG_VALUE: __i <- $r1
	@DEBUG_VALUE: SoftmaxF32:vec <- [DW_OP_LLVM_entry_value 1] $r0
	.loc	23 0 5 is_stmt 0                @ C:\Keil_v5\ARM\ARMCLANG\bin\..\include\libcxx\__algorithm/max_element.h:0:5
	vmaxnm.f32	s0, s0, s2
.Ltmp190:
	@DEBUG_VALUE: operator()<float, float>:__rhs <- $r1
	@DEBUG_VALUE: operator()<float, float>:__lhs <- $r0
	@DEBUG_VALUE: operator()<float, float>:this <- undef
	@DEBUG_VALUE: __max_element<std::__2::__less<void, void> &, std::__2::__wrap_iter<float *> >:__first <- $r0
	.loc	24 41 20 is_stmt 1              @ C:\Keil_v5\ARM\ARMCLANG\bin\..\include\libcxx\__algorithm/comp.h:41:20
	vldr	s2, [r1]
.Ltmp191:
	.loc	23 31 11                        @ C:\Keil_v5\ARM\ARMCLANG\bin\..\include\libcxx\__algorithm/max_element.h:31:11
	vcmp.f32	s0, s2
	vmrs	APSR_nzcv, fpscr
	csel	r0, r1, r0, lt
.Ltmp192:
	@DEBUG_VALUE: operator==<float *>:__y <- undef
	@DEBUG_VALUE: operator==<float *>:__x <- undef
	@DEBUG_VALUE: operator!=<float *>:__y <- undef
	@DEBUG_VALUE: operator!=<float *>:__x <- undef
	@DEBUG_VALUE: operator++:this <- undef
	@DEBUG_VALUE: __i <- [DW_OP_plus_uconst 8, DW_OP_stack_value] undef
	@DEBUG_VALUE: __max_element<std::__2::__less<void, void> &, std::__2::__wrap_iter<float *> >:__first <- $r0
	.loc	16 109 21                       @ C:\Keil_v5\ARM\ARMCLANG\bin\..\include\libcxx\__iterator/wrap_iter.h:109:21
	adds	r1, #4
.Ltmp193:
	.loc	23 30 5                         @ C:\Keil_v5\ARM\ARMCLANG\bin\..\include\libcxx\__algorithm/max_element.h:30:5
	cmp	r1, r4
	beq	.LBB12_7
.Ltmp194:
@ %bb.5:                                @   in Loop: Header=BB12_3 Depth=1
	@DEBUG_VALUE: __max_element<std::__2::__less<void, void> &, std::__2::__wrap_iter<float *> >:__first <- $r0
	@DEBUG_VALUE: SoftmaxF32:vec <- [DW_OP_LLVM_entry_value 1] $r0
	.loc	23 0 5 is_stmt 0                @ C:\Keil_v5\ARM\ARMCLANG\bin\..\include\libcxx\__algorithm/max_element.h:0:5
	vmaxnm.f32	s0, s0, s2
.Ltmp195:
	@DEBUG_VALUE: operator()<float, float>:__rhs <- [DW_OP_plus_uconst 8, DW_OP_stack_value] undef
	@DEBUG_VALUE: operator()<float, float>:__lhs <- $r0
	@DEBUG_VALUE: operator()<float, float>:this <- undef
	@DEBUG_VALUE: __max_element<std::__2::__less<void, void> &, std::__2::__wrap_iter<float *> >:__first <- $r0
	.loc	24 41 20 is_stmt 1              @ C:\Keil_v5\ARM\ARMCLANG\bin\..\include\libcxx\__algorithm/comp.h:41:20
	vldr	s2, [r1]
.Ltmp196:
	.loc	23 31 11                        @ C:\Keil_v5\ARM\ARMCLANG\bin\..\include\libcxx\__algorithm/max_element.h:31:11
	vcmp.f32	s0, s2
	vmrs	APSR_nzcv, fpscr
	csel	r0, r1, r0, lt
.Ltmp197:
	@DEBUG_VALUE: operator==<float *>:__y <- undef
	@DEBUG_VALUE: operator==<float *>:__x <- undef
	@DEBUG_VALUE: operator!=<float *>:__y <- undef
	@DEBUG_VALUE: operator!=<float *>:__x <- undef
	@DEBUG_VALUE: operator++:this <- undef
	@DEBUG_VALUE: __i <- [DW_OP_plus_uconst 12, DW_OP_stack_value] undef
	@DEBUG_VALUE: __max_element<std::__2::__less<void, void> &, std::__2::__wrap_iter<float *> >:__first <- $r0
	.loc	16 109 21                       @ C:\Keil_v5\ARM\ARMCLANG\bin\..\include\libcxx\__iterator/wrap_iter.h:109:21
	adds	r1, #4
.Ltmp198:
	.loc	23 30 5                         @ C:\Keil_v5\ARM\ARMCLANG\bin\..\include\libcxx\__algorithm/max_element.h:30:5
	cmp	r1, r4
	beq	.LBB12_7
.Ltmp199:
@ %bb.6:                                @   in Loop: Header=BB12_3 Depth=1
	@DEBUG_VALUE: __max_element<std::__2::__less<void, void> &, std::__2::__wrap_iter<float *> >:__first <- $r0
	@DEBUG_VALUE: SoftmaxF32:vec <- [DW_OP_LLVM_entry_value 1] $r0
	.loc	23 0 5 is_stmt 0                @ C:\Keil_v5\ARM\ARMCLANG\bin\..\include\libcxx\__algorithm/max_element.h:0:5
	vmaxnm.f32	s2, s0, s2
.Ltmp200:
	@DEBUG_VALUE: operator()<float, float>:__rhs <- [DW_OP_plus_uconst 12, DW_OP_stack_value] undef
	@DEBUG_VALUE: operator()<float, float>:__lhs <- $r0
	@DEBUG_VALUE: operator()<float, float>:this <- undef
	@DEBUG_VALUE: __max_element<std::__2::__less<void, void> &, std::__2::__wrap_iter<float *> >:__first <- $r0
	.loc	24 41 20 is_stmt 1              @ C:\Keil_v5\ARM\ARMCLANG\bin\..\include\libcxx\__algorithm/comp.h:41:20
	vldr	s4, [r1]
.Ltmp201:
	.loc	23 31 11                        @ C:\Keil_v5\ARM\ARMCLANG\bin\..\include\libcxx\__algorithm/max_element.h:31:11
	vcmp.f32	s2, s4
	vmrs	APSR_nzcv, fpscr
	vmaxnm.f32	s0, s2, s4
	csel	r0, r1, r0, lt
.Ltmp202:
	@DEBUG_VALUE: operator==<float *>:__y <- undef
	@DEBUG_VALUE: operator==<float *>:__x <- undef
	@DEBUG_VALUE: operator!=<float *>:__y <- undef
	@DEBUG_VALUE: operator!=<float *>:__x <- undef
	@DEBUG_VALUE: operator++:this <- undef
	@DEBUG_VALUE: __i <- [DW_OP_plus_uconst 16, DW_OP_stack_value] undef
	@DEBUG_VALUE: __max_element<std::__2::__less<void, void> &, std::__2::__wrap_iter<float *> >:__first <- $r0
	.loc	16 109 21                       @ C:\Keil_v5\ARM\ARMCLANG\bin\..\include\libcxx\__iterator/wrap_iter.h:109:21
	adds	r1, #4
.Ltmp203:
	.loc	23 30 5                         @ C:\Keil_v5\ARM\ARMCLANG\bin\..\include\libcxx\__algorithm/max_element.h:30:5
	cmp	r1, r4
	bne	.LBB12_3
.Ltmp204:
.LBB12_7:
	@DEBUG_VALUE: SoftmaxF32:vec <- [DW_OP_LLVM_entry_value 1] $r0
	@DEBUG_VALUE: SoftmaxF32:maxValue <- undef
	@DEBUG_VALUE: it <- $r5
	@DEBUG_VALUE: operator!=<float *>:__x <- undef
	@DEBUG_VALUE: operator!=<float *>:__y <- undef
	@DEBUG_VALUE: operator==<float *>:__x <- undef
	@DEBUG_VALUE: operator==<float *>:__y <- undef
	.loc	1 295 9                         @ ../../../../ThirdParty/ml-embedded-evaluation-kit/source/math/PlatformMath.cc:295:9
	cmp	r5, r4
	beq	.LBB12_21
.Ltmp205:
@ %bb.8:
	@DEBUG_VALUE: it <- $r5
	@DEBUG_VALUE: SoftmaxF32:vec <- [DW_OP_LLVM_entry_value 1] $r0
	.loc	1 0 9 is_stmt 0                 @ ../../../../ThirdParty/ml-embedded-evaluation-kit/source/math/PlatformMath.cc:0:9
	vldr	s16, [r0]
.Ltmp206:
	@DEBUG_VALUE: SoftmaxF32:maxValue <- $s16
	mov	r6, r5
.Ltmp207:
	.p2align	2
.LBB12_9:                               @ =>This Inner Loop Header: Depth=1
	@DEBUG_VALUE: SoftmaxF32:maxValue <- $s16
	@DEBUG_VALUE: SoftmaxF32:vec <- [DW_OP_LLVM_entry_value 1] $r0
	@DEBUG_VALUE: it <- $r6
	.loc	1 296 29 is_stmt 1              @ ../../../../ThirdParty/ml-embedded-evaluation-kit/source/math/PlatformMath.cc:296:29
	vldr	s0, [r6]
	.loc	1 296 34 is_stmt 0              @ ../../../../ThirdParty/ml-embedded-evaluation-kit/source/math/PlatformMath.cc:296:34
	vsub.f32	s0, s0, s16
.Ltmp208:
	@DEBUG_VALUE: exp:__x <- $s0
	.file	25 "C:\\Keil_v5\\ARM\\ARMCLANG\\bin\\..\\include\\libcxx\\__math" "exponential_functions.h"
	.loc	25 29 70 is_stmt 1              @ C:\Keil_v5\ARM\ARMCLANG\bin\..\include\libcxx\__math/exponential_functions.h:29:70
	bl	__hardfp_expf
.Ltmp209:
	.loc	1 296 17                        @ ../../../../ThirdParty/ml-embedded-evaluation-kit/source/math/PlatformMath.cc:296:17
	vstmia	r6!, {s0}
.Ltmp210:
	@DEBUG_VALUE: operator++:this <- undef
	@DEBUG_VALUE: operator==<float *>:__y <- undef
	@DEBUG_VALUE: operator==<float *>:__x <- undef
	@DEBUG_VALUE: operator!=<float *>:__y <- undef
	@DEBUG_VALUE: operator!=<float *>:__x <- undef
	@DEBUG_VALUE: it <- $r6
	.loc	1 295 9                         @ ../../../../ThirdParty/ml-embedded-evaluation-kit/source/math/PlatformMath.cc:295:9
	cmp	r6, r4
	bne	.LBB12_9
.Ltmp211:
@ %bb.10:
	@DEBUG_VALUE: SoftmaxF32:maxValue <- $s16
	@DEBUG_VALUE: SoftmaxF32:vec <- [DW_OP_LLVM_entry_value 1] $r0
	@DEBUG_VALUE: accumulate<std::__2::__wrap_iter<float *>, float>:__first <- $r5
	@DEBUG_VALUE: accumulate<std::__2::__wrap_iter<float *>, float>:__last <- $r4
	@DEBUG_VALUE: accumulate<std::__2::__wrap_iter<float *>, float>:__init <- 0.000000e+00
	@DEBUG_VALUE: operator!=<float *>:__x <- undef
	@DEBUG_VALUE: operator!=<float *>:__y <- undef
	@DEBUG_VALUE: operator==<float *>:__x <- undef
	@DEBUG_VALUE: operator==<float *>:__y <- undef
	.file	26 "C:\\Keil_v5\\ARM\\ARMCLANG\\bin\\..\\include\\libcxx\\__numeric" "accumulate.h"
	.loc	26 28 3                         @ C:\Keil_v5\ARM\ARMCLANG\bin\..\include\libcxx\__numeric/accumulate.h:28:3
	cmp	r5, r4
	beq	.LBB12_21
.Ltmp212:
@ %bb.11:
	@DEBUG_VALUE: accumulate<std::__2::__wrap_iter<float *>, float>:__init <- 0.000000e+00
	@DEBUG_VALUE: accumulate<std::__2::__wrap_iter<float *>, float>:__last <- $r4
	@DEBUG_VALUE: accumulate<std::__2::__wrap_iter<float *>, float>:__first <- $r5
	@DEBUG_VALUE: SoftmaxF32:maxValue <- $s16
	@DEBUG_VALUE: SoftmaxF32:vec <- [DW_OP_LLVM_entry_value 1] $r0
	.loc	26 0 3 is_stmt 0                @ C:\Keil_v5\ARM\ARMCLANG\bin\..\include\libcxx\__numeric/accumulate.h:0:3
	vldr	s0, .LCPI12_0
	mov	r0, r5
.Ltmp213:
	.p2align	2
.LBB12_12:                              @ =>This Inner Loop Header: Depth=1
	@DEBUG_VALUE: accumulate<std::__2::__wrap_iter<float *>, float>:__last <- $r4
	@DEBUG_VALUE: SoftmaxF32:maxValue <- $s16
	@DEBUG_VALUE: SoftmaxF32:vec <- [DW_OP_LLVM_entry_value 1] $r0
	@DEBUG_VALUE: accumulate<std::__2::__wrap_iter<float *>, float>:__first <- $r0
	@DEBUG_VALUE: accumulate<std::__2::__wrap_iter<float *>, float>:__init <- $s0
	.loc	26 32 23 is_stmt 1              @ C:\Keil_v5\ARM\ARMCLANG\bin\..\include\libcxx\__numeric/accumulate.h:32:23
	vldmia	r0!, {s2}
.Ltmp214:
	.loc	26 28 3                         @ C:\Keil_v5\ARM\ARMCLANG\bin\..\include\libcxx\__numeric/accumulate.h:28:3
	cmp	r0, r4
.Ltmp215:
	.loc	26 32 21                        @ C:\Keil_v5\ARM\ARMCLANG\bin\..\include\libcxx\__numeric/accumulate.h:32:21
	vadd.f32	s0, s0, s2
.Ltmp216:
	@DEBUG_VALUE: operator++:this <- undef
	@DEBUG_VALUE: accumulate<std::__2::__wrap_iter<float *>, float>:__init <- $s0
	@DEBUG_VALUE: operator==<float *>:__y <- undef
	@DEBUG_VALUE: operator==<float *>:__x <- undef
	@DEBUG_VALUE: operator!=<float *>:__y <- undef
	@DEBUG_VALUE: operator!=<float *>:__x <- undef
	@DEBUG_VALUE: accumulate<std::__2::__wrap_iter<float *>, float>:__first <- $r0
	.loc	26 28 3                         @ C:\Keil_v5\ARM\ARMCLANG\bin\..\include\libcxx\__numeric/accumulate.h:28:3
	beq	.LBB12_16
.Ltmp217:
@ %bb.13:                               @   in Loop: Header=BB12_12 Depth=1
	@DEBUG_VALUE: accumulate<std::__2::__wrap_iter<float *>, float>:__init <- $s0
	@DEBUG_VALUE: accumulate<std::__2::__wrap_iter<float *>, float>:__first <- $r0
	@DEBUG_VALUE: accumulate<std::__2::__wrap_iter<float *>, float>:__last <- $r4
	@DEBUG_VALUE: SoftmaxF32:maxValue <- $s16
	@DEBUG_VALUE: SoftmaxF32:vec <- [DW_OP_LLVM_entry_value 1] $r0
	@DEBUG_VALUE: accumulate<std::__2::__wrap_iter<float *>, float>:__first <- $r0
	@DEBUG_VALUE: accumulate<std::__2::__wrap_iter<float *>, float>:__init <- $s0
	.loc	26 32 23                        @ C:\Keil_v5\ARM\ARMCLANG\bin\..\include\libcxx\__numeric/accumulate.h:32:23
	vldmia	r0!, {s2}
.Ltmp218:
	.loc	26 28 3                         @ C:\Keil_v5\ARM\ARMCLANG\bin\..\include\libcxx\__numeric/accumulate.h:28:3
	cmp	r0, r4
.Ltmp219:
	.loc	26 32 21                        @ C:\Keil_v5\ARM\ARMCLANG\bin\..\include\libcxx\__numeric/accumulate.h:32:21
	vadd.f32	s0, s0, s2
.Ltmp220:
	@DEBUG_VALUE: operator++:this <- undef
	@DEBUG_VALUE: operator==<float *>:__y <- undef
	@DEBUG_VALUE: operator==<float *>:__x <- undef
	@DEBUG_VALUE: operator!=<float *>:__y <- undef
	@DEBUG_VALUE: operator!=<float *>:__x <- undef
	@DEBUG_VALUE: accumulate<std::__2::__wrap_iter<float *>, float>:__init <- $s0
	@DEBUG_VALUE: accumulate<std::__2::__wrap_iter<float *>, float>:__first <- [DW_OP_plus_uconst 8, DW_OP_stack_value] undef
	.loc	26 28 3                         @ C:\Keil_v5\ARM\ARMCLANG\bin\..\include\libcxx\__numeric/accumulate.h:28:3
	beq	.LBB12_16
.Ltmp221:
@ %bb.14:                               @   in Loop: Header=BB12_12 Depth=1
	@DEBUG_VALUE: accumulate<std::__2::__wrap_iter<float *>, float>:__init <- $s0
	@DEBUG_VALUE: accumulate<std::__2::__wrap_iter<float *>, float>:__last <- $r4
	@DEBUG_VALUE: SoftmaxF32:maxValue <- $s16
	@DEBUG_VALUE: SoftmaxF32:vec <- [DW_OP_LLVM_entry_value 1] $r0
	@DEBUG_VALUE: accumulate<std::__2::__wrap_iter<float *>, float>:__first <- [DW_OP_plus_uconst 8, DW_OP_stack_value] undef
	@DEBUG_VALUE: accumulate<std::__2::__wrap_iter<float *>, float>:__init <- $s0
	.loc	26 32 23                        @ C:\Keil_v5\ARM\ARMCLANG\bin\..\include\libcxx\__numeric/accumulate.h:32:23
	vldmia	r0!, {s2}
.Ltmp222:
	.loc	26 28 3                         @ C:\Keil_v5\ARM\ARMCLANG\bin\..\include\libcxx\__numeric/accumulate.h:28:3
	cmp	r0, r4
.Ltmp223:
	.loc	26 32 21                        @ C:\Keil_v5\ARM\ARMCLANG\bin\..\include\libcxx\__numeric/accumulate.h:32:21
	vadd.f32	s0, s0, s2
.Ltmp224:
	@DEBUG_VALUE: operator++:this <- undef
	@DEBUG_VALUE: operator==<float *>:__y <- undef
	@DEBUG_VALUE: operator==<float *>:__x <- undef
	@DEBUG_VALUE: operator!=<float *>:__y <- undef
	@DEBUG_VALUE: operator!=<float *>:__x <- undef
	@DEBUG_VALUE: accumulate<std::__2::__wrap_iter<float *>, float>:__init <- $s0
	@DEBUG_VALUE: accumulate<std::__2::__wrap_iter<float *>, float>:__first <- [DW_OP_plus_uconst 12, DW_OP_stack_value] undef
	.loc	26 28 3                         @ C:\Keil_v5\ARM\ARMCLANG\bin\..\include\libcxx\__numeric/accumulate.h:28:3
	beq	.LBB12_16
.Ltmp225:
@ %bb.15:                               @   in Loop: Header=BB12_12 Depth=1
	@DEBUG_VALUE: accumulate<std::__2::__wrap_iter<float *>, float>:__init <- $s0
	@DEBUG_VALUE: accumulate<std::__2::__wrap_iter<float *>, float>:__last <- $r4
	@DEBUG_VALUE: SoftmaxF32:maxValue <- $s16
	@DEBUG_VALUE: SoftmaxF32:vec <- [DW_OP_LLVM_entry_value 1] $r0
	@DEBUG_VALUE: accumulate<std::__2::__wrap_iter<float *>, float>:__first <- [DW_OP_plus_uconst 12, DW_OP_stack_value] undef
	@DEBUG_VALUE: accumulate<std::__2::__wrap_iter<float *>, float>:__init <- $s0
	.loc	26 32 23                        @ C:\Keil_v5\ARM\ARMCLANG\bin\..\include\libcxx\__numeric/accumulate.h:32:23
	vldmia	r0!, {s2}
.Ltmp226:
	.loc	26 28 3                         @ C:\Keil_v5\ARM\ARMCLANG\bin\..\include\libcxx\__numeric/accumulate.h:28:3
	cmp	r0, r4
.Ltmp227:
	.loc	26 32 21                        @ C:\Keil_v5\ARM\ARMCLANG\bin\..\include\libcxx\__numeric/accumulate.h:32:21
	vadd.f32	s0, s0, s2
.Ltmp228:
	@DEBUG_VALUE: operator++:this <- undef
	@DEBUG_VALUE: operator==<float *>:__y <- undef
	@DEBUG_VALUE: operator==<float *>:__x <- undef
	@DEBUG_VALUE: operator!=<float *>:__y <- undef
	@DEBUG_VALUE: operator!=<float *>:__x <- undef
	@DEBUG_VALUE: accumulate<std::__2::__wrap_iter<float *>, float>:__init <- $s0
	@DEBUG_VALUE: accumulate<std::__2::__wrap_iter<float *>, float>:__first <- [DW_OP_plus_uconst 16, DW_OP_stack_value] undef
	.loc	26 28 3                         @ C:\Keil_v5\ARM\ARMCLANG\bin\..\include\libcxx\__numeric/accumulate.h:28:3
	bne	.LBB12_12
.Ltmp229:
.LBB12_16:
	@DEBUG_VALUE: SoftmaxF32:maxValue <- $s16
	@DEBUG_VALUE: SoftmaxF32:vec <- [DW_OP_LLVM_entry_value 1] $r0
	@DEBUG_VALUE: SoftmaxF32:sumExp <- $s0
	@DEBUG_VALUE: it <- $r5
	@DEBUG_VALUE: operator!=<float *>:__x <- undef
	@DEBUG_VALUE: operator!=<float *>:__y <- undef
	@DEBUG_VALUE: operator==<float *>:__x <- undef
	@DEBUG_VALUE: operator==<float *>:__y <- undef
	.loc	1 301 9                         @ ../../../../ThirdParty/ml-embedded-evaluation-kit/source/math/PlatformMath.cc:301:9
	cmp	r5, r4
	beq	.LBB12_21
.Ltmp230:
	.p2align	2
.LBB12_17:                              @ =>This Inner Loop Header: Depth=1
	@DEBUG_VALUE: SoftmaxF32:sumExp <- $s0
	@DEBUG_VALUE: SoftmaxF32:maxValue <- $s16
	@DEBUG_VALUE: SoftmaxF32:vec <- [DW_OP_LLVM_entry_value 1] $r0
	@DEBUG_VALUE: it <- $r5
	.loc	1 302 20                        @ ../../../../ThirdParty/ml-embedded-evaluation-kit/source/math/PlatformMath.cc:302:20
	vldr	s2, [r5]
.Ltmp231:
	.loc	16 53 5                         @ C:\Keil_v5\ARM\ARMCLANG\bin\..\include\libcxx\__iterator/wrap_iter.h:53:5
	adds	r0, r5, #4
.Ltmp232:
	@DEBUG_VALUE: operator==<float *>:__y <- undef
	@DEBUG_VALUE: operator==<float *>:__x <- undef
	@DEBUG_VALUE: operator!=<float *>:__y <- undef
	@DEBUG_VALUE: operator!=<float *>:__x <- undef
	@DEBUG_VALUE: it <- $r0
	.loc	1 302 24                        @ ../../../../ThirdParty/ml-embedded-evaluation-kit/source/math/PlatformMath.cc:302:24
	vdiv.f32	s2, s2, s0
.Ltmp233:
	.loc	1 301 9                         @ ../../../../ThirdParty/ml-embedded-evaluation-kit/source/math/PlatformMath.cc:301:9
	cmp	r0, r4
.Ltmp234:
	.loc	1 302 17                        @ ../../../../ThirdParty/ml-embedded-evaluation-kit/source/math/PlatformMath.cc:302:17
	vstr	s2, [r5]
.Ltmp235:
	@DEBUG_VALUE: operator++:this <- undef
	.loc	1 301 9                         @ ../../../../ThirdParty/ml-embedded-evaluation-kit/source/math/PlatformMath.cc:301:9
	beq	.LBB12_21
.Ltmp236:
@ %bb.18:                               @   in Loop: Header=BB12_17 Depth=1
	@DEBUG_VALUE: it <- $r0
	@DEBUG_VALUE: SoftmaxF32:sumExp <- $s0
	@DEBUG_VALUE: SoftmaxF32:maxValue <- $s16
	@DEBUG_VALUE: SoftmaxF32:vec <- [DW_OP_LLVM_entry_value 1] $r0
	@DEBUG_VALUE: it <- $r0
	.loc	1 302 20                        @ ../../../../ThirdParty/ml-embedded-evaluation-kit/source/math/PlatformMath.cc:302:20
	vldr	s2, [r0]
.Ltmp237:
	.loc	16 109 21                       @ C:\Keil_v5\ARM\ARMCLANG\bin\..\include\libcxx\__iterator/wrap_iter.h:109:21
	adds	r1, r0, #4
.Ltmp238:
	.loc	1 302 24                        @ ../../../../ThirdParty/ml-embedded-evaluation-kit/source/math/PlatformMath.cc:302:24
	vdiv.f32	s2, s2, s0
.Ltmp239:
	.loc	1 301 9                         @ ../../../../ThirdParty/ml-embedded-evaluation-kit/source/math/PlatformMath.cc:301:9
	cmp	r1, r4
.Ltmp240:
	.loc	1 302 17                        @ ../../../../ThirdParty/ml-embedded-evaluation-kit/source/math/PlatformMath.cc:302:17
	vstr	s2, [r0]
.Ltmp241:
	@DEBUG_VALUE: operator++:this <- undef
	@DEBUG_VALUE: operator==<float *>:__y <- undef
	@DEBUG_VALUE: operator==<float *>:__x <- undef
	@DEBUG_VALUE: operator!=<float *>:__y <- undef
	@DEBUG_VALUE: operator!=<float *>:__x <- undef
	@DEBUG_VALUE: it <- [DW_OP_plus_uconst 8, DW_OP_stack_value] undef
	.loc	1 301 9                         @ ../../../../ThirdParty/ml-embedded-evaluation-kit/source/math/PlatformMath.cc:301:9
	beq	.LBB12_21
.Ltmp242:
@ %bb.19:                               @   in Loop: Header=BB12_17 Depth=1
	@DEBUG_VALUE: SoftmaxF32:sumExp <- $s0
	@DEBUG_VALUE: SoftmaxF32:maxValue <- $s16
	@DEBUG_VALUE: SoftmaxF32:vec <- [DW_OP_LLVM_entry_value 1] $r0
	@DEBUG_VALUE: it <- [DW_OP_plus_uconst 8, DW_OP_stack_value] undef
	.loc	1 302 20                        @ ../../../../ThirdParty/ml-embedded-evaluation-kit/source/math/PlatformMath.cc:302:20
	vldr	s2, [r1]
.Ltmp243:
	.loc	16 109 21                       @ C:\Keil_v5\ARM\ARMCLANG\bin\..\include\libcxx\__iterator/wrap_iter.h:109:21
	adds	r0, r1, #4
.Ltmp244:
	.loc	1 302 24                        @ ../../../../ThirdParty/ml-embedded-evaluation-kit/source/math/PlatformMath.cc:302:24
	vdiv.f32	s2, s2, s0
.Ltmp245:
	.loc	1 301 9                         @ ../../../../ThirdParty/ml-embedded-evaluation-kit/source/math/PlatformMath.cc:301:9
	cmp	r0, r4
.Ltmp246:
	.loc	1 302 17                        @ ../../../../ThirdParty/ml-embedded-evaluation-kit/source/math/PlatformMath.cc:302:17
	vstr	s2, [r1]
.Ltmp247:
	@DEBUG_VALUE: operator++:this <- undef
	@DEBUG_VALUE: operator==<float *>:__y <- undef
	@DEBUG_VALUE: operator==<float *>:__x <- undef
	@DEBUG_VALUE: operator!=<float *>:__y <- undef
	@DEBUG_VALUE: operator!=<float *>:__x <- undef
	@DEBUG_VALUE: it <- [DW_OP_plus_uconst 12, DW_OP_stack_value] undef
	.loc	1 301 9                         @ ../../../../ThirdParty/ml-embedded-evaluation-kit/source/math/PlatformMath.cc:301:9
	beq	.LBB12_21
.Ltmp248:
@ %bb.20:                               @   in Loop: Header=BB12_17 Depth=1
	@DEBUG_VALUE: SoftmaxF32:sumExp <- $s0
	@DEBUG_VALUE: SoftmaxF32:maxValue <- $s16
	@DEBUG_VALUE: SoftmaxF32:vec <- [DW_OP_LLVM_entry_value 1] $r0
	@DEBUG_VALUE: it <- [DW_OP_plus_uconst 12, DW_OP_stack_value] undef
	.loc	1 302 20                        @ ../../../../ThirdParty/ml-embedded-evaluation-kit/source/math/PlatformMath.cc:302:20
	vldr	s2, [r0]
.Ltmp249:
	.loc	16 109 21                       @ C:\Keil_v5\ARM\ARMCLANG\bin\..\include\libcxx\__iterator/wrap_iter.h:109:21
	adds	r5, r0, #4
.Ltmp250:
	.loc	1 302 24                        @ ../../../../ThirdParty/ml-embedded-evaluation-kit/source/math/PlatformMath.cc:302:24
	vdiv.f32	s2, s2, s0
.Ltmp251:
	.loc	1 301 9                         @ ../../../../ThirdParty/ml-embedded-evaluation-kit/source/math/PlatformMath.cc:301:9
	cmp	r5, r4
.Ltmp252:
	.loc	1 302 17                        @ ../../../../ThirdParty/ml-embedded-evaluation-kit/source/math/PlatformMath.cc:302:17
	vstr	s2, [r0]
.Ltmp253:
	@DEBUG_VALUE: operator++:this <- undef
	@DEBUG_VALUE: operator==<float *>:__y <- undef
	@DEBUG_VALUE: operator==<float *>:__x <- undef
	@DEBUG_VALUE: operator!=<float *>:__y <- undef
	@DEBUG_VALUE: operator!=<float *>:__x <- undef
	@DEBUG_VALUE: it <- [DW_OP_plus_uconst 16, DW_OP_stack_value] $r5
	.loc	1 301 9                         @ ../../../../ThirdParty/ml-embedded-evaluation-kit/source/math/PlatformMath.cc:301:9
	bne	.LBB12_17
.Ltmp254:
.LBB12_21:
	@DEBUG_VALUE: SoftmaxF32:vec <- [DW_OP_LLVM_entry_value 1] $r0
	.loc	1 304 5 epilogue_begin          @ ../../../../ThirdParty/ml-embedded-evaluation-kit/source/math/PlatformMath.cc:304:5
	vpop	{d8}
	pop	{r4, r5, r6, pc}
.Ltmp255:
	.p2align	2
@ %bb.22:
	.loc	1 0 5 is_stmt 0                 @ ../../../../ThirdParty/ml-embedded-evaluation-kit/source/math/PlatformMath.cc:0:5
.LCPI12_0:
	.long	0x00000000                      @ float 0
.Lfunc_end12:
	.size	_ZN3arm3app4math9MathUtils10SoftmaxF32ERNSt3__26vectorIfNS3_9allocatorIfEEEE, .Lfunc_end12-_ZN3arm3app4math9MathUtils10SoftmaxF32ERNSt3__26vectorIfNS3_9allocatorIfEEEE
	.cfi_endproc
	.cantunwind
	.fnend
                                        @ -- End function
	.section	.text._ZN3arm3app4math9MathUtils10SigmoidF32Ef,"ax",%progbits
	.hidden	_ZN3arm3app4math9MathUtils10SigmoidF32Ef @ -- Begin function _ZN3arm3app4math9MathUtils10SigmoidF32Ef
	.globl	_ZN3arm3app4math9MathUtils10SigmoidF32Ef
	.p2align	2
	.type	_ZN3arm3app4math9MathUtils10SigmoidF32Ef,%function
	.code	16                              @ @_ZN3arm3app4math9MathUtils10SigmoidF32Ef
	.thumb_func
_ZN3arm3app4math9MathUtils10SigmoidF32Ef:
.Lfunc_begin13:
	.loc	1 307 0 is_stmt 1               @ ../../../../ThirdParty/ml-embedded-evaluation-kit/source/math/PlatformMath.cc:307:0
	.fnstart
	.cfi_startproc
@ %bb.0:
	@DEBUG_VALUE: SigmoidF32:x <- $s0
	.save	{r7, lr}
	push	{r7, lr}
	.cfi_def_cfa_offset 8
	.cfi_offset lr, -4
	.cfi_offset r7, -8
.Ltmp256:
	.loc	1 308 36 prologue_end           @ ../../../../ThirdParty/ml-embedded-evaluation-kit/source/math/PlatformMath.cc:308:36
	vneg.f32	s0, s0
.Ltmp257:
	@DEBUG_VALUE: SigmoidF32:x <- [DW_OP_LLVM_entry_value 1] $s0
	@DEBUG_VALUE: exp:__x <- $s0
	.loc	25 29 70                        @ C:\Keil_v5\ARM\ARMCLANG\bin\..\include\libcxx\__math/exponential_functions.h:29:70
	bl	__hardfp_expf
.Ltmp258:
	.loc	25 0 70 is_stmt 0               @ C:\Keil_v5\ARM\ARMCLANG\bin\..\include\libcxx\__math/exponential_functions.h:0:70
	vmov.f32	s2, #1.000000e+00
.Ltmp259:
	.loc	1 308 25 is_stmt 1              @ ../../../../ThirdParty/ml-embedded-evaluation-kit/source/math/PlatformMath.cc:308:25
	vadd.f32	s0, s0, s2
	.loc	1 308 19 is_stmt 0              @ ../../../../ThirdParty/ml-embedded-evaluation-kit/source/math/PlatformMath.cc:308:19
	vdiv.f32	s0, s2, s0
	.loc	1 308 9 epilogue_begin          @ ../../../../ThirdParty/ml-embedded-evaluation-kit/source/math/PlatformMath.cc:308:9
	pop	{r7, pc}
.Ltmp260:
.Lfunc_end13:
	.size	_ZN3arm3app4math9MathUtils10SigmoidF32Ef, .Lfunc_end13-_ZN3arm3app4math9MathUtils10SigmoidF32Ef
	.cfi_endproc
	.cantunwind
	.fnend
                                        @ -- End function
	.section	.text._ZNSt3__26vectorIfNS_9allocatorIfEEE18__assign_with_sizeB8nn190000IPfS5_EEvT_T0_i,"axG",%progbits,_ZNSt3__26vectorIfNS_9allocatorIfEEE18__assign_with_sizeB8nn190000IPfS5_EEvT_T0_i,comdat
	.hidden	_ZNSt3__26vectorIfNS_9allocatorIfEEE18__assign_with_sizeB8nn190000IPfS5_EEvT_T0_i @ -- Begin function _ZNSt3__26vectorIfNS_9allocatorIfEEE18__assign_with_sizeB8nn190000IPfS5_EEvT_T0_i
	.weak	_ZNSt3__26vectorIfNS_9allocatorIfEEE18__assign_with_sizeB8nn190000IPfS5_EEvT_T0_i
	.p2align	2
	.type	_ZNSt3__26vectorIfNS_9allocatorIfEEE18__assign_with_sizeB8nn190000IPfS5_EEvT_T0_i,%function
	.code	16                              @ @_ZNSt3__26vectorIfNS_9allocatorIfEEE18__assign_with_sizeB8nn190000IPfS5_EEvT_T0_i
	.thumb_func
_ZNSt3__26vectorIfNS_9allocatorIfEEE18__assign_with_sizeB8nn190000IPfS5_EEvT_T0_i:
.Lfunc_begin14:
	.loc	2 1349 0 is_stmt 1              @ C:\Keil_v5\ARM\ARMCLANG\bin\..\include\libcxx\vector:1349:0
	.fnstart
	.cfi_startproc
@ %bb.0:
	@DEBUG_VALUE: __assign_with_size<float *, float *>:this <- $r0
	@DEBUG_VALUE: __assign_with_size<float *, float *>:__first <- $r1
	@DEBUG_VALUE: __assign_with_size<float *, float *>:__last <- $r2
	@DEBUG_VALUE: __assign_with_size<float *, float *>:__n <- $r3
	@DEBUG_VALUE: capacity:this <- $r0
	@DEBUG_VALUE: __end_cap:this <- $r0
	.save	{r4, r5, r6, r7, r8, lr}
	push.w	{r4, r5, r6, r7, r8, lr}
	.cfi_def_cfa_offset 24
	.cfi_offset lr, -4
	.cfi_offset r8, -8
	.cfi_offset r7, -12
	.cfi_offset r6, -16
	.cfi_offset r5, -20
	.cfi_offset r4, -24
.Ltmp261:
	@DEBUG_VALUE: __assign_with_size<float *, float *>:__new_size <- $r3
	mov	r4, r0
.Ltmp262:
	@DEBUG_VALUE: __end_cap:this <- $r4
	@DEBUG_VALUE: capacity:this <- $r4
	@DEBUG_VALUE: __assign_with_size<float *, float *>:this <- $r4
	.loc	2 598 55 prologue_end           @ C:\Keil_v5\ARM\ARMCLANG\bin\..\include\libcxx\vector:598:55
	ldr	r7, [r0]
	.loc	2 598 35 is_stmt 0              @ C:\Keil_v5\ARM\ARMCLANG\bin\..\include\libcxx\vector:598:35
	ldr	r0, [r0, #8]
	mov	r6, r3
.Ltmp263:
	@DEBUG_VALUE: __assign_with_size<float *, float *>:__n <- $r6
	@DEBUG_VALUE: __assign_with_size<float *, float *>:__new_size <- $r6
	@DEBUG_VALUE: __assign_with_size<float *, float *>:__n <- $r6
	.loc	2 0 35                          @ C:\Keil_v5\ARM\ARMCLANG\bin\..\include\libcxx\vector:0:35
	mov	r8, r2
.Ltmp264:
	@DEBUG_VALUE: __assign_with_size<float *, float *>:__last <- $r8
	@DEBUG_VALUE: __assign_with_size<float *, float *>:__last <- $r8
	mov	r5, r1
.Ltmp265:
	@DEBUG_VALUE: __assign_with_size<float *, float *>:__first <- $r5
	@DEBUG_VALUE: __assign_with_size<float *, float *>:__first <- $r5
	.loc	2 598 47                        @ C:\Keil_v5\ARM\ARMCLANG\bin\..\include\libcxx\vector:598:47
	subs	r3, r0, r7
.Ltmp266:
	.loc	2 1351 7 is_stmt 1              @ C:\Keil_v5\ARM\ARMCLANG\bin\..\include\libcxx\vector:1351:7
	cmp.w	r6, r3, asr #2
	bls	.LBB14_7
.Ltmp267:
@ %bb.1:
	@DEBUG_VALUE: __assign_with_size<float *, float *>:__first <- $r5
	@DEBUG_VALUE: __assign_with_size<float *, float *>:__last <- $r8
	@DEBUG_VALUE: __assign_with_size<float *, float *>:__new_size <- $r6
	@DEBUG_VALUE: __assign_with_size<float *, float *>:__n <- $r6
	@DEBUG_VALUE: __assign_with_size<float *, float *>:this <- $r4
	@DEBUG_VALUE: __vdeallocate:this <- $r4
	.loc	2 1037 7                        @ C:\Keil_v5\ARM\ARMCLANG\bin\..\include\libcxx\vector:1037:7
	cbz	r7, .LBB14_3
.Ltmp268:
@ %bb.2:
	@DEBUG_VALUE: __vdeallocate:this <- $r4
	@DEBUG_VALUE: __assign_with_size<float *, float *>:__first <- $r5
	@DEBUG_VALUE: __assign_with_size<float *, float *>:__last <- $r8
	@DEBUG_VALUE: __assign_with_size<float *, float *>:__new_size <- $r6
	@DEBUG_VALUE: __assign_with_size<float *, float *>:__n <- $r6
	@DEBUG_VALUE: __assign_with_size<float *, float *>:this <- $r4
	@DEBUG_VALUE: clear:this <- $r4
	@DEBUG_VALUE: size:this <- $r4
	@DEBUG_VALUE: clear:__old_size <- undef
	@DEBUG_VALUE: __clear:this <- $r4
	@DEBUG_VALUE: __base_destruct_at_end:this <- $r4
	@DEBUG_VALUE: __base_destruct_at_end:__new_last <- $r7
	@DEBUG_VALUE: __base_destruct_at_end:__soon_to_be_end <- undef
	.loc	4 287 3                         @ C:\Keil_v5\ARM\ARMCLANG\bin\..\include\libcxx\new:287:3
	mov	r0, r7
	mov	r1, r3
.Ltmp269:
	.loc	2 927 18                        @ C:\Keil_v5\ARM\ARMCLANG\bin\..\include\libcxx\vector:927:18
	str	r7, [r4, #4]
.Ltmp270:
	@DEBUG_VALUE: __libcpp_operator_delete<void *, unsigned int>:__args <- $r3
	@DEBUG_VALUE: __libcpp_operator_delete<void *, unsigned int>:__args <- $r7
	@DEBUG_VALUE: __do_deallocate_handle_size<>:__size <- $r3
	@DEBUG_VALUE: __do_deallocate_handle_size<>:__ptr <- $r7
	@DEBUG_VALUE: __libcpp_deallocate:__align <- 4
	@DEBUG_VALUE: __libcpp_deallocate:__size <- $r3
	@DEBUG_VALUE: __libcpp_deallocate:__ptr <- $r7
	@DEBUG_VALUE: deallocate:__n <- [DW_OP_constu 2, DW_OP_shra, DW_OP_stack_value] $r3
	@DEBUG_VALUE: deallocate:__p <- $r7
	@DEBUG_VALUE: deallocate:this <- [DW_OP_plus_uconst 8, DW_OP_stack_value] $r4
	@DEBUG_VALUE: deallocate:__n <- [DW_OP_constu 2, DW_OP_shra, DW_OP_stack_value] $r3
	@DEBUG_VALUE: deallocate:__p <- $r7
	@DEBUG_VALUE: deallocate:__a <- [DW_OP_plus_uconst 8, DW_OP_stack_value] $r4
	@DEBUG_VALUE: __end_cap:this <- $r4
	@DEBUG_VALUE: capacity:this <- $r4
	.loc	4 287 3                         @ C:\Keil_v5\ARM\ARMCLANG\bin\..\include\libcxx\new:287:3
	bl	_ZdlPvj
.Ltmp271:
	.loc	4 0 3 is_stmt 0                 @ C:\Keil_v5\ARM\ARMCLANG\bin\..\include\libcxx\new:0:3
	movs	r0, #0
.Ltmp272:
	.loc	2 1041 20 is_stmt 1             @ C:\Keil_v5\ARM\ARMCLANG\bin\..\include\libcxx\vector:1041:20
	strd	r0, r0, [r4]
	.loc	2 1041 55 is_stmt 0             @ C:\Keil_v5\ARM\ARMCLANG\bin\..\include\libcxx\vector:1041:55
	str	r0, [r4, #8]
.Ltmp273:
.LBB14_3:
	@DEBUG_VALUE: __assign_with_size<float *, float *>:__first <- $r5
	@DEBUG_VALUE: __assign_with_size<float *, float *>:__last <- $r8
	@DEBUG_VALUE: __assign_with_size<float *, float *>:__new_size <- $r6
	@DEBUG_VALUE: __assign_with_size<float *, float *>:__n <- $r6
	@DEBUG_VALUE: __assign_with_size<float *, float *>:this <- $r4
	@DEBUG_VALUE: __recommend:this <- $r4
	@DEBUG_VALUE: __recommend:__new_size <- $r6
	@DEBUG_VALUE: __recommend:__ms <- 1073741823
	.loc	2 1056 7 is_stmt 1              @ C:\Keil_v5\ARM\ARMCLANG\bin\..\include\libcxx\vector:1056:7
	cmp.w	r6, #1073741824
	bhs	.LBB14_16
.Ltmp274:
@ %bb.4:
	@DEBUG_VALUE: __recommend:__ms <- 1073741823
	@DEBUG_VALUE: __recommend:__new_size <- $r6
	@DEBUG_VALUE: __recommend:this <- $r4
	@DEBUG_VALUE: __assign_with_size<float *, float *>:__first <- $r5
	@DEBUG_VALUE: __assign_with_size<float *, float *>:__last <- $r8
	@DEBUG_VALUE: __assign_with_size<float *, float *>:__new_size <- $r6
	@DEBUG_VALUE: __assign_with_size<float *, float *>:__n <- $r6
	@DEBUG_VALUE: __assign_with_size<float *, float *>:this <- $r4
	@DEBUG_VALUE: capacity:this <- $r4
	@DEBUG_VALUE: __end_cap:this <- $r4
	@DEBUG_VALUE: __recommend:__cap <- [DW_OP_constu 2, DW_OP_shra, DW_OP_stack_value] $r0
	.loc	2 0 7 is_stmt 0                 @ C:\Keil_v5\ARM\ARMCLANG\bin\..\include\libcxx\vector:0:7
	movw	r1, #65532
	.loc	2 1059 7 is_stmt 1              @ C:\Keil_v5\ARM\ARMCLANG\bin\..\include\libcxx\vector:1059:7
	cmp.w	r6, r0, asr #1
	movt	r1, #32767
	it	lo
	asrlo	r6, r0, #1
.Ltmp275:
	@DEBUG_VALUE: __assign_with_size<float *, float *>:__n <- [DW_OP_LLVM_entry_value 1] $r3
	cmp	r0, r1
	it	hs
	mvnhs	r6, #-1073741824
.Ltmp276:
	@DEBUG_VALUE: __vallocate:this <- $r4
	@DEBUG_VALUE: __vallocate:__n <- $r6
	.loc	2 739 9                         @ C:\Keil_v5\ARM\ARMCLANG\bin\..\include\libcxx\vector:739:9
	cmp.w	r6, #1073741824
	bhs	.LBB14_16
.Ltmp277:
@ %bb.5:
	@DEBUG_VALUE: __vallocate:__n <- $r6
	@DEBUG_VALUE: __vallocate:this <- $r4
	@DEBUG_VALUE: __assign_with_size<float *, float *>:__n <- [DW_OP_LLVM_entry_value 1] $r3
	@DEBUG_VALUE: __assign_with_size<float *, float *>:__first <- $r5
	@DEBUG_VALUE: __assign_with_size<float *, float *>:__last <- $r8
	@DEBUG_VALUE: __assign_with_size<float *, float *>:this <- $r4
	@DEBUG_VALUE: __allocate_at_least<std::__2::allocator<float> >:__alloc <- [DW_OP_plus_uconst 8, DW_OP_stack_value] $r4
	@DEBUG_VALUE: __allocate_at_least<std::__2::allocator<float> >:__n <- $r6
	@DEBUG_VALUE: allocate:this <- [DW_OP_plus_uconst 8, DW_OP_stack_value] $r4
	@DEBUG_VALUE: allocate:__n <- $r6
	.loc	10 125 59                       @ C:\Keil_v5\ARM\ARMCLANG\bin\..\include\libcxx\__memory/allocator.h:125:59
	lsls	r0, r6, #2
.Ltmp278:
	@DEBUG_VALUE: __libcpp_allocate:__align <- 4
	@DEBUG_VALUE: __libcpp_operator_new<unsigned int>:__args <- $r0
	@DEBUG_VALUE: __libcpp_allocate:__size <- $r0
	.loc	4 278 10                        @ C:\Keil_v5\ARM\ARMCLANG\bin\..\include\libcxx\new:278:10
	bl	_Znwj
.Ltmp279:
	mov	r7, r0
.Ltmp280:
	@DEBUG_VALUE: __vallocate:__allocation <- [DW_OP_LLVM_fragment 32 32] $r6
	@DEBUG_VALUE: operator()<float, float, 0>:this <- undef
	@DEBUG_VALUE: __construct_at_end<float *, float *>:__n <- undef
	@DEBUG_VALUE: __construct_at_end<float *, float *>:__tx <- [DW_OP_LLVM_arg 0, DW_OP_LLVM_arg 0, DW_OP_constu 4, DW_OP_mul, DW_OP_plus, DW_OP_stack_value, DW_OP_LLVM_fragment 64 32] undef
	@DEBUG_VALUE: __vallocate:__allocation <- [DW_OP_LLVM_fragment 0 32] $r7
	.loc	2 744 34                        @ C:\Keil_v5\ARM\ARMCLANG\bin\..\include\libcxx\vector:744:34
	add.w	r0, r0, r6, lsl #2
.Ltmp281:
	.file	27 "C:\\Keil_v5\\ARM\\ARMCLANG\\bin\\..\\include\\libcxx\\__algorithm" "copy_move_common.h"
	.loc	27 64 49                        @ C:\Keil_v5\ARM\ARMCLANG\bin\..\include\libcxx\__algorithm/copy_move_common.h:64:49
	subs.w	r6, r8, r5
.Ltmp282:
	@DEBUG_VALUE: __copy_trivial_impl<float, float>:__n <- [DW_OP_constu 2, DW_OP_shra, DW_OP_stack_value] $r6
	.loc	2 742 23                        @ C:\Keil_v5\ARM\ARMCLANG\bin\..\include\libcxx\vector:742:23
	strd	r7, r7, [r4]
.Ltmp283:
	@DEBUG_VALUE: __copy_trivial_impl<float, float>:__last <- $r8
	@DEBUG_VALUE: __copy_trivial_impl<float, float>:__first <- $r5
	@DEBUG_VALUE: operator()<float, float, 0>:__last <- $r8
	@DEBUG_VALUE: operator()<float, float, 0>:__first <- $r5
	@DEBUG_VALUE: __unwrap_and_dispatch<std::__2::__overload<std::__2::__copy_loop<std::__2::_ClassicAlgPolicy>, std::__2::__copy_trivial>, float *, float *, float *, 0>:__range <- [DW_OP_LLVM_fragment 32 32] $r8
	@DEBUG_VALUE: __unwrap_and_dispatch<std::__2::__overload<std::__2::__copy_loop<std::__2::_ClassicAlgPolicy>, std::__2::__copy_trivial>, float *, float *, float *, 0>:__range <- [DW_OP_LLVM_fragment 0 32] $r5
	@DEBUG_VALUE: __unwrap_and_dispatch<std::__2::__overload<std::__2::__copy_loop<std::__2::_ClassicAlgPolicy>, std::__2::__copy_trivial>, float *, float *, float *, 0>:__last <- $r8
	@DEBUG_VALUE: __unwrap_and_dispatch<std::__2::__overload<std::__2::__copy_loop<std::__2::_ClassicAlgPolicy>, std::__2::__copy_trivial>, float *, float *, float *, 0>:__first <- $r5
	@DEBUG_VALUE: __dispatch_copy_or_move<std::__2::_ClassicAlgPolicy, std::__2::__copy_loop<std::__2::_ClassicAlgPolicy>, std::__2::__copy_trivial, float *, float *, float *>:__last <- $r8
	@DEBUG_VALUE: __dispatch_copy_or_move<std::__2::_ClassicAlgPolicy, std::__2::__copy_loop<std::__2::_ClassicAlgPolicy>, std::__2::__copy_trivial, float *, float *, float *>:__first <- $r5
	@DEBUG_VALUE: __copy<std::__2::_ClassicAlgPolicy, float *, float *, float *>:__last <- $r8
	@DEBUG_VALUE: __copy<std::__2::_ClassicAlgPolicy, float *, float *, float *>:__first <- $r5
	@DEBUG_VALUE: copy<float *, float *>:__last <- $r8
	@DEBUG_VALUE: copy<float *, float *>:__first <- $r5
	@DEBUG_VALUE: __uninitialized_allocator_copy_impl<std::__2::allocator<float>, float, float, float, nullptr>:__last1 <- $r8
	@DEBUG_VALUE: __uninitialized_allocator_copy_impl<std::__2::allocator<float>, float, float, float, nullptr>:__first1 <- $r5
	@DEBUG_VALUE: __uninitialized_allocator_copy_impl<std::__2::allocator<float>, float, float, float, nullptr>: <- [DW_OP_plus_uconst 8, DW_OP_stack_value] $r4
	@DEBUG_VALUE: __uninitialized_allocator_copy<std::__2::allocator<float>, float *, float *, float *>:__unwrapped_range <- [DW_OP_LLVM_fragment 32 32] $r8
	@DEBUG_VALUE: __uninitialized_allocator_copy<std::__2::allocator<float>, float *, float *, float *>:__unwrapped_range <- [DW_OP_LLVM_fragment 0 32] $r5
	@DEBUG_VALUE: __uninitialized_allocator_copy<std::__2::allocator<float>, float *, float *, float *>:__last1 <- $r8
	@DEBUG_VALUE: __uninitialized_allocator_copy<std::__2::allocator<float>, float *, float *, float *>:__first1 <- $r5
	@DEBUG_VALUE: __uninitialized_allocator_copy<std::__2::allocator<float>, float *, float *, float *>:__alloc <- [DW_OP_plus_uconst 8, DW_OP_stack_value] $r4
	@DEBUG_VALUE: __construct_at_end<float *, float *>:__tx <- [DW_OP_LLVM_fragment 0 32] $r4
	@DEBUG_VALUE: __construct_at_end<float *, float *>:__last <- $r8
	@DEBUG_VALUE: __construct_at_end<float *, float *>:__first <- $r5
	@DEBUG_VALUE: __construct_at_end<float *, float *>:this <- $r4
	@DEBUG_VALUE: __copy_trivial_impl<float, float>:__result <- $r7
	@DEBUG_VALUE: operator()<float, float, 0>:__result <- $r7
	@DEBUG_VALUE: __unwrap_and_dispatch<std::__2::__overload<std::__2::__copy_loop<std::__2::_ClassicAlgPolicy>, std::__2::__copy_trivial>, float *, float *, float *, 0>:__out_first <- $r7
	@DEBUG_VALUE: __dispatch_copy_or_move<std::__2::_ClassicAlgPolicy, std::__2::__copy_loop<std::__2::_ClassicAlgPolicy>, std::__2::__copy_trivial, float *, float *, float *>:__out_first <- $r7
	@DEBUG_VALUE: __copy<std::__2::_ClassicAlgPolicy, float *, float *, float *>:__result <- $r7
	@DEBUG_VALUE: copy<float *, float *>:__result <- $r7
	@DEBUG_VALUE: __uninitialized_allocator_copy_impl<std::__2::allocator<float>, float, float, float, nullptr>:__first2 <- $r7
	@DEBUG_VALUE: __uninitialized_allocator_copy<std::__2::allocator<float>, float *, float *, float *>:__first2 <- $r7
	@DEBUG_VALUE: __construct_at_end<float *, float *>:__tx <- [DW_OP_LLVM_fragment 32 32] $r7
	.loc	2 744 23                        @ C:\Keil_v5\ARM\ARMCLANG\bin\..\include\libcxx\vector:744:23
	str	r0, [r4, #8]
.Ltmp284:
	@DEBUG_VALUE: __constexpr_memmove<float, float, 0>:__src <- $r5
	@DEBUG_VALUE: __constexpr_memmove<float, float, 0>:__count <- [DW_OP_constu 2, DW_OP_shra, DW_OP_stack_value] $r6
	@DEBUG_VALUE: __constexpr_memmove<float, float, 0>:__n <- [DW_OP_constu 2, DW_OP_shra, DW_OP_stack_value] $r6
	@DEBUG_VALUE: __constexpr_memmove<float, float, 0>:__dest <- $r7
	@DEBUG_VALUE: __construct_at_end<float *, float *>:__tx <- [DW_OP_LLVM_fragment 0 32] $r4
	.loc	8 211 14                        @ C:\Keil_v5\ARM\ARMCLANG\bin\..\include\libcxx\__string/constexpr_c_functions.h:211:14
	beq	.LBB14_15
.Ltmp285:
@ %bb.6:
	@DEBUG_VALUE: __constexpr_memmove<float, float, 0>:__dest <- $r7
	@DEBUG_VALUE: __constexpr_memmove<float, float, 0>:__n <- [DW_OP_constu 2, DW_OP_shra, DW_OP_stack_value] $r6
	@DEBUG_VALUE: __constexpr_memmove<float, float, 0>:__count <- [DW_OP_constu 2, DW_OP_shra, DW_OP_stack_value] $r6
	@DEBUG_VALUE: __constexpr_memmove<float, float, 0>:__src <- $r5
	@DEBUG_VALUE: __construct_at_end<float *, float *>:__tx <- [DW_OP_LLVM_fragment 32 32] $r7
	@DEBUG_VALUE: __uninitialized_allocator_copy<std::__2::allocator<float>, float *, float *, float *>:__first2 <- $r7
	@DEBUG_VALUE: __uninitialized_allocator_copy_impl<std::__2::allocator<float>, float, float, float, nullptr>:__first2 <- $r7
	@DEBUG_VALUE: copy<float *, float *>:__result <- $r7
	@DEBUG_VALUE: __copy<std::__2::_ClassicAlgPolicy, float *, float *, float *>:__result <- $r7
	@DEBUG_VALUE: __dispatch_copy_or_move<std::__2::_ClassicAlgPolicy, std::__2::__copy_loop<std::__2::_ClassicAlgPolicy>, std::__2::__copy_trivial, float *, float *, float *>:__out_first <- $r7
	@DEBUG_VALUE: __unwrap_and_dispatch<std::__2::__overload<std::__2::__copy_loop<std::__2::_ClassicAlgPolicy>, std::__2::__copy_trivial>, float *, float *, float *, 0>:__out_first <- $r7
	@DEBUG_VALUE: operator()<float, float, 0>:__result <- $r7
	@DEBUG_VALUE: __copy_trivial_impl<float, float>:__result <- $r7
	@DEBUG_VALUE: __construct_at_end<float *, float *>:this <- $r4
	@DEBUG_VALUE: __construct_at_end<float *, float *>:__first <- $r5
	@DEBUG_VALUE: __construct_at_end<float *, float *>:__last <- $r8
	@DEBUG_VALUE: __construct_at_end<float *, float *>:__tx <- [DW_OP_LLVM_fragment 0 32] $r4
	@DEBUG_VALUE: __uninitialized_allocator_copy<std::__2::allocator<float>, float *, float *, float *>:__alloc <- [DW_OP_plus_uconst 8, DW_OP_stack_value] $r4
	@DEBUG_VALUE: __uninitialized_allocator_copy<std::__2::allocator<float>, float *, float *, float *>:__first1 <- $r5
	@DEBUG_VALUE: __uninitialized_allocator_copy<std::__2::allocator<float>, float *, float *, float *>:__last1 <- $r8
	@DEBUG_VALUE: __uninitialized_allocator_copy<std::__2::allocator<float>, float *, float *, float *>:__unwrapped_range <- [DW_OP_LLVM_fragment 0 32] $r5
	@DEBUG_VALUE: __uninitialized_allocator_copy<std::__2::allocator<float>, float *, float *, float *>:__unwrapped_range <- [DW_OP_LLVM_fragment 32 32] $r8
	@DEBUG_VALUE: __uninitialized_allocator_copy_impl<std::__2::allocator<float>, float, float, float, nullptr>: <- [DW_OP_plus_uconst 8, DW_OP_stack_value] $r4
	@DEBUG_VALUE: __uninitialized_allocator_copy_impl<std::__2::allocator<float>, float, float, float, nullptr>:__first1 <- $r5
	@DEBUG_VALUE: __uninitialized_allocator_copy_impl<std::__2::allocator<float>, float, float, float, nullptr>:__last1 <- $r8
	@DEBUG_VALUE: copy<float *, float *>:__first <- $r5
	@DEBUG_VALUE: copy<float *, float *>:__last <- $r8
	@DEBUG_VALUE: __copy<std::__2::_ClassicAlgPolicy, float *, float *, float *>:__first <- $r5
	@DEBUG_VALUE: __copy<std::__2::_ClassicAlgPolicy, float *, float *, float *>:__last <- $r8
	@DEBUG_VALUE: __dispatch_copy_or_move<std::__2::_ClassicAlgPolicy, std::__2::__copy_loop<std::__2::_ClassicAlgPolicy>, std::__2::__copy_trivial, float *, float *, float *>:__first <- $r5
	@DEBUG_VALUE: __dispatch_copy_or_move<std::__2::_ClassicAlgPolicy, std::__2::__copy_loop<std::__2::_ClassicAlgPolicy>, std::__2::__copy_trivial, float *, float *, float *>:__last <- $r8
	@DEBUG_VALUE: __unwrap_and_dispatch<std::__2::__overload<std::__2::__copy_loop<std::__2::_ClassicAlgPolicy>, std::__2::__copy_trivial>, float *, float *, float *, 0>:__first <- $r5
	@DEBUG_VALUE: __unwrap_and_dispatch<std::__2::__overload<std::__2::__copy_loop<std::__2::_ClassicAlgPolicy>, std::__2::__copy_trivial>, float *, float *, float *, 0>:__last <- $r8
	@DEBUG_VALUE: __unwrap_and_dispatch<std::__2::__overload<std::__2::__copy_loop<std::__2::_ClassicAlgPolicy>, std::__2::__copy_trivial>, float *, float *, float *, 0>:__range <- [DW_OP_LLVM_fragment 0 32] $r5
	@DEBUG_VALUE: __unwrap_and_dispatch<std::__2::__overload<std::__2::__copy_loop<std::__2::_ClassicAlgPolicy>, std::__2::__copy_trivial>, float *, float *, float *, 0>:__range <- [DW_OP_LLVM_fragment 32 32] $r8
	@DEBUG_VALUE: operator()<float, float, 0>:__first <- $r5
	@DEBUG_VALUE: operator()<float, float, 0>:__last <- $r8
	@DEBUG_VALUE: __copy_trivial_impl<float, float>:__first <- $r5
	@DEBUG_VALUE: __copy_trivial_impl<float, float>:__last <- $r8
	@DEBUG_VALUE: __copy_trivial_impl<float, float>:__n <- [DW_OP_constu 2, DW_OP_shra, DW_OP_stack_value] $r6
	@DEBUG_VALUE: __assign_with_size<float *, float *>:__n <- [DW_OP_LLVM_entry_value 1] $r3
	@DEBUG_VALUE: __assign_with_size<float *, float *>:__first <- $r5
	@DEBUG_VALUE: __assign_with_size<float *, float *>:__last <- $r8
	@DEBUG_VALUE: __assign_with_size<float *, float *>:this <- $r4
	.loc	8 212 5                         @ C:\Keil_v5\ARM\ARMCLANG\bin\..\include\libcxx\__string/constexpr_c_functions.h:212:5
	mov	r0, r7
	mov	r1, r5
	mov	r2, r6
	bl	__aeabi_memcpy4
.Ltmp286:
	.loc	8 0 5 is_stmt 0                 @ C:\Keil_v5\ARM\ARMCLANG\bin\..\include\libcxx\__string/constexpr_c_functions.h:0:5
	b	.LBB14_15
.Ltmp287:
.LBB14_7:
	@DEBUG_VALUE: __assign_with_size<float *, float *>:__first <- $r5
	@DEBUG_VALUE: __assign_with_size<float *, float *>:__last <- $r8
	@DEBUG_VALUE: __assign_with_size<float *, float *>:__new_size <- $r6
	@DEBUG_VALUE: __assign_with_size<float *, float *>:__n <- $r6
	@DEBUG_VALUE: __assign_with_size<float *, float *>:this <- $r4
	@DEBUG_VALUE: size:this <- $r4
	.loc	2 595 41 is_stmt 1              @ C:\Keil_v5\ARM\ARMCLANG\bin\..\include\libcxx\vector:595:41
	ldr	r0, [r4, #4]
	.loc	2 595 48 is_stmt 0              @ C:\Keil_v5\ARM\ARMCLANG\bin\..\include\libcxx\vector:595:48
	subs	r2, r0, r7
.Ltmp288:
	.loc	2 1352 9 is_stmt 1              @ C:\Keil_v5\ARM\ARMCLANG\bin\..\include\libcxx\vector:1352:9
	cmp.w	r6, r2, asr #2
	bls	.LBB14_13
.Ltmp289:
@ %bb.8:
	@DEBUG_VALUE: __assign_with_size<float *, float *>:__first <- $r5
	@DEBUG_VALUE: __assign_with_size<float *, float *>:__last <- $r8
	@DEBUG_VALUE: __assign_with_size<float *, float *>:__new_size <- $r6
	@DEBUG_VALUE: __assign_with_size<float *, float *>:__n <- $r6
	@DEBUG_VALUE: __assign_with_size<float *, float *>:this <- $r4
	@DEBUG_VALUE: size:this <- $r4
	@DEBUG_VALUE: advance<float *, int, int, void>:__i <- undef
	@DEBUG_VALUE: __advance<float *>:__i <- undef
	.loc	8 211 14                        @ C:\Keil_v5\ARM\ARMCLANG\bin\..\include\libcxx\__string/constexpr_c_functions.h:211:14
	cmp	r0, r7
.Ltmp290:
	@DEBUG_VALUE: __advance<float *>:__n <- [DW_OP_constu 2, DW_OP_shra, DW_OP_stack_value] $r2
	@DEBUG_VALUE: advance<float *, int, int, void>:__n <- [DW_OP_constu 2, DW_OP_shra, DW_OP_stack_value] $r2
	@DEBUG_VALUE: advance<float *, int, int, void>:__orig_n <- [DW_OP_constu 2, DW_OP_shra, DW_OP_stack_value] $r2
	@DEBUG_VALUE: next<float *, 0>:__n <- [DW_OP_constu 2, DW_OP_shra, DW_OP_stack_value] $r2
	@DEBUG_VALUE: next<float *, 0>:__x <- $r5
	.loc	15 58 7                         @ C:\Keil_v5\ARM\ARMCLANG\bin\..\include\libcxx\__iterator/advance.h:58:7
	add.w	r6, r5, r2
.Ltmp291:
	@DEBUG_VALUE: __assign_with_size<float *, float *>:__n <- [DW_OP_LLVM_entry_value 1] $r3
	@DEBUG_VALUE: __constexpr_memmove<float, float, 0>:__src <- $r5
	@DEBUG_VALUE: __constexpr_memmove<float, float, 0>:__dest <- $r7
	@DEBUG_VALUE: __copy_trivial_impl<float, float>:__result <- $r7
	@DEBUG_VALUE: __copy_trivial_impl<float, float>:__first <- $r5
	@DEBUG_VALUE: operator()<float, float, 0>:__result <- $r7
	@DEBUG_VALUE: operator()<float, float, 0>:__first <- $r5
	@DEBUG_VALUE: operator()<float, float, 0>:this <- undef
	@DEBUG_VALUE: __unwrap_and_dispatch<std::__2::__overload<std::__2::__copy_loop<std::__2::_ClassicAlgPolicy>, std::__2::__copy_trivial>, float *, float *, float *, 0>:__range <- [DW_OP_LLVM_fragment 0 32] $r5
	@DEBUG_VALUE: __unwrap_and_dispatch<std::__2::__overload<std::__2::__copy_loop<std::__2::_ClassicAlgPolicy>, std::__2::__copy_trivial>, float *, float *, float *, 0>:__out_first <- $r7
	@DEBUG_VALUE: __unwrap_and_dispatch<std::__2::__overload<std::__2::__copy_loop<std::__2::_ClassicAlgPolicy>, std::__2::__copy_trivial>, float *, float *, float *, 0>:__first <- $r5
	@DEBUG_VALUE: __dispatch_copy_or_move<std::__2::_ClassicAlgPolicy, std::__2::__copy_loop<std::__2::_ClassicAlgPolicy>, std::__2::__copy_trivial, float *, float *, float *>:__out_first <- $r7
	@DEBUG_VALUE: __dispatch_copy_or_move<std::__2::_ClassicAlgPolicy, std::__2::__copy_loop<std::__2::_ClassicAlgPolicy>, std::__2::__copy_trivial, float *, float *, float *>:__first <- $r5
	@DEBUG_VALUE: __copy<std::__2::_ClassicAlgPolicy, float *, float *, float *>:__result <- $r7
	@DEBUG_VALUE: __copy<std::__2::_ClassicAlgPolicy, float *, float *, float *>:__first <- $r5
	@DEBUG_VALUE: copy<float *, float *>:__result <- $r7
	@DEBUG_VALUE: copy<float *, float *>:__first <- $r5
	@DEBUG_VALUE: __constexpr_memmove<float, float, 0>:__count <- [DW_OP_LLVM_arg 0, DW_OP_LLVM_arg 1, DW_OP_minus, DW_OP_constu 2, DW_OP_shra, DW_OP_stack_value] $r6, $r5
	@DEBUG_VALUE: __constexpr_memmove<float, float, 0>:__n <- [DW_OP_LLVM_arg 0, DW_OP_LLVM_arg 1, DW_OP_minus, DW_OP_constu 2, DW_OP_shra, DW_OP_stack_value] $r6, $r5
	@DEBUG_VALUE: __copy_trivial_impl<float, float>:__n <- [DW_OP_LLVM_arg 0, DW_OP_LLVM_arg 1, DW_OP_minus, DW_OP_constu 2, DW_OP_shra, DW_OP_stack_value] $r6, $r5
	@DEBUG_VALUE: __copy_trivial_impl<float, float>:__last <- $r6
	@DEBUG_VALUE: operator()<float, float, 0>:__last <- $r6
	@DEBUG_VALUE: __unwrap_and_dispatch<std::__2::__overload<std::__2::__copy_loop<std::__2::_ClassicAlgPolicy>, std::__2::__copy_trivial>, float *, float *, float *, 0>:__range <- [DW_OP_LLVM_fragment 32 32] $r6
	@DEBUG_VALUE: __unwrap_and_dispatch<std::__2::__overload<std::__2::__copy_loop<std::__2::_ClassicAlgPolicy>, std::__2::__copy_trivial>, float *, float *, float *, 0>:__last <- $r6
	@DEBUG_VALUE: __dispatch_copy_or_move<std::__2::_ClassicAlgPolicy, std::__2::__copy_loop<std::__2::_ClassicAlgPolicy>, std::__2::__copy_trivial, float *, float *, float *>:__last <- $r6
	@DEBUG_VALUE: __copy<std::__2::_ClassicAlgPolicy, float *, float *, float *>:__last <- $r6
	@DEBUG_VALUE: copy<float *, float *>:__last <- $r6
	@DEBUG_VALUE: __mid <- $r6
	@DEBUG_VALUE: next<float *, 0>:__x <- $r6
	.loc	8 211 14                        @ C:\Keil_v5\ARM\ARMCLANG\bin\..\include\libcxx\__string/constexpr_c_functions.h:211:14
	beq	.LBB14_10
.Ltmp292:
@ %bb.9:
	@DEBUG_VALUE: __mid <- $r6
	@DEBUG_VALUE: copy<float *, float *>:__last <- $r6
	@DEBUG_VALUE: __copy<std::__2::_ClassicAlgPolicy, float *, float *, float *>:__last <- $r6
	@DEBUG_VALUE: __dispatch_copy_or_move<std::__2::_ClassicAlgPolicy, std::__2::__copy_loop<std::__2::_ClassicAlgPolicy>, std::__2::__copy_trivial, float *, float *, float *>:__last <- $r6
	@DEBUG_VALUE: __unwrap_and_dispatch<std::__2::__overload<std::__2::__copy_loop<std::__2::_ClassicAlgPolicy>, std::__2::__copy_trivial>, float *, float *, float *, 0>:__last <- $r6
	@DEBUG_VALUE: __unwrap_and_dispatch<std::__2::__overload<std::__2::__copy_loop<std::__2::_ClassicAlgPolicy>, std::__2::__copy_trivial>, float *, float *, float *, 0>:__range <- [DW_OP_LLVM_fragment 32 32] $r6
	@DEBUG_VALUE: operator()<float, float, 0>:__last <- $r6
	@DEBUG_VALUE: __copy_trivial_impl<float, float>:__last <- $r6
	@DEBUG_VALUE: __copy_trivial_impl<float, float>:__n <- [DW_OP_LLVM_arg 0, DW_OP_LLVM_arg 1, DW_OP_minus, DW_OP_constu 2, DW_OP_shra, DW_OP_stack_value] $r6, $r5
	@DEBUG_VALUE: __constexpr_memmove<float, float, 0>:__n <- [DW_OP_LLVM_arg 0, DW_OP_LLVM_arg 1, DW_OP_minus, DW_OP_constu 2, DW_OP_shra, DW_OP_stack_value] $r6, $r5
	@DEBUG_VALUE: __constexpr_memmove<float, float, 0>:__count <- [DW_OP_LLVM_arg 0, DW_OP_LLVM_arg 1, DW_OP_minus, DW_OP_constu 2, DW_OP_shra, DW_OP_stack_value] $r6, $r5
	@DEBUG_VALUE: copy<float *, float *>:__first <- $r5
	@DEBUG_VALUE: copy<float *, float *>:__result <- $r7
	@DEBUG_VALUE: __copy<std::__2::_ClassicAlgPolicy, float *, float *, float *>:__first <- $r5
	@DEBUG_VALUE: __copy<std::__2::_ClassicAlgPolicy, float *, float *, float *>:__result <- $r7
	@DEBUG_VALUE: __dispatch_copy_or_move<std::__2::_ClassicAlgPolicy, std::__2::__copy_loop<std::__2::_ClassicAlgPolicy>, std::__2::__copy_trivial, float *, float *, float *>:__first <- $r5
	@DEBUG_VALUE: __dispatch_copy_or_move<std::__2::_ClassicAlgPolicy, std::__2::__copy_loop<std::__2::_ClassicAlgPolicy>, std::__2::__copy_trivial, float *, float *, float *>:__out_first <- $r7
	@DEBUG_VALUE: __unwrap_and_dispatch<std::__2::__overload<std::__2::__copy_loop<std::__2::_ClassicAlgPolicy>, std::__2::__copy_trivial>, float *, float *, float *, 0>:__first <- $r5
	@DEBUG_VALUE: __unwrap_and_dispatch<std::__2::__overload<std::__2::__copy_loop<std::__2::_ClassicAlgPolicy>, std::__2::__copy_trivial>, float *, float *, float *, 0>:__out_first <- $r7
	@DEBUG_VALUE: __unwrap_and_dispatch<std::__2::__overload<std::__2::__copy_loop<std::__2::_ClassicAlgPolicy>, std::__2::__copy_trivial>, float *, float *, float *, 0>:__range <- [DW_OP_LLVM_fragment 0 32] $r5
	@DEBUG_VALUE: operator()<float, float, 0>:__first <- $r5
	@DEBUG_VALUE: operator()<float, float, 0>:__result <- $r7
	@DEBUG_VALUE: __copy_trivial_impl<float, float>:__first <- $r5
	@DEBUG_VALUE: __copy_trivial_impl<float, float>:__result <- $r7
	@DEBUG_VALUE: __constexpr_memmove<float, float, 0>:__dest <- $r7
	@DEBUG_VALUE: __constexpr_memmove<float, float, 0>:__src <- $r5
	@DEBUG_VALUE: __assign_with_size<float *, float *>:__n <- [DW_OP_LLVM_entry_value 1] $r3
	@DEBUG_VALUE: __assign_with_size<float *, float *>:__first <- $r5
	@DEBUG_VALUE: __assign_with_size<float *, float *>:__last <- $r8
	@DEBUG_VALUE: __assign_with_size<float *, float *>:this <- $r4
	@DEBUG_VALUE: next<float *, 0>:__n <- [DW_OP_constu 2, DW_OP_shra, DW_OP_stack_value] $r2
	@DEBUG_VALUE: advance<float *, int, int, void>:__orig_n <- [DW_OP_constu 2, DW_OP_shra, DW_OP_stack_value] $r2
	@DEBUG_VALUE: advance<float *, int, int, void>:__n <- [DW_OP_constu 2, DW_OP_shra, DW_OP_stack_value] $r2
	@DEBUG_VALUE: __advance<float *>:__n <- [DW_OP_constu 2, DW_OP_shra, DW_OP_stack_value] $r2
	@DEBUG_VALUE: __copy_trivial_impl<float, float>:__n <- [DW_OP_constu 2, DW_OP_shra, DW_OP_stack_value] $r2
	@DEBUG_VALUE: __constexpr_memmove<float, float, 0>:__n <- [DW_OP_constu 2, DW_OP_shra, DW_OP_stack_value] $r2
	@DEBUG_VALUE: __constexpr_memmove<float, float, 0>:__count <- [DW_OP_constu 2, DW_OP_shra, DW_OP_stack_value] $r2
	.loc	8 212 5                         @ C:\Keil_v5\ARM\ARMCLANG\bin\..\include\libcxx\__string/constexpr_c_functions.h:212:5
	mov	r0, r7
	mov	r1, r5
	bl	__aeabi_memmove4
.Ltmp293:
	.loc	2 595 41                        @ C:\Keil_v5\ARM\ARMCLANG\bin\..\include\libcxx\vector:595:41
	ldr	r7, [r4, #4]
.Ltmp294:
.LBB14_10:
	@DEBUG_VALUE: __mid <- $r6
	@DEBUG_VALUE: __assign_with_size<float *, float *>:__n <- [DW_OP_LLVM_entry_value 1] $r3
	@DEBUG_VALUE: __assign_with_size<float *, float *>:__first <- $r5
	@DEBUG_VALUE: __assign_with_size<float *, float *>:__last <- $r8
	@DEBUG_VALUE: __assign_with_size<float *, float *>:this <- $r4
	@DEBUG_VALUE: __unwrap_and_dispatch<std::__2::__overload<std::__2::__copy_loop<std::__2::_ClassicAlgPolicy>, std::__2::__copy_trivial>, float *, float *, float *, 0>:__result <- [DW_OP_LLVM_fragment 0 32] $r6
	@DEBUG_VALUE: __unwrap_and_dispatch<std::__2::__overload<std::__2::__copy_loop<std::__2::_ClassicAlgPolicy>, std::__2::__copy_trivial>, float *, float *, float *, 0>:__result <- [DW_OP_LLVM_arg 0, DW_OP_LLVM_arg 0, DW_OP_LLVM_arg 0, DW_OP_minus, DW_OP_constu 1, DW_OP_mul, DW_OP_plus, DW_OP_stack_value, DW_OP_LLVM_fragment 32 32] undef
	@DEBUG_VALUE: size:this <- $r4
	@DEBUG_VALUE: __construct_at_end<float *, float *>:this <- $r4
	@DEBUG_VALUE: __construct_at_end<float *, float *>:__first <- $r6
	@DEBUG_VALUE: __construct_at_end<float *, float *>:__last <- $r8
	@DEBUG_VALUE: __construct_at_end<float *, float *>:__n <- undef
	@DEBUG_VALUE: __construct_at_end<float *, float *>:__tx <- [DW_OP_LLVM_fragment 0 32] $r4
	@DEBUG_VALUE: __construct_at_end<float *, float *>:__tx <- [DW_OP_LLVM_fragment 32 32] $r7
	@DEBUG_VALUE: __construct_at_end<float *, float *>:__tx <- [DW_OP_LLVM_fragment 64 32] undef
	@DEBUG_VALUE: __uninitialized_allocator_copy<std::__2::allocator<float>, float *, float *, float *>:__alloc <- [DW_OP_plus_uconst 8, DW_OP_stack_value] $r4
	@DEBUG_VALUE: __uninitialized_allocator_copy<std::__2::allocator<float>, float *, float *, float *>:__first1 <- $r6
	@DEBUG_VALUE: __uninitialized_allocator_copy<std::__2::allocator<float>, float *, float *, float *>:__last1 <- $r8
	@DEBUG_VALUE: __uninitialized_allocator_copy<std::__2::allocator<float>, float *, float *, float *>:__first2 <- $r7
	@DEBUG_VALUE: __uninitialized_allocator_copy<std::__2::allocator<float>, float *, float *, float *>:__unwrapped_range <- [DW_OP_LLVM_fragment 0 32] $r6
	@DEBUG_VALUE: __uninitialized_allocator_copy<std::__2::allocator<float>, float *, float *, float *>:__unwrapped_range <- [DW_OP_LLVM_fragment 32 32] $r8
	@DEBUG_VALUE: __uninitialized_allocator_copy_impl<std::__2::allocator<float>, float, float, float, nullptr>: <- [DW_OP_plus_uconst 8, DW_OP_stack_value] $r4
	@DEBUG_VALUE: __uninitialized_allocator_copy_impl<std::__2::allocator<float>, float, float, float, nullptr>:__first1 <- $r6
	@DEBUG_VALUE: __uninitialized_allocator_copy_impl<std::__2::allocator<float>, float, float, float, nullptr>:__last1 <- $r8
	@DEBUG_VALUE: __uninitialized_allocator_copy_impl<std::__2::allocator<float>, float, float, float, nullptr>:__first2 <- $r7
	@DEBUG_VALUE: copy<float *, float *>:__first <- $r6
	@DEBUG_VALUE: copy<float *, float *>:__last <- $r8
	@DEBUG_VALUE: copy<float *, float *>:__result <- $r7
	@DEBUG_VALUE: __copy<std::__2::_ClassicAlgPolicy, float *, float *, float *>:__first <- $r6
	@DEBUG_VALUE: __copy<std::__2::_ClassicAlgPolicy, float *, float *, float *>:__last <- $r8
	@DEBUG_VALUE: __copy<std::__2::_ClassicAlgPolicy, float *, float *, float *>:__result <- $r7
	@DEBUG_VALUE: __dispatch_copy_or_move<std::__2::_ClassicAlgPolicy, std::__2::__copy_loop<std::__2::_ClassicAlgPolicy>, std::__2::__copy_trivial, float *, float *, float *>:__first <- $r6
	@DEBUG_VALUE: __dispatch_copy_or_move<std::__2::_ClassicAlgPolicy, std::__2::__copy_loop<std::__2::_ClassicAlgPolicy>, std::__2::__copy_trivial, float *, float *, float *>:__last <- $r8
	@DEBUG_VALUE: __dispatch_copy_or_move<std::__2::_ClassicAlgPolicy, std::__2::__copy_loop<std::__2::_ClassicAlgPolicy>, std::__2::__copy_trivial, float *, float *, float *>:__out_first <- $r7
	@DEBUG_VALUE: __unwrap_and_dispatch<std::__2::__overload<std::__2::__copy_loop<std::__2::_ClassicAlgPolicy>, std::__2::__copy_trivial>, float *, float *, float *, 0>:__first <- $r6
	@DEBUG_VALUE: __unwrap_and_dispatch<std::__2::__overload<std::__2::__copy_loop<std::__2::_ClassicAlgPolicy>, std::__2::__copy_trivial>, float *, float *, float *, 0>:__last <- $r8
	@DEBUG_VALUE: __unwrap_and_dispatch<std::__2::__overload<std::__2::__copy_loop<std::__2::_ClassicAlgPolicy>, std::__2::__copy_trivial>, float *, float *, float *, 0>:__out_first <- $r7
	@DEBUG_VALUE: __unwrap_and_dispatch<std::__2::__overload<std::__2::__copy_loop<std::__2::_ClassicAlgPolicy>, std::__2::__copy_trivial>, float *, float *, float *, 0>:__range <- [DW_OP_LLVM_fragment 0 32] $r6
	@DEBUG_VALUE: __unwrap_and_dispatch<std::__2::__overload<std::__2::__copy_loop<std::__2::_ClassicAlgPolicy>, std::__2::__copy_trivial>, float *, float *, float *, 0>:__range <- [DW_OP_LLVM_fragment 32 32] $r8
	@DEBUG_VALUE: operator()<float, float, 0>:this <- undef
	@DEBUG_VALUE: operator()<float, float, 0>:__first <- $r6
	@DEBUG_VALUE: operator()<float, float, 0>:__last <- $r8
	@DEBUG_VALUE: operator()<float, float, 0>:__result <- $r7
	@DEBUG_VALUE: __copy_trivial_impl<float, float>:__first <- $r6
	@DEBUG_VALUE: __copy_trivial_impl<float, float>:__last <- $r8
	@DEBUG_VALUE: __copy_trivial_impl<float, float>:__result <- $r7
	.loc	27 64 49                        @ C:\Keil_v5\ARM\ARMCLANG\bin\..\include\libcxx\__algorithm/copy_move_common.h:64:49
	subs.w	r5, r8, r6
.Ltmp295:
	@DEBUG_VALUE: __assign_with_size<float *, float *>:__first <- [DW_OP_LLVM_entry_value 1] $r1
	@DEBUG_VALUE: __constexpr_memmove<float, float, 0>:__src <- $r6
	@DEBUG_VALUE: __constexpr_memmove<float, float, 0>:__dest <- $r7
	@DEBUG_VALUE: __constexpr_memmove<float, float, 0>:__count <- [DW_OP_constu 2, DW_OP_shra, DW_OP_stack_value] $r5
	@DEBUG_VALUE: __constexpr_memmove<float, float, 0>:__n <- [DW_OP_constu 2, DW_OP_shra, DW_OP_stack_value] $r5
	@DEBUG_VALUE: __copy_trivial_impl<float, float>:__n <- [DW_OP_constu 2, DW_OP_shra, DW_OP_stack_value] $r5
	.loc	8 211 14                        @ C:\Keil_v5\ARM\ARMCLANG\bin\..\include\libcxx\__string/constexpr_c_functions.h:211:14
	beq	.LBB14_12
.Ltmp296:
@ %bb.11:
	@DEBUG_VALUE: __copy_trivial_impl<float, float>:__n <- [DW_OP_constu 2, DW_OP_shra, DW_OP_stack_value] $r5
	@DEBUG_VALUE: __constexpr_memmove<float, float, 0>:__n <- [DW_OP_constu 2, DW_OP_shra, DW_OP_stack_value] $r5
	@DEBUG_VALUE: __constexpr_memmove<float, float, 0>:__count <- [DW_OP_constu 2, DW_OP_shra, DW_OP_stack_value] $r5
	@DEBUG_VALUE: __constexpr_memmove<float, float, 0>:__dest <- $r7
	@DEBUG_VALUE: __constexpr_memmove<float, float, 0>:__src <- $r6
	@DEBUG_VALUE: __assign_with_size<float *, float *>:__first <- [DW_OP_LLVM_entry_value 1] $r1
	@DEBUG_VALUE: __copy_trivial_impl<float, float>:__result <- $r7
	@DEBUG_VALUE: __copy_trivial_impl<float, float>:__last <- $r8
	@DEBUG_VALUE: __copy_trivial_impl<float, float>:__first <- $r6
	@DEBUG_VALUE: operator()<float, float, 0>:__result <- $r7
	@DEBUG_VALUE: operator()<float, float, 0>:__last <- $r8
	@DEBUG_VALUE: operator()<float, float, 0>:__first <- $r6
	@DEBUG_VALUE: __unwrap_and_dispatch<std::__2::__overload<std::__2::__copy_loop<std::__2::_ClassicAlgPolicy>, std::__2::__copy_trivial>, float *, float *, float *, 0>:__range <- [DW_OP_LLVM_fragment 32 32] $r8
	@DEBUG_VALUE: __unwrap_and_dispatch<std::__2::__overload<std::__2::__copy_loop<std::__2::_ClassicAlgPolicy>, std::__2::__copy_trivial>, float *, float *, float *, 0>:__range <- [DW_OP_LLVM_fragment 0 32] $r6
	@DEBUG_VALUE: __unwrap_and_dispatch<std::__2::__overload<std::__2::__copy_loop<std::__2::_ClassicAlgPolicy>, std::__2::__copy_trivial>, float *, float *, float *, 0>:__out_first <- $r7
	@DEBUG_VALUE: __unwrap_and_dispatch<std::__2::__overload<std::__2::__copy_loop<std::__2::_ClassicAlgPolicy>, std::__2::__copy_trivial>, float *, float *, float *, 0>:__last <- $r8
	@DEBUG_VALUE: __unwrap_and_dispatch<std::__2::__overload<std::__2::__copy_loop<std::__2::_ClassicAlgPolicy>, std::__2::__copy_trivial>, float *, float *, float *, 0>:__first <- $r6
	@DEBUG_VALUE: __dispatch_copy_or_move<std::__2::_ClassicAlgPolicy, std::__2::__copy_loop<std::__2::_ClassicAlgPolicy>, std::__2::__copy_trivial, float *, float *, float *>:__out_first <- $r7
	@DEBUG_VALUE: __dispatch_copy_or_move<std::__2::_ClassicAlgPolicy, std::__2::__copy_loop<std::__2::_ClassicAlgPolicy>, std::__2::__copy_trivial, float *, float *, float *>:__last <- $r8
	@DEBUG_VALUE: __dispatch_copy_or_move<std::__2::_ClassicAlgPolicy, std::__2::__copy_loop<std::__2::_ClassicAlgPolicy>, std::__2::__copy_trivial, float *, float *, float *>:__first <- $r6
	@DEBUG_VALUE: __copy<std::__2::_ClassicAlgPolicy, float *, float *, float *>:__result <- $r7
	@DEBUG_VALUE: __copy<std::__2::_ClassicAlgPolicy, float *, float *, float *>:__last <- $r8
	@DEBUG_VALUE: __copy<std::__2::_ClassicAlgPolicy, float *, float *, float *>:__first <- $r6
	@DEBUG_VALUE: copy<float *, float *>:__result <- $r7
	@DEBUG_VALUE: copy<float *, float *>:__last <- $r8
	@DEBUG_VALUE: copy<float *, float *>:__first <- $r6
	@DEBUG_VALUE: __uninitialized_allocator_copy_impl<std::__2::allocator<float>, float, float, float, nullptr>:__first2 <- $r7
	@DEBUG_VALUE: __uninitialized_allocator_copy_impl<std::__2::allocator<float>, float, float, float, nullptr>:__last1 <- $r8
	@DEBUG_VALUE: __uninitialized_allocator_copy_impl<std::__2::allocator<float>, float, float, float, nullptr>:__first1 <- $r6
	@DEBUG_VALUE: __uninitialized_allocator_copy_impl<std::__2::allocator<float>, float, float, float, nullptr>: <- [DW_OP_plus_uconst 8, DW_OP_stack_value] $r4
	@DEBUG_VALUE: __uninitialized_allocator_copy<std::__2::allocator<float>, float *, float *, float *>:__unwrapped_range <- [DW_OP_LLVM_fragment 32 32] $r8
	@DEBUG_VALUE: __uninitialized_allocator_copy<std::__2::allocator<float>, float *, float *, float *>:__unwrapped_range <- [DW_OP_LLVM_fragment 0 32] $r6
	@DEBUG_VALUE: __uninitialized_allocator_copy<std::__2::allocator<float>, float *, float *, float *>:__first2 <- $r7
	@DEBUG_VALUE: __uninitialized_allocator_copy<std::__2::allocator<float>, float *, float *, float *>:__last1 <- $r8
	@DEBUG_VALUE: __uninitialized_allocator_copy<std::__2::allocator<float>, float *, float *, float *>:__first1 <- $r6
	@DEBUG_VALUE: __uninitialized_allocator_copy<std::__2::allocator<float>, float *, float *, float *>:__alloc <- [DW_OP_plus_uconst 8, DW_OP_stack_value] $r4
	@DEBUG_VALUE: __construct_at_end<float *, float *>:__tx <- [DW_OP_LLVM_fragment 32 32] $r7
	@DEBUG_VALUE: __construct_at_end<float *, float *>:__tx <- [DW_OP_LLVM_fragment 0 32] $r4
	@DEBUG_VALUE: __construct_at_end<float *, float *>:__last <- $r8
	@DEBUG_VALUE: __construct_at_end<float *, float *>:__first <- $r6
	@DEBUG_VALUE: __construct_at_end<float *, float *>:this <- $r4
	@DEBUG_VALUE: __mid <- $r6
	@DEBUG_VALUE: __assign_with_size<float *, float *>:__n <- [DW_OP_LLVM_entry_value 1] $r3
	@DEBUG_VALUE: __assign_with_size<float *, float *>:__last <- $r8
	@DEBUG_VALUE: __assign_with_size<float *, float *>:this <- $r4
	@DEBUG_VALUE: __unwrap_and_dispatch<std::__2::__overload<std::__2::__copy_loop<std::__2::_ClassicAlgPolicy>, std::__2::__copy_trivial>, float *, float *, float *, 0>:__result <- [DW_OP_LLVM_fragment 0 32] $r6
	@DEBUG_VALUE: __unwrap_and_dispatch<std::__2::__overload<std::__2::__copy_loop<std::__2::_ClassicAlgPolicy>, std::__2::__copy_trivial>, float *, float *, float *, 0>:__result <- [DW_OP_LLVM_arg 0, DW_OP_LLVM_arg 0, DW_OP_LLVM_arg 0, DW_OP_minus, DW_OP_constu 1, DW_OP_mul, DW_OP_plus, DW_OP_stack_value, DW_OP_LLVM_fragment 32 32] undef
	@DEBUG_VALUE: __construct_at_end<float *, float *>:__first <- $r6
	@DEBUG_VALUE: __uninitialized_allocator_copy<std::__2::allocator<float>, float *, float *, float *>:__first1 <- $r6
	@DEBUG_VALUE: __uninitialized_allocator_copy<std::__2::allocator<float>, float *, float *, float *>:__unwrapped_range <- [DW_OP_LLVM_fragment 0 32] $r6
	@DEBUG_VALUE: __uninitialized_allocator_copy_impl<std::__2::allocator<float>, float, float, float, nullptr>:__first1 <- $r6
	@DEBUG_VALUE: copy<float *, float *>:__first <- $r6
	@DEBUG_VALUE: __copy<std::__2::_ClassicAlgPolicy, float *, float *, float *>:__first <- $r6
	@DEBUG_VALUE: __dispatch_copy_or_move<std::__2::_ClassicAlgPolicy, std::__2::__copy_loop<std::__2::_ClassicAlgPolicy>, std::__2::__copy_trivial, float *, float *, float *>:__first <- $r6
	@DEBUG_VALUE: __unwrap_and_dispatch<std::__2::__overload<std::__2::__copy_loop<std::__2::_ClassicAlgPolicy>, std::__2::__copy_trivial>, float *, float *, float *, 0>:__first <- $r6
	@DEBUG_VALUE: __unwrap_and_dispatch<std::__2::__overload<std::__2::__copy_loop<std::__2::_ClassicAlgPolicy>, std::__2::__copy_trivial>, float *, float *, float *, 0>:__range <- [DW_OP_LLVM_fragment 0 32] $r6
	@DEBUG_VALUE: operator()<float, float, 0>:__first <- $r6
	@DEBUG_VALUE: __copy_trivial_impl<float, float>:__first <- $r6
	@DEBUG_VALUE: __constexpr_memmove<float, float, 0>:__src <- $r6
	.loc	8 212 5                         @ C:\Keil_v5\ARM\ARMCLANG\bin\..\include\libcxx\__string/constexpr_c_functions.h:212:5
	mov	r0, r7
	mov	r1, r6
	mov	r2, r5
	bl	__aeabi_memmove4
.Ltmp297:
.LBB14_12:
	@DEBUG_VALUE: __copy_trivial_impl<float, float>:__n <- [DW_OP_constu 2, DW_OP_shra, DW_OP_stack_value] $r5
	@DEBUG_VALUE: __assign_with_size<float *, float *>:__first <- [DW_OP_LLVM_entry_value 1] $r1
	@DEBUG_VALUE: __copy_trivial_impl<float, float>:__result <- $r7
	@DEBUG_VALUE: __copy_trivial_impl<float, float>:__last <- $r8
	@DEBUG_VALUE: __copy_trivial_impl<float, float>:__first <- $r6
	@DEBUG_VALUE: operator()<float, float, 0>:__result <- $r7
	@DEBUG_VALUE: operator()<float, float, 0>:__last <- $r8
	@DEBUG_VALUE: operator()<float, float, 0>:__first <- $r6
	@DEBUG_VALUE: __unwrap_and_dispatch<std::__2::__overload<std::__2::__copy_loop<std::__2::_ClassicAlgPolicy>, std::__2::__copy_trivial>, float *, float *, float *, 0>:__range <- [DW_OP_LLVM_fragment 32 32] $r8
	@DEBUG_VALUE: __unwrap_and_dispatch<std::__2::__overload<std::__2::__copy_loop<std::__2::_ClassicAlgPolicy>, std::__2::__copy_trivial>, float *, float *, float *, 0>:__range <- [DW_OP_LLVM_fragment 0 32] $r6
	@DEBUG_VALUE: __unwrap_and_dispatch<std::__2::__overload<std::__2::__copy_loop<std::__2::_ClassicAlgPolicy>, std::__2::__copy_trivial>, float *, float *, float *, 0>:__out_first <- $r7
	@DEBUG_VALUE: __unwrap_and_dispatch<std::__2::__overload<std::__2::__copy_loop<std::__2::_ClassicAlgPolicy>, std::__2::__copy_trivial>, float *, float *, float *, 0>:__last <- $r8
	@DEBUG_VALUE: __unwrap_and_dispatch<std::__2::__overload<std::__2::__copy_loop<std::__2::_ClassicAlgPolicy>, std::__2::__copy_trivial>, float *, float *, float *, 0>:__first <- $r6
	@DEBUG_VALUE: __dispatch_copy_or_move<std::__2::_ClassicAlgPolicy, std::__2::__copy_loop<std::__2::_ClassicAlgPolicy>, std::__2::__copy_trivial, float *, float *, float *>:__out_first <- $r7
	@DEBUG_VALUE: __dispatch_copy_or_move<std::__2::_ClassicAlgPolicy, std::__2::__copy_loop<std::__2::_ClassicAlgPolicy>, std::__2::__copy_trivial, float *, float *, float *>:__last <- $r8
	@DEBUG_VALUE: __dispatch_copy_or_move<std::__2::_ClassicAlgPolicy, std::__2::__copy_loop<std::__2::_ClassicAlgPolicy>, std::__2::__copy_trivial, float *, float *, float *>:__first <- $r6
	@DEBUG_VALUE: __copy<std::__2::_ClassicAlgPolicy, float *, float *, float *>:__result <- $r7
	@DEBUG_VALUE: __copy<std::__2::_ClassicAlgPolicy, float *, float *, float *>:__last <- $r8
	@DEBUG_VALUE: __copy<std::__2::_ClassicAlgPolicy, float *, float *, float *>:__first <- $r6
	@DEBUG_VALUE: copy<float *, float *>:__result <- $r7
	@DEBUG_VALUE: copy<float *, float *>:__last <- $r8
	@DEBUG_VALUE: copy<float *, float *>:__first <- $r6
	@DEBUG_VALUE: __uninitialized_allocator_copy_impl<std::__2::allocator<float>, float, float, float, nullptr>:__first2 <- $r7
	@DEBUG_VALUE: __uninitialized_allocator_copy_impl<std::__2::allocator<float>, float, float, float, nullptr>:__last1 <- $r8
	@DEBUG_VALUE: __uninitialized_allocator_copy_impl<std::__2::allocator<float>, float, float, float, nullptr>:__first1 <- $r6
	@DEBUG_VALUE: __uninitialized_allocator_copy_impl<std::__2::allocator<float>, float, float, float, nullptr>: <- [DW_OP_plus_uconst 8, DW_OP_stack_value] $r4
	@DEBUG_VALUE: __uninitialized_allocator_copy<std::__2::allocator<float>, float *, float *, float *>:__unwrapped_range <- [DW_OP_LLVM_fragment 32 32] $r8
	@DEBUG_VALUE: __uninitialized_allocator_copy<std::__2::allocator<float>, float *, float *, float *>:__unwrapped_range <- [DW_OP_LLVM_fragment 0 32] $r6
	@DEBUG_VALUE: __uninitialized_allocator_copy<std::__2::allocator<float>, float *, float *, float *>:__first2 <- $r7
	@DEBUG_VALUE: __uninitialized_allocator_copy<std::__2::allocator<float>, float *, float *, float *>:__last1 <- $r8
	@DEBUG_VALUE: __uninitialized_allocator_copy<std::__2::allocator<float>, float *, float *, float *>:__first1 <- $r6
	@DEBUG_VALUE: __uninitialized_allocator_copy<std::__2::allocator<float>, float *, float *, float *>:__alloc <- [DW_OP_plus_uconst 8, DW_OP_stack_value] $r4
	@DEBUG_VALUE: __construct_at_end<float *, float *>:__tx <- [DW_OP_LLVM_fragment 32 32] $r7
	@DEBUG_VALUE: __construct_at_end<float *, float *>:__tx <- [DW_OP_LLVM_fragment 0 32] $r4
	@DEBUG_VALUE: __construct_at_end<float *, float *>:__last <- $r8
	@DEBUG_VALUE: __construct_at_end<float *, float *>:__first <- $r6
	@DEBUG_VALUE: __construct_at_end<float *, float *>:this <- $r4
	@DEBUG_VALUE: __mid <- $r6
	@DEBUG_VALUE: __assign_with_size<float *, float *>:__n <- [DW_OP_LLVM_entry_value 1] $r3
	@DEBUG_VALUE: __assign_with_size<float *, float *>:__last <- $r8
	@DEBUG_VALUE: __assign_with_size<float *, float *>:this <- $r4
	.loc	27 68 42                        @ C:\Keil_v5\ARM\ARMCLANG\bin\..\include\libcxx\__algorithm/copy_move_common.h:68:42
	adds	r0, r7, r5
.Ltmp298:
	@DEBUG_VALUE: ~_ConstructTransaction:this <- undef
	@DEBUG_VALUE: __unwrap_and_dispatch<std::__2::__overload<std::__2::__copy_loop<std::__2::_ClassicAlgPolicy>, std::__2::__copy_trivial>, float *, float *, float *, 0>:__result <- [DW_OP_LLVM_fragment 0 32] undef
	@DEBUG_VALUE: __uninitialized_allocator_copy<std::__2::allocator<float>, float *, float *, float *>:__result <- $r0
	@DEBUG_VALUE: __unwrap_and_dispatch<std::__2::__overload<std::__2::__copy_loop<std::__2::_ClassicAlgPolicy>, std::__2::__copy_trivial>, float *, float *, float *, 0>:__result <- [DW_OP_LLVM_fragment 32 32] $r0
	@DEBUG_VALUE: __construct_at_end<float *, float *>:__tx <- [DW_OP_LLVM_fragment 32 32] $r0
	.loc	2 0 0 is_stmt 0                 @ C:\Keil_v5\ARM\ARMCLANG\bin\..\include\libcxx\vector:0:0
	str	r0, [r4, #4]
.Ltmp299:
	.loc	2 1365 1 epilogue_begin is_stmt 1 @ C:\Keil_v5\ARM\ARMCLANG\bin\..\include\libcxx\vector:1365:1
	pop.w	{r4, r5, r6, r7, r8, pc}
.Ltmp300:
.LBB14_13:
	@DEBUG_VALUE: __assign_with_size<float *, float *>:__first <- $r5
	@DEBUG_VALUE: __assign_with_size<float *, float *>:__last <- $r8
	@DEBUG_VALUE: __assign_with_size<float *, float *>:__new_size <- $r6
	@DEBUG_VALUE: __assign_with_size<float *, float *>:__n <- $r6
	@DEBUG_VALUE: __assign_with_size<float *, float *>:this <- $r4
	@DEBUG_VALUE: __copy<std::__2::_ClassicAlgPolicy, float *, float *, float *>:__first <- $r5
	@DEBUG_VALUE: __copy<std::__2::_ClassicAlgPolicy, float *, float *, float *>:__last <- $r8
	@DEBUG_VALUE: __copy<std::__2::_ClassicAlgPolicy, float *, float *, float *>:__result <- $r7
	@DEBUG_VALUE: __dispatch_copy_or_move<std::__2::_ClassicAlgPolicy, std::__2::__copy_loop<std::__2::_ClassicAlgPolicy>, std::__2::__copy_trivial, float *, float *, float *>:__first <- $r5
	@DEBUG_VALUE: __dispatch_copy_or_move<std::__2::_ClassicAlgPolicy, std::__2::__copy_loop<std::__2::_ClassicAlgPolicy>, std::__2::__copy_trivial, float *, float *, float *>:__last <- $r8
	@DEBUG_VALUE: __dispatch_copy_or_move<std::__2::_ClassicAlgPolicy, std::__2::__copy_loop<std::__2::_ClassicAlgPolicy>, std::__2::__copy_trivial, float *, float *, float *>:__out_first <- $r7
	@DEBUG_VALUE: __unwrap_and_dispatch<std::__2::__overload<std::__2::__copy_loop<std::__2::_ClassicAlgPolicy>, std::__2::__copy_trivial>, float *, float *, float *, 0>:__first <- $r5
	@DEBUG_VALUE: __unwrap_and_dispatch<std::__2::__overload<std::__2::__copy_loop<std::__2::_ClassicAlgPolicy>, std::__2::__copy_trivial>, float *, float *, float *, 0>:__last <- $r8
	@DEBUG_VALUE: __unwrap_and_dispatch<std::__2::__overload<std::__2::__copy_loop<std::__2::_ClassicAlgPolicy>, std::__2::__copy_trivial>, float *, float *, float *, 0>:__out_first <- $r7
	@DEBUG_VALUE: __unwrap_and_dispatch<std::__2::__overload<std::__2::__copy_loop<std::__2::_ClassicAlgPolicy>, std::__2::__copy_trivial>, float *, float *, float *, 0>:__range <- [DW_OP_LLVM_fragment 0 32] $r5
	@DEBUG_VALUE: __unwrap_and_dispatch<std::__2::__overload<std::__2::__copy_loop<std::__2::_ClassicAlgPolicy>, std::__2::__copy_trivial>, float *, float *, float *, 0>:__range <- [DW_OP_LLVM_fragment 32 32] $r8
	@DEBUG_VALUE: operator()<float, float, 0>:this <- undef
	@DEBUG_VALUE: operator()<float, float, 0>:__first <- $r5
	@DEBUG_VALUE: operator()<float, float, 0>:__last <- $r8
	@DEBUG_VALUE: operator()<float, float, 0>:__result <- $r7
	@DEBUG_VALUE: __copy_trivial_impl<float, float>:__first <- $r5
	@DEBUG_VALUE: __copy_trivial_impl<float, float>:__last <- $r8
	@DEBUG_VALUE: __copy_trivial_impl<float, float>:__result <- $r7
	.loc	27 64 49                        @ C:\Keil_v5\ARM\ARMCLANG\bin\..\include\libcxx\__algorithm/copy_move_common.h:64:49
	subs.w	r6, r8, r5
.Ltmp301:
	@DEBUG_VALUE: __assign_with_size<float *, float *>:__n <- [DW_OP_LLVM_entry_value 1] $r3
	@DEBUG_VALUE: __constexpr_memmove<float, float, 0>:__src <- $r5
	@DEBUG_VALUE: __constexpr_memmove<float, float, 0>:__dest <- $r7
	@DEBUG_VALUE: __constexpr_memmove<float, float, 0>:__count <- [DW_OP_constu 2, DW_OP_shra, DW_OP_stack_value] $r6
	@DEBUG_VALUE: __constexpr_memmove<float, float, 0>:__n <- [DW_OP_constu 2, DW_OP_shra, DW_OP_stack_value] $r6
	@DEBUG_VALUE: __copy_trivial_impl<float, float>:__n <- [DW_OP_constu 2, DW_OP_shra, DW_OP_stack_value] $r6
	.loc	8 211 14                        @ C:\Keil_v5\ARM\ARMCLANG\bin\..\include\libcxx\__string/constexpr_c_functions.h:211:14
	beq	.LBB14_15
.Ltmp302:
@ %bb.14:
	@DEBUG_VALUE: __copy_trivial_impl<float, float>:__n <- [DW_OP_constu 2, DW_OP_shra, DW_OP_stack_value] $r6
	@DEBUG_VALUE: __constexpr_memmove<float, float, 0>:__n <- [DW_OP_constu 2, DW_OP_shra, DW_OP_stack_value] $r6
	@DEBUG_VALUE: __constexpr_memmove<float, float, 0>:__count <- [DW_OP_constu 2, DW_OP_shra, DW_OP_stack_value] $r6
	@DEBUG_VALUE: __constexpr_memmove<float, float, 0>:__dest <- $r7
	@DEBUG_VALUE: __constexpr_memmove<float, float, 0>:__src <- $r5
	@DEBUG_VALUE: __assign_with_size<float *, float *>:__n <- [DW_OP_LLVM_entry_value 1] $r3
	@DEBUG_VALUE: __copy_trivial_impl<float, float>:__result <- $r7
	@DEBUG_VALUE: __copy_trivial_impl<float, float>:__last <- $r8
	@DEBUG_VALUE: __copy_trivial_impl<float, float>:__first <- $r5
	@DEBUG_VALUE: operator()<float, float, 0>:__result <- $r7
	@DEBUG_VALUE: operator()<float, float, 0>:__last <- $r8
	@DEBUG_VALUE: operator()<float, float, 0>:__first <- $r5
	@DEBUG_VALUE: __unwrap_and_dispatch<std::__2::__overload<std::__2::__copy_loop<std::__2::_ClassicAlgPolicy>, std::__2::__copy_trivial>, float *, float *, float *, 0>:__range <- [DW_OP_LLVM_fragment 32 32] $r8
	@DEBUG_VALUE: __unwrap_and_dispatch<std::__2::__overload<std::__2::__copy_loop<std::__2::_ClassicAlgPolicy>, std::__2::__copy_trivial>, float *, float *, float *, 0>:__range <- [DW_OP_LLVM_fragment 0 32] $r5
	@DEBUG_VALUE: __unwrap_and_dispatch<std::__2::__overload<std::__2::__copy_loop<std::__2::_ClassicAlgPolicy>, std::__2::__copy_trivial>, float *, float *, float *, 0>:__out_first <- $r7
	@DEBUG_VALUE: __unwrap_and_dispatch<std::__2::__overload<std::__2::__copy_loop<std::__2::_ClassicAlgPolicy>, std::__2::__copy_trivial>, float *, float *, float *, 0>:__last <- $r8
	@DEBUG_VALUE: __unwrap_and_dispatch<std::__2::__overload<std::__2::__copy_loop<std::__2::_ClassicAlgPolicy>, std::__2::__copy_trivial>, float *, float *, float *, 0>:__first <- $r5
	@DEBUG_VALUE: __dispatch_copy_or_move<std::__2::_ClassicAlgPolicy, std::__2::__copy_loop<std::__2::_ClassicAlgPolicy>, std::__2::__copy_trivial, float *, float *, float *>:__out_first <- $r7
	@DEBUG_VALUE: __dispatch_copy_or_move<std::__2::_ClassicAlgPolicy, std::__2::__copy_loop<std::__2::_ClassicAlgPolicy>, std::__2::__copy_trivial, float *, float *, float *>:__last <- $r8
	@DEBUG_VALUE: __dispatch_copy_or_move<std::__2::_ClassicAlgPolicy, std::__2::__copy_loop<std::__2::_ClassicAlgPolicy>, std::__2::__copy_trivial, float *, float *, float *>:__first <- $r5
	@DEBUG_VALUE: __copy<std::__2::_ClassicAlgPolicy, float *, float *, float *>:__result <- $r7
	@DEBUG_VALUE: __copy<std::__2::_ClassicAlgPolicy, float *, float *, float *>:__last <- $r8
	@DEBUG_VALUE: __copy<std::__2::_ClassicAlgPolicy, float *, float *, float *>:__first <- $r5
	@DEBUG_VALUE: __assign_with_size<float *, float *>:__first <- $r5
	@DEBUG_VALUE: __assign_with_size<float *, float *>:__last <- $r8
	@DEBUG_VALUE: __assign_with_size<float *, float *>:this <- $r4
	.loc	8 212 5                         @ C:\Keil_v5\ARM\ARMCLANG\bin\..\include\libcxx\__string/constexpr_c_functions.h:212:5
	mov	r0, r7
	mov	r1, r5
	mov	r2, r6
	bl	__aeabi_memmove4
.Ltmp303:
.LBB14_15:
	@DEBUG_VALUE: __assign_with_size<float *, float *>:__n <- [DW_OP_LLVM_entry_value 1] $r3
	@DEBUG_VALUE: __assign_with_size<float *, float *>:__first <- $r5
	@DEBUG_VALUE: __assign_with_size<float *, float *>:__last <- $r8
	@DEBUG_VALUE: __assign_with_size<float *, float *>:this <- $r4
	.loc	2 0 0 is_stmt 0                 @ C:\Keil_v5\ARM\ARMCLANG\bin\..\include\libcxx\vector:0:0
	adds	r0, r7, r6
.Ltmp304:
	@DEBUG_VALUE: ~_ConstructTransaction:this <- undef
	@DEBUG_VALUE: __unwrap_and_dispatch<std::__2::__overload<std::__2::__copy_loop<std::__2::_ClassicAlgPolicy>, std::__2::__copy_trivial>, float *, float *, float *, 0>:__result <- [DW_OP_LLVM_fragment 0 32] undef
	@DEBUG_VALUE: __uninitialized_allocator_copy<std::__2::allocator<float>, float *, float *, float *>:__result <- $r0
	@DEBUG_VALUE: __unwrap_and_dispatch<std::__2::__overload<std::__2::__copy_loop<std::__2::_ClassicAlgPolicy>, std::__2::__copy_trivial>, float *, float *, float *, 0>:__result <- [DW_OP_LLVM_fragment 32 32] $r0
	@DEBUG_VALUE: __construct_at_end<float *, float *>:__tx <- [DW_OP_LLVM_fragment 32 32] $r0
	str	r0, [r4, #4]
.Ltmp305:
	.loc	2 1365 1 epilogue_begin is_stmt 1 @ C:\Keil_v5\ARM\ARMCLANG\bin\..\include\libcxx\vector:1365:1
	pop.w	{r4, r5, r6, r7, r8, pc}
.Ltmp306:
.LBB14_16:
	@DEBUG_VALUE: __assign_with_size<float *, float *>:__first <- $r5
	@DEBUG_VALUE: __assign_with_size<float *, float *>:__last <- $r8
	@DEBUG_VALUE: __assign_with_size<float *, float *>:this <- $r4
	.loc	2 1362 0                        @ C:\Keil_v5\ARM\ARMCLANG\bin\..\include\libcxx\vector:1362:0
	mov	r0, r4
	bl	_ZNKSt3__26vectorIfNS_9allocatorIfEEE20__throw_length_errorB8nn190000Ev
.Ltmp307:
.Lfunc_end14:
	.size	_ZNSt3__26vectorIfNS_9allocatorIfEEE18__assign_with_sizeB8nn190000IPfS5_EEvT_T0_i, .Lfunc_end14-_ZNSt3__26vectorIfNS_9allocatorIfEEE18__assign_with_sizeB8nn190000IPfS5_EEvT_T0_i
	.cfi_endproc
	.file	28 "C:\\Keil_v5\\ARM\\ARMCLANG\\bin\\..\\include\\libcxx\\__memory" "allocate_at_least.h"
	.file	29 "C:\\Keil_v5\\ARM\\ARMCLANG\\bin\\..\\include\\libcxx\\__algorithm" "copy.h"
	.file	30 "C:\\Keil_v5\\ARM\\ARMCLANG\\bin\\..\\include\\libcxx\\__memory" "uninitialized_algorithms.h"
	.file	31 "C:\\Keil_v5\\ARM\\ARMCLANG\\bin\\..\\include\\libcxx\\__iterator" "next.h"
	.cantunwind
	.fnend
                                        @ -- End function
	.section	.text._ZNKSt3__26vectorIfNS_9allocatorIfEEE20__throw_length_errorB8nn190000Ev,"axG",%progbits,_ZNKSt3__26vectorIfNS_9allocatorIfEEE20__throw_length_errorB8nn190000Ev,comdat
	.hidden	_ZNKSt3__26vectorIfNS_9allocatorIfEEE20__throw_length_errorB8nn190000Ev @ -- Begin function _ZNKSt3__26vectorIfNS_9allocatorIfEEE20__throw_length_errorB8nn190000Ev
	.weak	_ZNKSt3__26vectorIfNS_9allocatorIfEEE20__throw_length_errorB8nn190000Ev
	.p2align	2
	.type	_ZNKSt3__26vectorIfNS_9allocatorIfEEE20__throw_length_errorB8nn190000Ev,%function
	.code	16                              @ @_ZNKSt3__26vectorIfNS_9allocatorIfEEE20__throw_length_errorB8nn190000Ev
	.thumb_func
_ZNKSt3__26vectorIfNS_9allocatorIfEEE20__throw_length_errorB8nn190000Ev:
.Lfunc_begin15:
	.fnstart
	.cfi_startproc
@ %bb.0:
	@DEBUG_VALUE: __throw_length_error:this <- $r0
	.loc	2 940 78 prologue_end           @ C:\Keil_v5\ARM\ARMCLANG\bin\..\include\libcxx\vector:940:78
	adr	r0, .LCPI15_0
.Ltmp308:
	@DEBUG_VALUE: __throw_length_error:this <- [DW_OP_LLVM_entry_value 1] $r0
	bl	_ZNSt3__220__throw_length_errorB8nn190000EPKc
.Ltmp309:
	.p2align	2
@ %bb.1:
	.loc	2 0 78 is_stmt 0                @ C:\Keil_v5\ARM\ARMCLANG\bin\..\include\libcxx\vector:0:78
.LCPI15_0:
.L.str.8:
	.asciz	"vector\000"
.Lfunc_end15:
	.size	_ZNKSt3__26vectorIfNS_9allocatorIfEEE20__throw_length_errorB8nn190000Ev, .Lfunc_end15-_ZNKSt3__26vectorIfNS_9allocatorIfEEE20__throw_length_errorB8nn190000Ev
	.cfi_endproc
	.cantunwind
	.fnend
                                        @ -- End function
	.section	.text._ZNSt3__220__throw_length_errorB8nn190000EPKc,"axG",%progbits,_ZNSt3__220__throw_length_errorB8nn190000EPKc,comdat
	.hidden	_ZNSt3__220__throw_length_errorB8nn190000EPKc @ -- Begin function _ZNSt3__220__throw_length_errorB8nn190000EPKc
	.weak	_ZNSt3__220__throw_length_errorB8nn190000EPKc
	.p2align	2
	.type	_ZNSt3__220__throw_length_errorB8nn190000EPKc,%function
	.code	16                              @ @_ZNSt3__220__throw_length_errorB8nn190000EPKc
	.thumb_func
_ZNSt3__220__throw_length_errorB8nn190000EPKc:
.Lfunc_begin16:
	.loc	3 239 0 is_stmt 1               @ C:\Keil_v5\ARM\ARMCLANG\bin\..\include\libcxx\stdexcept:239:0
	.fnstart
	.cfi_startproc
@ %bb.0:
	@DEBUG_VALUE: __throw_length_error:__msg <- $r0
	mov	r1, r0
.Ltmp310:
	@DEBUG_VALUE: __throw_length_error:__msg <- $r1
	.loc	3 243 3 prologue_end            @ C:\Keil_v5\ARM\ARMCLANG\bin\..\include\libcxx\stdexcept:243:3
	movw	r0, :lower16:.L.str.9
	movt	r0, :upper16:.L.str.9
	bl	_ZNSt3__222__libcpp_verbose_abortEPKcz
.Ltmp311:
.Lfunc_end16:
	.size	_ZNSt3__220__throw_length_errorB8nn190000EPKc, .Lfunc_end16-_ZNSt3__220__throw_length_errorB8nn190000EPKc
	.cfi_endproc
	.cantunwind
	.fnend
                                        @ -- End function
	.type	.L.str,%object                  @ @.str
	.section	.rodata.str1.1,"aMS",%progbits,1
.L.str:
	.asciz	"ERROR - "
	.size	.L.str, 9

	.type	.L.str.4,%object                @ @.str.4
.L.str.4:
	.asciz	"FFT len: %d; input len: %zu\n"
	.size	.L.str.4, 29

	.type	.L.str.9,%object                @ @.str.9
.L.str.9:
	.asciz	"length_error was thrown in -fno-exceptions mode with message \"%s\""
	.size	.L.str.9, 66

	.type	.Lstr.12,%object                @ @str.12
.Lstr.12:
	.asciz	"Invalid FFT type"
	.size	.Lstr.12, 17

	.hidden	_printf_percent
	.hidden	_printf_sizespec
	.hidden	_printf_d
	.hidden	_printf_u
	.hidden	_printf_int_dec
	.file	32 "C:\\Keil_v5\\ARM\\ARMCLANG\\bin\\..\\include" "string.h"
	.file	33 "C:\\Keil_v5\\ARM\\ARMCLANG\\bin\\..\\include" "math.h"
	.file	34 "C:\\Keil_v5\\ARM\\ARMCLANG\\bin\\..\\include\\libcxx" "stddef.h"
	.file	35 "C:\\Keil_v5\\ARM\\ARMCLANG\\bin\\..\\include\\libcxx" "cstddef"
	.file	36 "C:\\Keil_v5\\ARM\\ARMCLANG\\bin\\..\\include\\libcxx" "cstdint"
	.file	37 "C:\\Keil_v5\\ARM\\ARMCLANG\\bin\\..\\include\\libcxx\\__math" "traits.h"
	.file	38 "C:\\Keil_v5\\ARM\\ARMCLANG\\bin\\..\\include\\libcxx" "math.h"
	.file	39 "C:\\Keil_v5\\ARM\\ARMCLANG\\bin\\..\\include\\libcxx\\__math" "modulo.h"
	.file	40 "C:\\Keil_v5\\ARM\\ARMCLANG\\bin\\..\\include" "float.h"
	.file	41 "C:\\Keil_v5\\ARM\\ARMCLANG\\bin\\..\\include\\libcxx" "cstdlib"
	.file	42 "C:\\Keil_v5\\ARM\\ARMCLANG\\bin\\..\\include\\libcxx" "stdlib.h"
	.file	43 "C:\\Keil_v5\\ARM\\ARMCLANG\\bin\\..\\include" "ctype.h"
	.file	44 "C:\\Keil_v5\\ARM\\ARMCLANG\\bin\\..\\include\\libcxx" "cctype"
	.file	45 "C:\\Keil_v5\\ARM\\ARMCLANG\\bin\\..\\include" "wctype.h"
	.file	46 "C:\\Keil_v5\\ARM\\ARMCLANG\\bin\\..\\include\\libcxx" "cwctype"
	.file	47 "C:\\Keil_v5\\ARM\\ARMCLANG\\bin\\..\\include" "wchar.h"
	.file	48 "D:\\M55M1_NuEdgeWise\\ML_M55M1_SampleCode\\M55M1BSP-3.00.001\\SampleCode\\NuEdgeWise\\ObjectDetection_FreeRTOS_yoloxn\\KEIL" "../../../../ThirdParty/ml-embedded-evaluation-kit/source/math\\PlatformMath.cc"
	.file	49 "C:\\Keil_v5\\ARM\\ARMCLANG\\bin\\..\\include\\libcxx" "cwchar"
	.file	50 "C:\\Keil_v5\\ARM\\ARMCLANG\\bin\\..\\include\\libcxx" "wchar.h"
	.file	51 "C:\\Keil_v5\\ARM\\ARMCLANG\\bin\\..\\include\\libcxx" "cstring"
	.file	52 "C:\\Keil_v5\\ARM\\ARMCLANG\\bin\\..\\include\\libcxx" "string.h"
	.file	53 "C:\\Keil_v5\\ARM\\ARMCLANG\\bin\\..\\include\\libcxx" "__std_mbstate_t.h"
	.file	54 "C:\\Keil_v5\\ARM\\ARMCLANG\\bin\\..\\include" "stdio.h"
	.file	55 "C:\\Keil_v5\\ARM\\ARMCLANG\\bin\\..\\include\\libcxx" "cstdio"
	.file	56 "C:\\Keil_v5\\ARM\\ARMCLANG\\bin\\..\\include\\libcxx" "cmath"
	.file	57 "C:\\Keil_v5\\ARM\\ARMCLANG\\bin\\..\\include\\libcxx\\__chrono" "duration.h"
	.file	58 "C:\\Keil_v5\\ARM\\ARMCLANG\\bin\\..\\include\\libcxx" "ctime"
	.file	59 "C:\\Keil_v5\\ARM\\ARMCLANG\\bin\\..\\include" "errno.h"
	.file	60 "C:\\Keil_v5\\ARM\\ARMCLANG\\bin\\..\\include" "locale.h"
	.file	61 "C:\\Keil_v5\\ARM\\ARMCLANG\\bin\\..\\include\\libcxx" "clocale"
	.file	62 "C:\\Keil_v5\\ARM\\ARMCLANG\\bin\\..\\include" "stdarg.h"
	.file	63 "C:\\Keil_v5\\ARM\\ARMCLANG\\bin\\..\\include\\libcxx" "cstdarg"