	.text
	.syntax unified
	.eabi_attribute	67, "2.09"	@ Tag_conformance
	.cpu	cortex-m55
	.eabi_attribute	6, 21	@ Tag_CPU_arch
	.eabi_attribute	7, 77	@ Tag_CPU_arch_profile
	.eabi_attribute	8, 0	@ Tag_ARM_ISA_use
	.eabi_attribute	9, 3	@ Tag_THUMB_ISA_use
	.fpu	fpv5-d16
	.eabi_attribute	36, 1	@ Tag_FP_HP_extension
	.eabi_attribute	48, 2	@ Tag_MVE_arch
	.eabi_attribute	46, 1	@ Tag_DSP_extension
	.eabi_attribute	34, 1	@ Tag_CPU_unaligned_access
	.eabi_attribute	17, 1	@ Tag_ABI_PCS_GOT_use
	.eabi_attribute	20, 2	@ Tag_ABI_FP_denormal
	.eabi_attribute	21, 0	@ Tag_ABI_FP_exceptions
	.eabi_attribute	23, 1	@ Tag_ABI_FP_number_model
	.eabi_attribute	24, 1	@ Tag_ABI_align_needed
	.eabi_attribute	25, 1	@ Tag_ABI_align_preserved
	.eabi_attribute	28, 1	@ Tag_ABI_VFP_args
	.eabi_attribute	38, 1	@ Tag_ABI_FP_16bit_format
	.eabi_attribute	18, 2	@ Tag_ABI_PCS_wchar_t
	.eabi_attribute	26, 1	@ Tag_ABI_enum_size
	.eabi_attribute	14, 0	@ Tag_ABI_PCS_R9_use
	.file	"Profiler.cc"
	.file	1 "C:\\Users\\cychen38\\Desktop\\M55M1BSP\\SampleCode\\MachineLearning\\ObjectDetection_FreeRTOS_yoloxn\\KEIL" "../../../../ThirdParty/ml-embedded-evaluation-kit/source/profiler/Profiler.cc"
	.file	2 "C:\\Keil_v5\\ARM\\ARMCLANG\\Bin\\..\\include\\libcxx" "string"
	.file	3 "C:\\Keil_v5\\ARM\\ARMCLANG\\Bin\\..\\include\\libcxx" "vector"
	.file	4 "C:\\Keil_v5\\ARM\\ARMCLANG\\Bin\\..\\include\\libcxx\\__utility" "piecewise_construct.h"
	.file	5 "C:\\Keil_v5\\ARM\\ARMCLANG\\Bin\\..\\include\\libcxx\\__string" "char_traits.h"
	.file	6 "C:\\Keil_v5\\ARM\\ARMCLANG\\Bin\\..\\include" "stdio.h"
	.file	7 "C:\\Keil_v5\\ARM\\ARMCLANG\\Bin\\..\\include\\libcxx\\__memory" "allocator.h"
	.file	8 "C:\\Keil_v5\\ARM\\ARMCLANG\\Bin\\..\\include" "stdlib.h"
	.file	9 "C:\\Keil_v5\\ARM\\ARMCLANG\\Bin\\..\\include\\libcxx\\__memory" "allocator_traits.h"
	.file	10 "C:\\Keil_v5\\ARM\\ARMCLANG\\Bin\\..\\include\\libcxx\\__memory" "compressed_pair.h"
	.file	11 "C:\\Keil_v5\\ARM\\ARMCLANG\\Bin\\..\\include\\libcxx" "string_view"
	.file	12 "C:\\Keil_v5\\ARM\\ARMCLANG\\Bin\\..\\include\\libcxx\\__type_traits" "integral_constant.h"
	.file	13 "C:\\Keil_v5\\ARM\\ARMCLANG\\Bin\\..\\include\\libcxx" "limits"
	.file	14 "C:\\Keil_v5\\ARM\\ARMCLANG\\Bin\\..\\include\\libcxx" "iosfwd"
	.file	15 "C:\\Users\\cychen38\\Desktop\\M55M1BSP\\SampleCode\\MachineLearning\\ObjectDetection_FreeRTOS_yoloxn\\KEIL" "../../../../ThirdParty/ml-embedded-evaluation-kit/source/profiler/include\\Profiler.hpp"
	.file	16 "C:\\Keil_v5\\ARM\\ARMCLANG\\Bin\\..\\include" "stdint.h"
	.file	17 "C:\\Keil_v5\\ARM\\ARMCLANG\\Bin\\..\\include\\libcxx\\__type_traits" "type_identity.h"
	.file	18 "C:\\Keil_v5\\ARM\\ARMCLANG\\Bin\\..\\include\\libcxx\\__iterator" "wrap_iter.h"
	.file	19 "C:\\Keil_v5\\ARM\\ARMCLANG\\Bin\\..\\include\\libcxx\\__iterator" "iterator_traits.h"
	.file	20 "C:\\Keil_v5\\ARM\\ARMCLANG\\Bin\\..\\include" "stddef.h"
	.file	21 "C:\\Keil_v5\\ARM\\ARMCLANG\\Bin\\..\\include\\libcxx" "__split_buffer"
	.file	22 "C:\\Keil_v5\\ARM\\ARMCLANG\\Bin\\..\\include\\libcxx\\__type_traits" "remove_reference.h"
	.file	23 "C:\\Keil_v5\\ARM\\ARMCLANG\\Bin\\..\\include\\libcxx\\__algorithm" "copy_n.h"
	.file	24 "C:\\Keil_v5\\ARM\\ARMCLANG\\Bin\\..\\include\\libcxx\\__functional" "binary_function.h"
	.file	25 "C:\\Keil_v5\\ARM\\ARMCLANG\\Bin\\..\\include\\libcxx\\__functional" "operations.h"
	.file	26 "C:\\Keil_v5\\ARM\\ARMCLANG\\Bin\\..\\include\\libcxx\\__utility" "pair.h"
	.file	27 "C:\\Keil_v5\\ARM\\ARMCLANG\\Bin\\..\\include\\libcxx\\__type_traits" "conditional.h"
	.file	28 "C:\\Keil_v5\\ARM\\ARMCLANG\\Bin\\..\\include\\libcxx" "map"
	.file	29 "C:\\Keil_v5\\ARM\\ARMCLANG\\Bin\\..\\include\\libcxx" "__tree"
	.file	30 "C:\\Keil_v5\\ARM\\ARMCLANG\\Bin\\..\\include\\libcxx\\__memory" "pointer_traits.h"
	.file	31 "C:\\Keil_v5\\ARM\\ARMCLANG\\Bin\\..\\include\\libcxx\\__memory" "unique_ptr.h"
	.file	32 "C:\\Keil_v5\\ARM\\ARMCLANG\\Bin\\..\\include\\libcxx" "stddef.h"
	.file	33 "C:\\Keil_v5\\ARM\\ARMCLANG\\Bin\\..\\include\\libcxx\\__type_traits" "add_lvalue_reference.h"
	.file	34 "C:\\Keil_v5\\ARM\\ARMCLANG\\Bin\\..\\include\\libcxx\\__iterator" "iterator.h"
	.file	35 "C:\\Keil_v5\\ARM\\ARMCLANG\\Bin\\..\\include\\libcxx\\__iterator" "reverse_iterator.h"
	.file	36 "C:\\Keil_v5\\ARM\\ARMCLANG\\Bin\\..\\include\\libcxx\\__tuple" "tuple_indices.h"
	.file	37 "C:\\Keil_v5\\ARM\\ARMCLANG\\Bin\\..\\include\\libcxx" "tuple"
	.file	38 "C:\\Users\\cychen38\\Desktop\\M55M1BSP\\SampleCode\\MachineLearning\\ObjectDetection_FreeRTOS_yoloxn\\KEIL" "../ProfilerCounter/include\\pmu_counter.h"
	.file	39 "C:\\Keil_v5\\ARM\\ARMCLANG\\Bin\\..\\include\\libcxx" "cstddef"
	.file	40 "C:\\Keil_v5\\ARM\\ARMCLANG\\Bin\\..\\include\\libcxx" "cstdint"
	.file	41 "C:\\Keil_v5\\ARM\\ARMCLANG\\Bin\\..\\include" "string.h"
	.file	42 "C:\\Keil_v5\\ARM\\ARMCLANG\\Bin\\..\\include\\libcxx" "cstring"
	.file	43 "C:\\Keil_v5\\ARM\\ARMCLANG\\Bin\\..\\include\\libcxx" "string.h"
	.file	44 "C:\\Keil_v5\\ARM\\ARMCLANG\\Bin\\..\\include" "wchar.h"
	.file	45 "C:\\Keil_v5\\ARM\\ARMCLANG\\Bin\\..\\include\\libcxx" "__mbstate_t.h"
	.file	46 "C:\\Keil_v5\\ARM\\ARMCLANG\\Bin\\..\\include\\libcxx" "cstdlib"
	.file	47 "C:\\Keil_v5\\ARM\\ARMCLANG\\Bin\\..\\include\\libcxx" "stdlib.h"
	.file	48 "C:\\Keil_v5\\ARM\\ARMCLANG\\Bin\\..\\include" "math.h"
	.file	49 "C:\\Keil_v5\\ARM\\ARMCLANG\\Bin\\..\\include\\libcxx" "math.h"
	.file	50 "C:\\Keil_v5\\ARM\\ARMCLANG\\Bin\\..\\include\\libcxx" "cmath"
	.file	51 "C:\\Keil_v5\\ARM\\ARMCLANG\\Bin\\..\\include\\libcxx" "cstdio"
	.file	52 "C:\\Keil_v5\\ARM\\ARMCLANG\\Bin\\..\\include" "ctype.h"
	.file	53 "C:\\Keil_v5\\ARM\\ARMCLANG\\Bin\\..\\include\\libcxx" "cctype"
	.file	54 "C:\\Keil_v5\\ARM\\ARMCLANG\\Bin\\..\\include" "wctype.h"
	.file	55 "C:\\Keil_v5\\ARM\\ARMCLANG\\Bin\\..\\include\\libcxx" "cwctype"
	.file	56 "C:\\Keil_v5\\ARM\\ARMCLANG\\Bin\\..\\include\\libcxx" "cwchar"
	.file	57 "C:\\Keil_v5\\ARM\\ARMCLANG\\Bin\\..\\include\\libcxx" "wchar.h"
	.file	58 "C:\\Keil_v5\\ARM\\ARMCLANG\\Bin\\..\\include" "time.h"
	.file	59 "C:\\Keil_v5\\ARM\\ARMCLANG\\Bin\\..\\include\\libcxx" "ctime"
	.section	.text._ZN3arm3app8ProfilerC2Ev,"ax",%progbits
	.hidden	_ZN3arm3app8ProfilerC2Ev        @ -- Begin function _ZN3arm3app8ProfilerC2Ev
	.globl	_ZN3arm3app8ProfilerC2Ev
	.p2align	2
	.type	_ZN3arm3app8ProfilerC2Ev,%function
	.code	16                              @ @_ZN3arm3app8ProfilerC2Ev
	.thumb_func
_ZN3arm3app8ProfilerC2Ev:
.Lfunc_begin0:
	.loc	1 27 0                          @ ../../../../ThirdParty/ml-embedded-evaluation-kit/source/profiler/Profiler.cc:27:0
	.fnstart
	.cfi_sections .debug_frame
	.cfi_startproc
@ %bb.0:
	@DEBUG_VALUE: Profiler:this <- $r0
	@DEBUG_VALUE: Profiler:this <- $r0
	@DEBUG_VALUE: map:this <- $r0
	@DEBUG_VALUE: __tree:this <- $r0
	.save	{r4, r5, r6, lr}
	push	{r4, r5, r6, lr}
	.cfi_def_cfa_offset 16
	.cfi_offset lr, -4
	.cfi_offset r6, -8
	.cfi_offset r5, -12
	.cfi_offset r4, -16
	movs	r6, #0
	@DEBUG_VALUE: __tree:this <- $r4
	@DEBUG_VALUE: map:this <- $r4
	@DEBUG_VALUE: Profiler:this <- $r4
	mov	r4, r0
.Ltmp0:
	@DEBUG_VALUE: __tree:__comp <- undef
	@DEBUG_VALUE: Profiler:this <- $r4
	.loc	29 728 35 prologue_end          @ C:\Keil_v5\ARM\ARMCLANG\Bin\..\include\libcxx\__tree:728:35
	str	r6, [r0, #4]!
.Ltmp1:
	@DEBUG_VALUE: __compressed_pair_elem<int, void>:this <- [DW_OP_plus_uconst 8, DW_OP_stack_value] $r4
	@DEBUG_VALUE: __compressed_pair<int, const std::__2::__map_value_compare<std::__2::basic_string<char, std::__2::char_traits<char>, std::__2::allocator<char> >, std::__2::__value_type<std::__2::basic_string<char, std::__2::char_traits<char>, std::__2::allocator<char> >, std::__2::vector<arm::app::Statistics, std::__2::allocator<arm::app::Statistics> > >, std::__2::less<std::__2::basic_string<char, std::__2::char_traits<char>, std::__2::allocator<char> > >, true> &>:this <- [DW_OP_plus_uconst 8, DW_OP_stack_value] $r4
	@DEBUG_VALUE: __compressed_pair_elem<int, void>:__u <- undef
	@DEBUG_VALUE: __compressed_pair<int, const std::__2::__map_value_compare<std::__2::basic_string<char, std::__2::char_traits<char>, std::__2::allocator<char> >, std::__2::__value_type<std::__2::basic_string<char, std::__2::char_traits<char>, std::__2::allocator<char> >, std::__2::vector<arm::app::Statistics, std::__2::allocator<arm::app::Statistics> > >, std::__2::less<std::__2::basic_string<char, std::__2::char_traits<char>, std::__2::allocator<char> > >, true> &>:__t2 <- undef
	@DEBUG_VALUE: __compressed_pair<int, const std::__2::__map_value_compare<std::__2::basic_string<char, std::__2::char_traits<char>, std::__2::allocator<char> >, std::__2::__value_type<std::__2::basic_string<char, std::__2::char_traits<char>, std::__2::allocator<char> >, std::__2::vector<arm::app::Statistics, std::__2::allocator<arm::app::Statistics> > >, std::__2::less<std::__2::basic_string<char, std::__2::char_traits<char>, std::__2::allocator<char> > >, true> &>:__t1 <- undef
	@DEBUG_VALUE: __tree_end_node:this <- $r0
	@DEBUG_VALUE: __compressed_pair_elem:this <- $r0
	@DEBUG_VALUE: __compressed_pair<true, void>:this <- $r0
	.loc	15 102 38                       @ ../../../../ThirdParty/ml-embedded-evaluation-kit/source/profiler/include\Profiler.hpp:102:38
	movs	r1, #165
.Ltmp2:
	.loc	29 1548 20                      @ C:\Keil_v5\ARM\ARMCLANG\Bin\..\include\libcxx\__tree:1548:20
	str	r0, [r4]
.Ltmp3:
	.loc	15 102 28                       @ ../../../../ThirdParty/ml-embedded-evaluation-kit/source/profiler/include\Profiler.hpp:102:28
	add.w	r0, r4, #16
.Ltmp4:
	.loc	10 41 48                        @ C:\Keil_v5\ARM\ARMCLANG\Bin\..\include\libcxx\__memory/compressed_pair.h:41:48
	str	r6, [r4, #8]
.Ltmp5:
	.loc	15 103 28                       @ ../../../../ThirdParty/ml-embedded-evaluation-kit/source/profiler/include\Profiler.hpp:103:28
	add.w	r5, r4, #184
	.loc	15 104 28                       @ ../../../../ThirdParty/ml-embedded-evaluation-kit/source/profiler/include\Profiler.hpp:104:28
	strb.w	r6, [r4, #352]
	.loc	15 102 38                       @ ../../../../ThirdParty/ml-embedded-evaluation-kit/source/profiler/include\Profiler.hpp:102:38
	bl	__aeabi_memclr8
.Ltmp6:
	.loc	15 103 39                       @ ../../../../ThirdParty/ml-embedded-evaluation-kit/source/profiler/include\Profiler.hpp:103:39
	mov	r0, r5
	movs	r1, #165
	bl	__aeabi_memclr8
.Ltmp7:
	.loc	15 0 39 is_stmt 0               @ ../../../../ThirdParty/ml-embedded-evaluation-kit/source/profiler/include\Profiler.hpp:0:39
	movs	r0, #7
.Ltmp8:
	@DEBUG_VALUE: __set_short_size:this <- [DW_OP_plus_uconst 356, DW_OP_stack_value] $r4
	@DEBUG_VALUE: __init:this <- [DW_OP_plus_uconst 356, DW_OP_stack_value] $r4
	@DEBUG_VALUE: __set_short_size:__s <- 7
	@DEBUG_VALUE: __init:__sz <- 7
	@DEBUG_VALUE: basic_string<std::nullptr_t>:this <- [DW_OP_plus_uconst 356, DW_OP_stack_value] $r4
	.loc	5 202 73 is_stmt 1              @ C:\Keil_v5\ARM\ARMCLANG\Bin\..\include\libcxx\__string/char_traits.h:202:73
	strb.w	r6, [r4, #363]
.Ltmp9:
	@DEBUG_VALUE: __init:__sz <- 7
	.loc	2 1580 37                       @ C:\Keil_v5\ARM\ARMCLANG\Bin\..\include\libcxx\string:1580:37
	strb.w	r0, [r4, #367]
	movw	r0, #28245
	movt	r0, #28267
.Ltmp10:
	@DEBUG_VALUE: __copy_impl<const char, char, void>:__result <- [DW_OP_plus_uconst 356, DW_OP_stack_value] $r4
	@DEBUG_VALUE: __copy<const char *, const char *, char *, 0>:__result <- [DW_OP_plus_uconst 356, DW_OP_stack_value] $r4
	@DEBUG_VALUE: copy<const char *, char *>:__result <- [DW_OP_plus_uconst 356, DW_OP_stack_value] $r4
	@DEBUG_VALUE: copy_n<const char *, unsigned int, char *>:__result <- [DW_OP_plus_uconst 356, DW_OP_stack_value] $r4
	@DEBUG_VALUE: __copy_impl<const char, char, void>:__n <- 7
	@DEBUG_VALUE: __copy_impl<const char, char, void>:__last <- [DW_OP_LLVM_arg 0, DW_OP_LLVM_arg 0, DW_OP_constu 1, DW_OP_mul, DW_OP_plus, DW_OP_stack_value] undef
	@DEBUG_VALUE: __copy<const char *, const char *, char *, 0>:__range <- [DW_OP_LLVM_arg 0, DW_OP_LLVM_arg 0, DW_OP_constu 1, DW_OP_mul, DW_OP_plus, DW_OP_stack_value, DW_OP_LLVM_fragment 32 32] undef
	@DEBUG_VALUE: __copy<const char *, const char *, char *, 0>:__last <- [DW_OP_LLVM_arg 0, DW_OP_LLVM_arg 0, DW_OP_constu 1, DW_OP_mul, DW_OP_plus, DW_OP_stack_value] undef
	@DEBUG_VALUE: copy<const char *, char *>:__last <- [DW_OP_LLVM_arg 0, DW_OP_LLVM_arg 0, DW_OP_constu 1, DW_OP_mul, DW_OP_plus, DW_OP_stack_value] undef
	@DEBUG_VALUE: copy_n<const char *, unsigned int, char *>:__n <- 7
	@DEBUG_VALUE: copy_n<const char *, unsigned int, char *>:__orig_n <- 7
	@DEBUG_VALUE: copy:__s1 <- [DW_OP_plus_uconst 356, DW_OP_stack_value] $r4
	@DEBUG_VALUE: __init:__p <- [DW_OP_plus_uconst 356, DW_OP_stack_value] $r4
	@DEBUG_VALUE: copy:__n <- 7
	.file	60 "C:\\Keil_v5\\ARM\\ARMCLANG\\Bin\\..\\include\\libcxx\\__algorithm" "copy.h"
	.loc	60 56 5                         @ C:\Keil_v5\ARM\ARMCLANG\Bin\..\include\libcxx\__algorithm/copy.h:56:5
	str.w	r0, [r4, #356]
	movw	r0, #28526
	movt	r0, #28279
	str.w	r0, [r4, #359]
.Ltmp11:
	@DEBUG_VALUE: __copy<const char *, const char *, char *, 0>:__ret <- [DW_OP_LLVM_arg 0, DW_OP_plus_uconst 356, DW_OP_LLVM_arg 1, DW_OP_constu 1, DW_OP_mul, DW_OP_plus, DW_OP_stack_value, DW_OP_LLVM_fragment 32 32] $r4, 7
	@DEBUG_VALUE: assign:__c2 <- undef
	@DEBUG_VALUE: __copy<const char *, const char *, char *, 0>:__ret <- [DW_OP_LLVM_arg 0, DW_OP_LLVM_arg 1, DW_OP_constu 1, DW_OP_mul, DW_OP_plus, DW_OP_stack_value, DW_OP_LLVM_fragment 0 32] undef
	@DEBUG_VALUE: __copy_impl<const char, char, void>:__first <- undef
	@DEBUG_VALUE: __copy<const char *, const char *, char *, 0>:__range <- [DW_OP_LLVM_fragment 0 32] undef
	@DEBUG_VALUE: __copy<const char *, const char *, char *, 0>:__first <- undef
	@DEBUG_VALUE: copy<const char *, char *>:__first <- undef
	@DEBUG_VALUE: copy_n<const char *, unsigned int, char *>:__first <- undef
	@DEBUG_VALUE: copy:__s2 <- undef
	@DEBUG_VALUE: __init:__s <- undef
	@DEBUG_VALUE: basic_string<std::nullptr_t>:__s <- undef
	@DEBUG_VALUE: Profiler:name <- undef
	.loc	1 27 6                          @ ../../../../ThirdParty/ml-embedded-evaluation-kit/source/profiler/Profiler.cc:27:6
	mov	r0, r4
.Ltmp12:
	@DEBUG_VALUE: Profiler:this <- $r0
	pop	{r4, r5, r6, pc}
.Ltmp13:
.Lfunc_end0:
	.size	_ZN3arm3app8ProfilerC2Ev, .Lfunc_end0-_ZN3arm3app8ProfilerC2Ev
	.cfi_endproc
	.file	61 "C:\\Keil_v5\\ARM\\ARMCLANG\\Bin\\..\\include\\libcxx\\__memory" "allocate_at_least.h"
	.file	62 "C:\\Keil_v5\\ARM\\ARMCLANG\\Bin\\..\\include\\libcxx\\__type_traits" "enable_if.h"
	.cantunwind
	.fnend
                                        @ -- End function
	.section	.text._ZN3arm3app8ProfilerC2EPKc,"ax",%progbits
	.hidden	_ZN3arm3app8ProfilerC2EPKc      @ -- Begin function _ZN3arm3app8ProfilerC2EPKc
	.globl	_ZN3arm3app8ProfilerC2EPKc
	.p2align	2
	.type	_ZN3arm3app8ProfilerC2EPKc,%function
	.code	16                              @ @_ZN3arm3app8ProfilerC2EPKc
	.thumb_func
_ZN3arm3app8ProfilerC2EPKc:
.Lfunc_begin1:
	.loc	1 31 0                          @ ../../../../ThirdParty/ml-embedded-evaluation-kit/source/profiler/Profiler.cc:31:0
	.fnstart
	.cfi_startproc
@ %bb.0:
	@DEBUG_VALUE: Profiler:this <- $r0
	@DEBUG_VALUE: Profiler:name <- $r1
	@DEBUG_VALUE: map:this <- $r0
	@DEBUG_VALUE: __tree:this <- $r0
	.save	{r4, r5, r6, r7, lr}
	push	{r4, r5, r6, r7, lr}
	.cfi_def_cfa_offset 20
	.cfi_offset lr, -4
	.cfi_offset r7, -8
	.cfi_offset r6, -12
	.cfi_offset r5, -16
	.cfi_offset r4, -20
	.pad	#4
	sub	sp, #4
	.cfi_def_cfa_offset 24
	mov	r5, r1
.Ltmp14:
	@DEBUG_VALUE: Profiler:name <- $r5
	@DEBUG_VALUE: Profiler:name <- $r5
	movs	r1, #0
	@DEBUG_VALUE: __tree:this <- $r4
	@DEBUG_VALUE: map:this <- $r4
	mov	r4, r0
.Ltmp15:
	@DEBUG_VALUE: __tree:__comp <- undef
	@DEBUG_VALUE: Profiler:this <- $r4
	.loc	29 728 35 prologue_end          @ C:\Keil_v5\ARM\ARMCLANG\Bin\..\include\libcxx\__tree:728:35
	str	r1, [r0, #4]!
.Ltmp16:
	@DEBUG_VALUE: __compressed_pair_elem<int, void>:this <- [DW_OP_plus_uconst 8, DW_OP_stack_value] $r4
	@DEBUG_VALUE: __compressed_pair<int, const std::__2::__map_value_compare<std::__2::basic_string<char, std::__2::char_traits<char>, std::__2::allocator<char> >, std::__2::__value_type<std::__2::basic_string<char, std::__2::char_traits<char>, std::__2::allocator<char> >, std::__2::vector<arm::app::Statistics, std::__2::allocator<arm::app::Statistics> > >, std::__2::less<std::__2::basic_string<char, std::__2::char_traits<char>, std::__2::allocator<char> > >, true> &>:this <- [DW_OP_plus_uconst 8, DW_OP_stack_value] $r4
	@DEBUG_VALUE: __compressed_pair_elem<int, void>:__u <- undef
	@DEBUG_VALUE: __compressed_pair<int, const std::__2::__map_value_compare<std::__2::basic_string<char, std::__2::char_traits<char>, std::__2::allocator<char> >, std::__2::__value_type<std::__2::basic_string<char, std::__2::char_traits<char>, std::__2::allocator<char> >, std::__2::vector<arm::app::Statistics, std::__2::allocator<arm::app::Statistics> > >, std::__2::less<std::__2::basic_string<char, std::__2::char_traits<char>, std::__2::allocator<char> > >, true> &>:__t2 <- undef
	@DEBUG_VALUE: __compressed_pair<int, const std::__2::__map_value_compare<std::__2::basic_string<char, std::__2::char_traits<char>, std::__2::allocator<char> >, std::__2::__value_type<std::__2::basic_string<char, std::__2::char_traits<char>, std::__2::allocator<char> >, std::__2::vector<arm::app::Statistics, std::__2::allocator<arm::app::Statistics> > >, std::__2::less<std::__2::basic_string<char, std::__2::char_traits<char>, std::__2::allocator<char> > >, true> &>:__t1 <- undef
	@DEBUG_VALUE: __tree_end_node:this <- $r0
	@DEBUG_VALUE: __compressed_pair_elem:this <- $r0
	@DEBUG_VALUE: __compressed_pair<true, void>:this <- $r0
	.loc	10 41 48                        @ C:\Keil_v5\ARM\ARMCLANG\Bin\..\include\libcxx\__memory/compressed_pair.h:41:48
	str	r1, [r4, #8]
.Ltmp17:
	.loc	15 103 28                       @ ../../../../ThirdParty/ml-embedded-evaluation-kit/source/profiler/include\Profiler.hpp:103:28
	add.w	r6, r4, #184
.Ltmp18:
	.loc	29 1548 20                      @ C:\Keil_v5\ARM\ARMCLANG\Bin\..\include\libcxx\__tree:1548:20
	str	r0, [r4]
.Ltmp19:
	.loc	15 102 28                       @ ../../../../ThirdParty/ml-embedded-evaluation-kit/source/profiler/include\Profiler.hpp:102:28
	add.w	r0, r4, #16
	.loc	15 104 28                       @ ../../../../ThirdParty/ml-embedded-evaluation-kit/source/profiler/include\Profiler.hpp:104:28
	strb.w	r1, [r4, #352]
.Ltmp20:
	@DEBUG_VALUE: basic_string<std::nullptr_t>:this <- undef
	.loc	15 102 38                       @ ../../../../ThirdParty/ml-embedded-evaluation-kit/source/profiler/include\Profiler.hpp:102:38
	movs	r1, #165
	bl	__aeabi_memclr8
.Ltmp21:
	.loc	15 103 39                       @ ../../../../ThirdParty/ml-embedded-evaluation-kit/source/profiler/include\Profiler.hpp:103:39
	mov	r0, r6
	movs	r1, #165
	bl	__aeabi_memclr8
.Ltmp22:
	@DEBUG_VALUE: length:__s <- $r5
	@DEBUG_VALUE: basic_string<std::nullptr_t>:__s <- $r5
	.loc	5 222 14                        @ C:\Keil_v5\ARM\ARMCLANG\Bin\..\include\libcxx\__string/char_traits.h:222:14
	mov	r0, r5
	bl	strlen
.Ltmp23:
	mov	r6, r0
	movw	r0, #65520
	movt	r0, #32767
.Ltmp24:
	@DEBUG_VALUE: __init:__s <- $r5
	@DEBUG_VALUE: __init:this <- undef
	@DEBUG_VALUE: __init:__sz <- $r6
	.loc	2 1960 9                        @ C:\Keil_v5\ARM\ARMCLANG\Bin\..\include\libcxx\string:1960:9
	cmp	r6, r0
	bhs	.LBB1_6
.Ltmp25:
@ %bb.1:
	@DEBUG_VALUE: __init:__sz <- $r6
	@DEBUG_VALUE: __init:__s <- $r5
	@DEBUG_VALUE: basic_string<std::nullptr_t>:__s <- $r5
	@DEBUG_VALUE: Profiler:this <- $r4
	@DEBUG_VALUE: Profiler:name <- $r5
	@DEBUG_VALUE: basic_string<std::nullptr_t>:this <- undef
	@DEBUG_VALUE: __init:this <- undef
	@DEBUG_VALUE: __fits_in_sso:__sz <- $r6
	.loc	2 1963 9                        @ C:\Keil_v5\ARM\ARMCLANG\Bin\..\include\libcxx\string:1963:9
	cmp	r6, #11
	bhs	.LBB1_3
.Ltmp26:
@ %bb.2:
	@DEBUG_VALUE: __init:__sz <- $r6
	@DEBUG_VALUE: __init:__s <- $r5
	@DEBUG_VALUE: basic_string<std::nullptr_t>:__s <- $r5
	@DEBUG_VALUE: Profiler:this <- $r4
	@DEBUG_VALUE: Profiler:name <- $r5
	.loc	1 0 0 is_stmt 0                 @ ../../../../ThirdParty/ml-embedded-evaluation-kit/source/profiler/Profiler.cc:0:0
	add.w	r0, r4, #356
.Ltmp27:
	@DEBUG_VALUE: __set_short_size:__s <- $r6
	@DEBUG_VALUE: __set_short_size:this <- $r0
	@DEBUG_VALUE: copy:__n <- $r6
	@DEBUG_VALUE: copy:__s2 <- $r5
	@DEBUG_VALUE: __init:this <- $r0
	@DEBUG_VALUE: basic_string<std::nullptr_t>:this <- $r0
	.loc	5 236 13 is_stmt 1              @ C:\Keil_v5\ARM\ARMCLANG\Bin\..\include\libcxx\__string/char_traits.h:236:13
	add.w	r7, r0, r6
.Ltmp28:
	@DEBUG_VALUE: __copy_impl<const char, char, void>:__result <- $r0
	@DEBUG_VALUE: __copy<const char *, const char *, char *, 0>:__result <- $r0
	@DEBUG_VALUE: copy<const char *, char *>:__result <- $r0
	@DEBUG_VALUE: copy_n<const char *, unsigned int, char *>:__result <- $r0
	@DEBUG_VALUE: __copy_impl<const char, char, void>:__n <- $r6
	@DEBUG_VALUE: __copy_impl<const char, char, void>:__last <- [DW_OP_LLVM_arg 0, DW_OP_LLVM_arg 1, DW_OP_constu 1, DW_OP_mul, DW_OP_plus, DW_OP_stack_value] $r5, $r6
	@DEBUG_VALUE: __copy_impl<const char, char, void>:__first <- $r5
	@DEBUG_VALUE: __copy<const char *, const char *, char *, 0>:__range <- [DW_OP_LLVM_arg 0, DW_OP_LLVM_arg 1, DW_OP_constu 1, DW_OP_mul, DW_OP_plus, DW_OP_stack_value, DW_OP_LLVM_fragment 32 32] $r5, $r6
	@DEBUG_VALUE: __copy<const char *, const char *, char *, 0>:__range <- [DW_OP_LLVM_fragment 0 32] $r5
	@DEBUG_VALUE: __copy<const char *, const char *, char *, 0>:__last <- [DW_OP_LLVM_arg 0, DW_OP_LLVM_arg 1, DW_OP_constu 1, DW_OP_mul, DW_OP_plus, DW_OP_stack_value] $r5, $r6
	@DEBUG_VALUE: __copy<const char *, const char *, char *, 0>:__first <- $r5
	@DEBUG_VALUE: copy<const char *, char *>:__last <- [DW_OP_LLVM_arg 0, DW_OP_LLVM_arg 1, DW_OP_constu 1, DW_OP_mul, DW_OP_plus, DW_OP_stack_value] $r5, $r6
	@DEBUG_VALUE: copy<const char *, char *>:__first <- $r5
	@DEBUG_VALUE: copy_n<const char *, unsigned int, char *>:__n <- $r6
	@DEBUG_VALUE: copy_n<const char *, unsigned int, char *>:__orig_n <- $r6
	@DEBUG_VALUE: copy_n<const char *, unsigned int, char *>:__first <- $r5
	.loc	2 1580 37                       @ C:\Keil_v5\ARM\ARMCLANG\Bin\..\include\libcxx\string:1580:37
	strb.w	r6, [r4, #367]
	@DEBUG_VALUE: copy:__s1 <- undef
.Ltmp29:
	@DEBUG_VALUE: __init:__p <- undef
	.loc	2 0 37 is_stmt 0                @ C:\Keil_v5\ARM\ARMCLANG\Bin\..\include\libcxx\string:0:37
	cbnz	r6, .LBB1_4
	b	.LBB1_5
.Ltmp30:
.LBB1_3:
	@DEBUG_VALUE: __init:__sz <- $r6
	@DEBUG_VALUE: __init:__s <- $r5
	@DEBUG_VALUE: basic_string<std::nullptr_t>:__s <- $r5
	@DEBUG_VALUE: Profiler:this <- $r4
	@DEBUG_VALUE: Profiler:name <- $r5
	@DEBUG_VALUE: __recommend:__s <- $r6
	.loc	2 1640 13 is_stmt 1             @ C:\Keil_v5\ARM\ARMCLANG\Bin\..\include\libcxx\string:1640:13
	orr	r0, r6, #15
.Ltmp31:
	.loc	2 1970 83                       @ C:\Keil_v5\ARM\ARMCLANG\Bin\..\include\libcxx\string:1970:83
	adds	r7, r0, #1
.Ltmp32:
	@DEBUG_VALUE: __libcpp_allocate:__align <- 1
	@DEBUG_VALUE: allocate:this <- undef
	@DEBUG_VALUE: __allocate_at_least<std::__2::allocator<char> >:__alloc <- undef
	@DEBUG_VALUE: __libcpp_operator_new<unsigned int>:__args <- $r7
	@DEBUG_VALUE: __libcpp_allocate:__size <- $r7
	@DEBUG_VALUE: allocate:__n <- $r7
	@DEBUG_VALUE: __allocate_at_least<std::__2::allocator<char> >:__n <- $r7
	.file	63 "C:\\Keil_v5\\ARM\\ARMCLANG\\Bin\\..\\include\\libcxx" "new"
	.loc	63 270 10                       @ C:\Keil_v5\ARM\ARMCLANG\Bin\..\include\libcxx\new:270:10
	mov	r0, r7
	bl	_Znwj
.Ltmp33:
	@DEBUG_VALUE: __set_long_cap:this <- [DW_OP_plus_uconst 356, DW_OP_stack_value] $r4
	@DEBUG_VALUE: __set_long_cap:__s <- $r7
	@DEBUG_VALUE: __allocation <- [DW_OP_LLVM_fragment 32 32] $r7
	@DEBUG_VALUE: __init:__p <- $r0
	@DEBUG_VALUE: __allocation <- [DW_OP_LLVM_fragment 0 32] $r0
	.loc	2 1602 37                       @ C:\Keil_v5\ARM\ARMCLANG\Bin\..\include\libcxx\string:1602:37
	orr	r1, r7, #-2147483648
.Ltmp34:
	@DEBUG_VALUE: __set_long_pointer:this <- $r0
	@DEBUG_VALUE: __set_long_pointer:__p <- $r0
	@DEBUG_VALUE: __init:__p <- [DW_OP_plus_uconst 356, DW_OP_stack_value] $r4
	@DEBUG_VALUE: __set_long_size:this <- [DW_OP_plus_uconst 356, DW_OP_stack_value] $r4
	@DEBUG_VALUE: __set_long_size:__s <- $r6
	.loc	2 1612 35                       @ C:\Keil_v5\ARM\ARMCLANG\Bin\..\include\libcxx\string:1612:35
	strd	r0, r6, [r4, #356]
.Ltmp35:
	.loc	2 1602 37                       @ C:\Keil_v5\ARM\ARMCLANG\Bin\..\include\libcxx\string:1602:37
	str.w	r1, [r4, #364]
.Ltmp36:
	@DEBUG_VALUE: copy:__s1 <- [DW_OP_plus_uconst 356, DW_OP_stack_value] $r4
	@DEBUG_VALUE: copy:__n <- $r6
	@DEBUG_VALUE: copy:__s2 <- $r5
	.loc	5 236 13                        @ C:\Keil_v5\ARM\ARMCLANG\Bin\..\include\libcxx\__string/char_traits.h:236:13
	adds	r7, r0, r6
.Ltmp37:
	@DEBUG_VALUE: __copy_impl<const char, char, void>:__result <- [DW_OP_plus_uconst 356, DW_OP_stack_value] $r4
	@DEBUG_VALUE: __copy<const char *, const char *, char *, 0>:__result <- [DW_OP_plus_uconst 356, DW_OP_stack_value] $r4
	@DEBUG_VALUE: copy<const char *, char *>:__result <- [DW_OP_plus_uconst 356, DW_OP_stack_value] $r4
	@DEBUG_VALUE: copy_n<const char *, unsigned int, char *>:__result <- [DW_OP_plus_uconst 356, DW_OP_stack_value] $r4
	@DEBUG_VALUE: __copy_impl<const char, char, void>:__n <- $r6
	@DEBUG_VALUE: __copy_impl<const char, char, void>:__last <- [DW_OP_LLVM_arg 0, DW_OP_LLVM_arg 1, DW_OP_constu 1, DW_OP_mul, DW_OP_plus, DW_OP_stack_value] $r5, $r6
	@DEBUG_VALUE: __copy_impl<const char, char, void>:__first <- $r5
	@DEBUG_VALUE: __copy<const char *, const char *, char *, 0>:__range <- [DW_OP_LLVM_arg 0, DW_OP_LLVM_arg 1, DW_OP_constu 1, DW_OP_mul, DW_OP_plus, DW_OP_stack_value, DW_OP_LLVM_fragment 32 32] $r5, $r6
	@DEBUG_VALUE: __copy<const char *, const char *, char *, 0>:__range <- [DW_OP_LLVM_fragment 0 32] $r5
	@DEBUG_VALUE: __copy<const char *, const char *, char *, 0>:__last <- [DW_OP_LLVM_arg 0, DW_OP_LLVM_arg 1, DW_OP_constu 1, DW_OP_mul, DW_OP_plus, DW_OP_stack_value] $r5, $r6
	@DEBUG_VALUE: __copy<const char *, const char *, char *, 0>:__first <- $r5
	@DEBUG_VALUE: copy<const char *, char *>:__last <- [DW_OP_LLVM_arg 0, DW_OP_LLVM_arg 1, DW_OP_constu 1, DW_OP_mul, DW_OP_plus, DW_OP_stack_value] $r5, $r6
	@DEBUG_VALUE: copy<const char *, char *>:__first <- $r5
	@DEBUG_VALUE: copy_n<const char *, unsigned int, char *>:__n <- $r6
	@DEBUG_VALUE: copy_n<const char *, unsigned int, char *>:__orig_n <- $r6
	@DEBUG_VALUE: copy_n<const char *, unsigned int, char *>:__first <- $r5
.LBB1_4:
	@DEBUG_VALUE: copy_n<const char *, unsigned int, char *>:__first <- $r5
	@DEBUG_VALUE: copy_n<const char *, unsigned int, char *>:__orig_n <- $r6
	@DEBUG_VALUE: copy_n<const char *, unsigned int, char *>:__n <- $r6
	@DEBUG_VALUE: copy<const char *, char *>:__first <- $r5
	@DEBUG_VALUE: copy<const char *, char *>:__last <- [DW_OP_LLVM_arg 0, DW_OP_LLVM_arg 1, DW_OP_constu 1, DW_OP_mul, DW_OP_plus, DW_OP_stack_value] $r5, $r6
	@DEBUG_VALUE: __copy<const char *, const char *, char *, 0>:__first <- $r5
	@DEBUG_VALUE: __copy<const char *, const char *, char *, 0>:__last <- [DW_OP_LLVM_arg 0, DW_OP_LLVM_arg 1, DW_OP_constu 1, DW_OP_mul, DW_OP_plus, DW_OP_stack_value] $r5, $r6
	@DEBUG_VALUE: __copy<const char *, const char *, char *, 0>:__range <- [DW_OP_LLVM_fragment 0 32] $r5
	@DEBUG_VALUE: __copy<const char *, const char *, char *, 0>:__range <- [DW_OP_LLVM_arg 0, DW_OP_LLVM_arg 1, DW_OP_constu 1, DW_OP_mul, DW_OP_plus, DW_OP_stack_value, DW_OP_LLVM_fragment 32 32] $r5, $r6
	@DEBUG_VALUE: __copy_impl<const char, char, void>:__first <- $r5
	@DEBUG_VALUE: __copy_impl<const char, char, void>:__last <- [DW_OP_LLVM_arg 0, DW_OP_LLVM_arg 1, DW_OP_constu 1, DW_OP_mul, DW_OP_plus, DW_OP_stack_value] $r5, $r6
	@DEBUG_VALUE: __copy_impl<const char, char, void>:__n <- $r6
	@DEBUG_VALUE: copy:__s2 <- $r5
	@DEBUG_VALUE: copy:__n <- $r6
	@DEBUG_VALUE: __init:__sz <- $r6
	@DEBUG_VALUE: __init:__s <- $r5
	@DEBUG_VALUE: basic_string<std::nullptr_t>:__s <- $r5
	@DEBUG_VALUE: Profiler:this <- $r4
	@DEBUG_VALUE: Profiler:name <- $r5
	.loc	60 56 5                         @ C:\Keil_v5\ARM\ARMCLANG\Bin\..\include\libcxx\__algorithm/copy.h:56:5
	mov	r1, r5
	mov	r2, r6
	bl	__aeabi_memmove
.Ltmp38:
.LBB1_5:
	@DEBUG_VALUE: __init:__sz <- $r6
	@DEBUG_VALUE: __init:__s <- $r5
	@DEBUG_VALUE: basic_string<std::nullptr_t>:__s <- $r5
	@DEBUG_VALUE: Profiler:this <- $r4
	@DEBUG_VALUE: Profiler:name <- $r5
	@DEBUG_VALUE: __copy<const char *, const char *, char *, 0>:__ret <- [DW_OP_LLVM_arg 0, DW_OP_LLVM_arg 0, DW_OP_constu 1, DW_OP_mul, DW_OP_plus, DW_OP_stack_value, DW_OP_LLVM_fragment 0 32] undef
	@DEBUG_VALUE: __copy<const char *, const char *, char *, 0>:__ret <- [DW_OP_LLVM_arg 0, DW_OP_LLVM_arg 0, DW_OP_constu 1, DW_OP_mul, DW_OP_plus, DW_OP_stack_value, DW_OP_LLVM_fragment 32 32] undef
	@DEBUG_VALUE: assign:__c2 <- undef
	.loc	60 0 5 is_stmt 0                @ C:\Keil_v5\ARM\ARMCLANG\Bin\..\include\libcxx\__algorithm/copy.h:0:5
	movs	r1, #0
	.loc	1 31 6 is_stmt 1                @ ../../../../ThirdParty/ml-embedded-evaluation-kit/source/profiler/Profiler.cc:31:6
	mov	r0, r4
.Ltmp39:
	@DEBUG_VALUE: Profiler:this <- $r0
	.loc	5 202 73                        @ C:\Keil_v5\ARM\ARMCLANG\Bin\..\include\libcxx\__string/char_traits.h:202:73
	strb	r1, [r7]
.Ltmp40:
	.loc	1 31 6                          @ ../../../../ThirdParty/ml-embedded-evaluation-kit/source/profiler/Profiler.cc:31:6
	add	sp, #4
	pop	{r4, r5, r6, r7, pc}
.Ltmp41:
.LBB1_6:
	@DEBUG_VALUE: __init:__sz <- $r6
	@DEBUG_VALUE: __init:__s <- $r5
	@DEBUG_VALUE: basic_string<std::nullptr_t>:__s <- $r5
	@DEBUG_VALUE: Profiler:this <- $r4
	@DEBUG_VALUE: Profiler:name <- $r5
	@DEBUG_VALUE: __throw_length_error:this <- undef
	.file	64 "C:\\Keil_v5\\ARM\\ARMCLANG\\Bin\\..\\include\\libcxx" "stdexcept"
	.loc	64 260 5                        @ C:\Keil_v5\ARM\ARMCLANG\Bin\..\include\libcxx\stdexcept:260:5
	bl	abort
.Ltmp42:
.Lfunc_end1:
	.size	_ZN3arm3app8ProfilerC2EPKc, .Lfunc_end1-_ZN3arm3app8ProfilerC2EPKc
	.cfi_endproc
	.cantunwind
	.fnend
                                        @ -- End function
	.section	.text._ZN3arm3app8Profiler14StartProfilingEPKc,"ax",%progbits
	.hidden	_ZN3arm3app8Profiler14StartProfilingEPKc @ -- Begin function _ZN3arm3app8Profiler14StartProfilingEPKc
	.globl	_ZN3arm3app8Profiler14StartProfilingEPKc
	.p2align	2
	.type	_ZN3arm3app8Profiler14StartProfilingEPKc,%function
	.code	16                              @ @_ZN3arm3app8Profiler14StartProfilingEPKc
	.thumb_func
_ZN3arm3app8Profiler14StartProfilingEPKc:
.Lfunc_begin2:
	.loc	1 34 0                          @ ../../../../ThirdParty/ml-embedded-evaluation-kit/source/profiler/Profiler.cc:34:0
	.fnstart
	.cfi_startproc
@ %bb.0:
	@DEBUG_VALUE: StartProfiling:this <- $r0
	@DEBUG_VALUE: StartProfiling:name <- $r1
	@DEBUG_VALUE: StartProfiling:name <- $r1
	.save	{r4, r5, r6, r7, r8, r9, lr}
	push.w	{r4, r5, r6, r7, r8, r9, lr}
	.cfi_def_cfa_offset 28
	.cfi_offset lr, -4
	.cfi_offset r9, -8
	.cfi_offset r8, -12
	.cfi_offset r7, -16
	.cfi_offset r6, -20
	.cfi_offset r5, -24
	.cfi_offset r4, -28
	.pad	#36
	sub	sp, #36
	.cfi_def_cfa_offset 64
	mov	r4, r0
.Ltmp43:
	@DEBUG_VALUE: StartProfiling:this <- $r4
	@DEBUG_VALUE: StartProfiling:this <- $r4
	.loc	1 35 13 prologue_end            @ ../../../../ThirdParty/ml-embedded-evaluation-kit/source/profiler/Profiler.cc:35:13
	cbz	r1, .LBB2_9
.Ltmp44:
@ %bb.1:
	@DEBUG_VALUE: StartProfiling:this <- $r4
	@DEBUG_VALUE: StartProfiling:name <- $r1
	.loc	5 222 14                        @ C:\Keil_v5\ARM\ARMCLANG\Bin\..\include\libcxx\__string/char_traits.h:222:14
	mov	r0, r1
	mov	r5, r1
.Ltmp45:
	@DEBUG_VALUE: StartProfiling:name <- $r5
	@DEBUG_VALUE: StartProfiling:name <- $r5
	@DEBUG_VALUE: SetName:this <- $r4
	@DEBUG_VALUE: SetName:str <- $r5
	@DEBUG_VALUE: basic_string<std::nullptr_t>:this <- [DW_OP_plus_uconst 4, DW_OP_stack_value] $sp
	@DEBUG_VALUE: basic_string<std::nullptr_t>:__s <- $r5
	@DEBUG_VALUE: length:__s <- $r5
	bl	strlen
.Ltmp46:
	mov	r6, r0
	movw	r0, #65520
	movt	r0, #32767
.Ltmp47:
	@DEBUG_VALUE: __init:__s <- $r5
	@DEBUG_VALUE: __init:this <- [DW_OP_plus_uconst 4, DW_OP_stack_value] $sp
	@DEBUG_VALUE: __init:__sz <- $r6
	.loc	2 1960 9                        @ C:\Keil_v5\ARM\ARMCLANG\Bin\..\include\libcxx\string:1960:9
	cmp	r6, r0
	bhs.w	.LBB2_32
.Ltmp48:
@ %bb.2:
	@DEBUG_VALUE: __init:__sz <- $r6
	@DEBUG_VALUE: __init:this <- [DW_OP_plus_uconst 4, DW_OP_stack_value] $sp
	@DEBUG_VALUE: __init:__s <- $r5
	@DEBUG_VALUE: basic_string<std::nullptr_t>:__s <- $r5
	@DEBUG_VALUE: basic_string<std::nullptr_t>:this <- [DW_OP_plus_uconst 4, DW_OP_stack_value] $sp
	@DEBUG_VALUE: SetName:str <- $r5
	@DEBUG_VALUE: SetName:this <- $r4
	@DEBUG_VALUE: StartProfiling:name <- $r5
	@DEBUG_VALUE: StartProfiling:this <- $r4
	@DEBUG_VALUE: __fits_in_sso:__sz <- $r6
	.loc	2 1963 9                        @ C:\Keil_v5\ARM\ARMCLANG\Bin\..\include\libcxx\string:1963:9
	cmp	r6, #11
	bhs	.LBB2_4
.Ltmp49:
@ %bb.3:
	@DEBUG_VALUE: __init:__sz <- $r6
	@DEBUG_VALUE: __init:this <- [DW_OP_plus_uconst 4, DW_OP_stack_value] $sp
	@DEBUG_VALUE: __init:__s <- $r5
	@DEBUG_VALUE: basic_string<std::nullptr_t>:__s <- $r5
	@DEBUG_VALUE: basic_string<std::nullptr_t>:this <- [DW_OP_plus_uconst 4, DW_OP_stack_value] $sp
	@DEBUG_VALUE: SetName:str <- $r5
	@DEBUG_VALUE: SetName:this <- $r4
	@DEBUG_VALUE: StartProfiling:name <- $r5
	@DEBUG_VALUE: StartProfiling:this <- $r4
	@DEBUG_VALUE: __set_short_size:this <- [DW_OP_plus_uconst 4, DW_OP_stack_value] $sp
	@DEBUG_VALUE: __set_short_size:__s <- $r6
	.loc	2 0 9 is_stmt 0                 @ C:\Keil_v5\ARM\ARMCLANG\Bin\..\include\libcxx\string:0:9
	add	r0, sp, #4
.Ltmp50:
	@DEBUG_VALUE: copy:__n <- $r6
	@DEBUG_VALUE: copy:__s2 <- $r5
	@DEBUG_VALUE: copy:__s1 <- [DW_OP_plus_uconst 4, DW_OP_stack_value] $sp
	@DEBUG_VALUE: __init:__p <- [DW_OP_plus_uconst 4, DW_OP_stack_value] $sp
	.loc	5 236 13 is_stmt 1              @ C:\Keil_v5\ARM\ARMCLANG\Bin\..\include\libcxx\__string/char_traits.h:236:13
	add.w	r7, r0, r6
.Ltmp51:
	@DEBUG_VALUE: __copy_impl<const char, char, void>:__n <- $r6
	@DEBUG_VALUE: __copy_impl<const char, char, void>:__result <- [DW_OP_plus_uconst 4, DW_OP_stack_value] $sp
	@DEBUG_VALUE: __copy_impl<const char, char, void>:__last <- [DW_OP_LLVM_arg 0, DW_OP_LLVM_arg 1, DW_OP_constu 1, DW_OP_mul, DW_OP_plus, DW_OP_stack_value] $r5, $r6
	@DEBUG_VALUE: __copy_impl<const char, char, void>:__first <- $r5
	@DEBUG_VALUE: __copy<const char *, const char *, char *, 0>:__range <- [DW_OP_LLVM_arg 0, DW_OP_LLVM_arg 1, DW_OP_constu 1, DW_OP_mul, DW_OP_plus, DW_OP_stack_value, DW_OP_LLVM_fragment 32 32] $r5, $r6
	@DEBUG_VALUE: __copy<const char *, const char *, char *, 0>:__range <- [DW_OP_LLVM_fragment 0 32] $r5
	@DEBUG_VALUE: __copy<const char *, const char *, char *, 0>:__result <- [DW_OP_plus_uconst 4, DW_OP_stack_value] $sp
	@DEBUG_VALUE: __copy<const char *, const char *, char *, 0>:__last <- [DW_OP_LLVM_arg 0, DW_OP_LLVM_arg 1, DW_OP_constu 1, DW_OP_mul, DW_OP_plus, DW_OP_stack_value] $r5, $r6
	@DEBUG_VALUE: __copy<const char *, const char *, char *, 0>:__first <- $r5
	@DEBUG_VALUE: copy<const char *, char *>:__result <- [DW_OP_plus_uconst 4, DW_OP_stack_value] $sp
	@DEBUG_VALUE: copy<const char *, char *>:__last <- [DW_OP_LLVM_arg 0, DW_OP_LLVM_arg 1, DW_OP_constu 1, DW_OP_mul, DW_OP_plus, DW_OP_stack_value] $r5, $r6
	@DEBUG_VALUE: copy<const char *, char *>:__first <- $r5
	@DEBUG_VALUE: copy_n<const char *, unsigned int, char *>:__n <- $r6
	@DEBUG_VALUE: copy_n<const char *, unsigned int, char *>:__result <- [DW_OP_plus_uconst 4, DW_OP_stack_value] $sp
	@DEBUG_VALUE: copy_n<const char *, unsigned int, char *>:__orig_n <- $r6
	@DEBUG_VALUE: copy_n<const char *, unsigned int, char *>:__first <- $r5
	.loc	2 1580 37                       @ C:\Keil_v5\ARM\ARMCLANG\Bin\..\include\libcxx\string:1580:37
	strb.w	r6, [sp, #15]
.Ltmp52:
	.loc	60 55 7                         @ C:\Keil_v5\ARM\ARMCLANG\Bin\..\include\libcxx\__algorithm/copy.h:55:7
	cbnz	r6, .LBB2_5
	b	.LBB2_6
.Ltmp53:
.LBB2_4:
	@DEBUG_VALUE: __init:__sz <- $r6
	@DEBUG_VALUE: __init:this <- [DW_OP_plus_uconst 4, DW_OP_stack_value] $sp
	@DEBUG_VALUE: __init:__s <- $r5
	@DEBUG_VALUE: basic_string<std::nullptr_t>:__s <- $r5
	@DEBUG_VALUE: basic_string<std::nullptr_t>:this <- [DW_OP_plus_uconst 4, DW_OP_stack_value] $sp
	@DEBUG_VALUE: SetName:str <- $r5
	@DEBUG_VALUE: SetName:this <- $r4
	@DEBUG_VALUE: StartProfiling:name <- $r5
	@DEBUG_VALUE: StartProfiling:this <- $r4
	@DEBUG_VALUE: __recommend:__s <- $r6
	.loc	2 1640 13                       @ C:\Keil_v5\ARM\ARMCLANG\Bin\..\include\libcxx\string:1640:13
	orr	r0, r6, #15
.Ltmp54:
	.loc	2 1970 83                       @ C:\Keil_v5\ARM\ARMCLANG\Bin\..\include\libcxx\string:1970:83
	adds	r7, r0, #1
.Ltmp55:
	@DEBUG_VALUE: __libcpp_allocate:__align <- 1
	@DEBUG_VALUE: allocate:this <- [DW_OP_plus_uconst 4, DW_OP_stack_value] $sp
	@DEBUG_VALUE: __allocate_at_least<std::__2::allocator<char> >:__alloc <- [DW_OP_plus_uconst 4, DW_OP_stack_value] $sp
	@DEBUG_VALUE: __libcpp_operator_new<unsigned int>:__args <- $r7
	@DEBUG_VALUE: __libcpp_allocate:__size <- $r7
	@DEBUG_VALUE: allocate:__n <- $r7
	@DEBUG_VALUE: __allocate_at_least<std::__2::allocator<char> >:__n <- $r7
	.loc	63 270 10                       @ C:\Keil_v5\ARM\ARMCLANG\Bin\..\include\libcxx\new:270:10
	mov	r0, r7
	bl	_Znwj
.Ltmp56:
	@DEBUG_VALUE: __set_long_pointer:this <- [DW_OP_plus_uconst 4, DW_OP_stack_value] $sp
	@DEBUG_VALUE: __allocation <- [DW_OP_LLVM_fragment 32 32] $r7
	@DEBUG_VALUE: __set_long_pointer:__p <- $r0
	@DEBUG_VALUE: __init:__p <- $r0
	@DEBUG_VALUE: __allocation <- [DW_OP_LLVM_fragment 0 32] $r0
	.loc	2 1602 37                       @ C:\Keil_v5\ARM\ARMCLANG\Bin\..\include\libcxx\string:1602:37
	orr	r1, r7, #-2147483648
.Ltmp57:
	@DEBUG_VALUE: __set_long_size:__s <- $r6
	@DEBUG_VALUE: __set_long_size:this <- [DW_OP_plus_uconst 4, DW_OP_stack_value] $sp
	.loc	2 1612 35                       @ C:\Keil_v5\ARM\ARMCLANG\Bin\..\include\libcxx\string:1612:35
	str	r0, [sp, #4]
.Ltmp58:
	@DEBUG_VALUE: __set_long_cap:__s <- $r7
	@DEBUG_VALUE: __set_long_cap:this <- [DW_OP_plus_uconst 4, DW_OP_stack_value] $sp
	.loc	2 1591 35                       @ C:\Keil_v5\ARM\ARMCLANG\Bin\..\include\libcxx\string:1591:35
	strd	r6, r1, [sp, #8]
.Ltmp59:
	@DEBUG_VALUE: copy:__n <- $r6
	@DEBUG_VALUE: copy:__s2 <- $r5
	@DEBUG_VALUE: copy:__s1 <- [DW_OP_plus_uconst 4, DW_OP_stack_value] $sp
	@DEBUG_VALUE: __init:__p <- [DW_OP_plus_uconst 4, DW_OP_stack_value] $sp
	.loc	5 236 13                        @ C:\Keil_v5\ARM\ARMCLANG\Bin\..\include\libcxx\__string/char_traits.h:236:13
	adds	r7, r0, r6
.Ltmp60:
	@DEBUG_VALUE: __copy_impl<const char, char, void>:__n <- $r6
	@DEBUG_VALUE: __copy_impl<const char, char, void>:__result <- [DW_OP_plus_uconst 4, DW_OP_stack_value] $sp
	@DEBUG_VALUE: __copy_impl<const char, char, void>:__last <- [DW_OP_LLVM_arg 0, DW_OP_LLVM_arg 1, DW_OP_constu 1, DW_OP_mul, DW_OP_plus, DW_OP_stack_value] $r5, $r6
	@DEBUG_VALUE: __copy_impl<const char, char, void>:__first <- $r5
	@DEBUG_VALUE: __copy<const char *, const char *, char *, 0>:__range <- [DW_OP_LLVM_arg 0, DW_OP_LLVM_arg 1, DW_OP_constu 1, DW_OP_mul, DW_OP_plus, DW_OP_stack_value, DW_OP_LLVM_fragment 32 32] $r5, $r6
	@DEBUG_VALUE: __copy<const char *, const char *, char *, 0>:__range <- [DW_OP_LLVM_fragment 0 32] $r5
	@DEBUG_VALUE: __copy<const char *, const char *, char *, 0>:__result <- [DW_OP_plus_uconst 4, DW_OP_stack_value] $sp
	@DEBUG_VALUE: __copy<const char *, const char *, char *, 0>:__last <- [DW_OP_LLVM_arg 0, DW_OP_LLVM_arg 1, DW_OP_constu 1, DW_OP_mul, DW_OP_plus, DW_OP_stack_value] $r5, $r6
	@DEBUG_VALUE: __copy<const char *, const char *, char *, 0>:__first <- $r5
	@DEBUG_VALUE: copy<const char *, char *>:__result <- [DW_OP_plus_uconst 4, DW_OP_stack_value] $sp
	@DEBUG_VALUE: copy<const char *, char *>:__last <- [DW_OP_LLVM_arg 0, DW_OP_LLVM_arg 1, DW_OP_constu 1, DW_OP_mul, DW_OP_plus, DW_OP_stack_value] $r5, $r6
	@DEBUG_VALUE: copy<const char *, char *>:__first <- $r5
	@DEBUG_VALUE: copy_n<const char *, unsigned int, char *>:__n <- $r6
	@DEBUG_VALUE: copy_n<const char *, unsigned int, char *>:__result <- [DW_OP_plus_uconst 4, DW_OP_stack_value] $sp
	@DEBUG_VALUE: copy_n<const char *, unsigned int, char *>:__orig_n <- $r6
	@DEBUG_VALUE: copy_n<const char *, unsigned int, char *>:__first <- $r5
.LBB2_5:
	@DEBUG_VALUE: copy_n<const char *, unsigned int, char *>:__first <- $r5
	@DEBUG_VALUE: copy_n<const char *, unsigned int, char *>:__orig_n <- $r6
	@DEBUG_VALUE: copy_n<const char *, unsigned int, char *>:__result <- [DW_OP_plus_uconst 4, DW_OP_stack_value] $sp
	@DEBUG_VALUE: copy_n<const char *, unsigned int, char *>:__n <- $r6
	@DEBUG_VALUE: copy<const char *, char *>:__first <- $r5
	@DEBUG_VALUE: copy<const char *, char *>:__last <- [DW_OP_LLVM_arg 0, DW_OP_LLVM_arg 1, DW_OP_constu 1, DW_OP_mul, DW_OP_plus, DW_OP_stack_value] $r5, $r6
	@DEBUG_VALUE: copy<const char *, char *>:__result <- [DW_OP_plus_uconst 4, DW_OP_stack_value] $sp
	@DEBUG_VALUE: __copy<const char *, const char *, char *, 0>:__first <- $r5
	@DEBUG_VALUE: __copy<const char *, const char *, char *, 0>:__last <- [DW_OP_LLVM_arg 0, DW_OP_LLVM_arg 1, DW_OP_constu 1, DW_OP_mul, DW_OP_plus, DW_OP_stack_value] $r5, $r6
	@DEBUG_VALUE: __copy<const char *, const char *, char *, 0>:__result <- [DW_OP_plus_uconst 4, DW_OP_stack_value] $sp
	@DEBUG_VALUE: __copy<const char *, const char *, char *, 0>:__range <- [DW_OP_LLVM_fragment 0 32] $r5
	@DEBUG_VALUE: __copy<const char *, const char *, char *, 0>:__range <- [DW_OP_LLVM_arg 0, DW_OP_LLVM_arg 1, DW_OP_constu 1, DW_OP_mul, DW_OP_plus, DW_OP_stack_value, DW_OP_LLVM_fragment 32 32] $r5, $r6
	@DEBUG_VALUE: __copy_impl<const char, char, void>:__first <- $r5
	@DEBUG_VALUE: __copy_impl<const char, char, void>:__last <- [DW_OP_LLVM_arg 0, DW_OP_LLVM_arg 1, DW_OP_constu 1, DW_OP_mul, DW_OP_plus, DW_OP_stack_value] $r5, $r6
	@DEBUG_VALUE: __copy_impl<const char, char, void>:__result <- [DW_OP_plus_uconst 4, DW_OP_stack_value] $sp
	@DEBUG_VALUE: __copy_impl<const char, char, void>:__n <- $r6
	@DEBUG_VALUE: __init:__p <- [DW_OP_plus_uconst 4, DW_OP_stack_value] $sp
	@DEBUG_VALUE: copy:__s1 <- [DW_OP_plus_uconst 4, DW_OP_stack_value] $sp
	@DEBUG_VALUE: copy:__s2 <- $r5
	@DEBUG_VALUE: copy:__n <- $r6
	@DEBUG_VALUE: __init:__sz <- $r6
	@DEBUG_VALUE: __init:this <- [DW_OP_plus_uconst 4, DW_OP_stack_value] $sp
	@DEBUG_VALUE: __init:__s <- $r5
	@DEBUG_VALUE: basic_string<std::nullptr_t>:__s <- $r5
	@DEBUG_VALUE: basic_string<std::nullptr_t>:this <- [DW_OP_plus_uconst 4, DW_OP_stack_value] $sp
	@DEBUG_VALUE: SetName:str <- $r5
	@DEBUG_VALUE: SetName:this <- $r4
	@DEBUG_VALUE: StartProfiling:name <- $r5
	@DEBUG_VALUE: StartProfiling:this <- $r4
	.loc	60 56 5                         @ C:\Keil_v5\ARM\ARMCLANG\Bin\..\include\libcxx\__algorithm/copy.h:56:5
	mov	r1, r5
	mov	r2, r6
	bl	__aeabi_memcpy
.Ltmp61:
.LBB2_6:
	@DEBUG_VALUE: __init:__p <- [DW_OP_plus_uconst 4, DW_OP_stack_value] $sp
	@DEBUG_VALUE: __init:__sz <- $r6
	@DEBUG_VALUE: __init:this <- [DW_OP_plus_uconst 4, DW_OP_stack_value] $sp
	@DEBUG_VALUE: __init:__s <- $r5
	@DEBUG_VALUE: basic_string<std::nullptr_t>:__s <- $r5
	@DEBUG_VALUE: basic_string<std::nullptr_t>:this <- [DW_OP_plus_uconst 4, DW_OP_stack_value] $sp
	@DEBUG_VALUE: SetName:str <- $r5
	@DEBUG_VALUE: SetName:this <- $r4
	@DEBUG_VALUE: StartProfiling:name <- $r5
	@DEBUG_VALUE: StartProfiling:this <- $r4
	@DEBUG_VALUE: __copy<const char *, const char *, char *, 0>:__ret <- [DW_OP_LLVM_arg 0, DW_OP_LLVM_arg 0, DW_OP_constu 1, DW_OP_mul, DW_OP_plus, DW_OP_stack_value, DW_OP_LLVM_fragment 0 32] undef
	@DEBUG_VALUE: __copy<const char *, const char *, char *, 0>:__ret <- [DW_OP_LLVM_arg 0, DW_OP_LLVM_arg 0, DW_OP_constu 1, DW_OP_mul, DW_OP_plus, DW_OP_stack_value, DW_OP_LLVM_fragment 32 32] undef
	@DEBUG_VALUE: assign:__c2 <- undef
	.loc	60 0 5 is_stmt 0                @ C:\Keil_v5\ARM\ARMCLANG\Bin\..\include\libcxx\__algorithm/copy.h:0:5
	movs	r0, #0
	.loc	1 152 15 is_stmt 1              @ ../../../../ThirdParty/ml-embedded-evaluation-kit/source/profiler/Profiler.cc:152:15
	add.w	r5, r4, #356
.Ltmp62:
	@DEBUG_VALUE: __move_assign:__str <- [DW_OP_plus_uconst 4, DW_OP_stack_value] $sp
	@DEBUG_VALUE: operator=:__str <- [DW_OP_plus_uconst 4, DW_OP_stack_value] $sp
	@DEBUG_VALUE: __is_long:this <- $r5
	@DEBUG_VALUE: __move_assign:this <- $r5
	@DEBUG_VALUE: operator=:this <- $r5
	.loc	5 202 73                        @ C:\Keil_v5\ARM\ARMCLANG\Bin\..\include\libcxx\__string/char_traits.h:202:73
	strb	r0, [r7]
.Ltmp63:
	.loc	2 1509 33                       @ C:\Keil_v5\ARM\ARMCLANG\Bin\..\include\libcxx\string:1509:33
	ldrsb.w	r0, [r4, #367]
.Ltmp64:
	.loc	2 2540 7                        @ C:\Keil_v5\ARM\ARMCLANG\Bin\..\include\libcxx\string:2540:7
	cmp.w	r0, #-1
	bgt	.LBB2_8
.Ltmp65:
@ %bb.7:
	@DEBUG_VALUE: operator=:this <- $r5
	@DEBUG_VALUE: __move_assign:this <- $r5
	@DEBUG_VALUE: operator=:__str <- [DW_OP_plus_uconst 4, DW_OP_stack_value] $sp
	@DEBUG_VALUE: __move_assign:__str <- [DW_OP_plus_uconst 4, DW_OP_stack_value] $sp
	@DEBUG_VALUE: SetName:this <- $r4
	@DEBUG_VALUE: StartProfiling:this <- $r4
	@DEBUG_VALUE: __get_long_pointer:this <- $r5
	.loc	2 1615 34                       @ C:\Keil_v5\ARM\ARMCLANG\Bin\..\include\libcxx\string:1615:34
	ldr	r0, [r5]
.Ltmp66:
	@DEBUG_VALUE: __do_deallocate_handle_size<>:__size <- [DW_OP_constu 2147483647, DW_OP_and, DW_OP_stack_value] undef
	@DEBUG_VALUE: __libcpp_deallocate:__align <- 1
	@DEBUG_VALUE: __libcpp_deallocate:__size <- [DW_OP_constu 2147483647, DW_OP_and, DW_OP_stack_value] undef
	@DEBUG_VALUE: deallocate:__n <- [DW_OP_constu 2147483647, DW_OP_and, DW_OP_stack_value] undef
	@DEBUG_VALUE: deallocate:this <- $r5
	@DEBUG_VALUE: deallocate:__n <- [DW_OP_constu 2147483647, DW_OP_and, DW_OP_stack_value] undef
	@DEBUG_VALUE: deallocate:__a <- $r5
	@DEBUG_VALUE: __libcpp_operator_delete<void *>:__args <- $r0
	@DEBUG_VALUE: __do_deallocate_handle_size<>:__ptr <- $r0
	@DEBUG_VALUE: __libcpp_deallocate:__ptr <- $r0
	@DEBUG_VALUE: deallocate:__p <- $r0
	@DEBUG_VALUE: deallocate:__p <- $r0
	.loc	63 280 3                        @ C:\Keil_v5\ARM\ARMCLANG\Bin\..\include\libcxx\new:280:3
	bl	_ZdlPv
.Ltmp67:
.LBB2_8:
	@DEBUG_VALUE: operator=:this <- $r5
	@DEBUG_VALUE: __move_assign:this <- $r5
	@DEBUG_VALUE: operator=:__str <- [DW_OP_plus_uconst 4, DW_OP_stack_value] $sp
	@DEBUG_VALUE: __move_assign:__str <- [DW_OP_plus_uconst 4, DW_OP_stack_value] $sp
	@DEBUG_VALUE: SetName:this <- $r4
	@DEBUG_VALUE: StartProfiling:this <- $r4
	.loc	2 2551 16                       @ C:\Keil_v5\ARM\ARMCLANG\Bin\..\include\libcxx\string:2551:16
	add	r2, sp, #4
	ldm	r2, {r0, r1, r2}
.Ltmp68:
	@DEBUG_VALUE: __is_long:this <- [DW_OP_plus_uconst 4, DW_OP_stack_value] $sp
	@DEBUG_VALUE: assign:__c2 <- undef
	@DEBUG_VALUE: assign:__c1 <- [DW_OP_plus_uconst 4, DW_OP_stack_value] $sp
	@DEBUG_VALUE: __set_short_size:__s <- 0
	@DEBUG_VALUE: __set_short_size:this <- [DW_OP_plus_uconst 4, DW_OP_stack_value] $sp
	stm	r5!, {r0, r1, r2}
.Ltmp69:
.LBB2_9:
	@DEBUG_VALUE: StartProfiling:this <- $r4
	.loc	1 39 20                         @ ../../../../ThirdParty/ml-embedded-evaluation-kit/source/profiler/Profiler.cc:39:20
	ldrb.w	r0, [r4, #352]
.Ltmp70:
	.loc	1 39 13 is_stmt 0               @ ../../../../ThirdParty/ml-embedded-evaluation-kit/source/profiler/Profiler.cc:39:13
	cbz	r0, .LBB2_11
.Ltmp71:
.LBB2_10:
	@DEBUG_VALUE: StartProfiling:this <- $r4
	.loc	1 54 9 is_stmt 1                @ ../../../../ThirdParty/ml-embedded-evaluation-kit/source/profiler/Profiler.cc:54:9
	movw	r0, :lower16:.L.str.1
	movt	r0, :upper16:.L.str.1
	bl	__2printf
.Ltmp72:
	@DEBUG_VALUE: __is_long:this <- undef
	@DEBUG_VALUE: __get_pointer:this <- undef
	@DEBUG_VALUE: data:this <- undef
	@DEBUG_VALUE: c_str:this <- undef
	.loc	2 1509 33                       @ C:\Keil_v5\ARM\ARMCLANG\Bin\..\include\libcxx\string:1509:33
	ldrsb.w	r0, [r4, #367]
	ldr.w	r1, [r4, #356]
.Ltmp73:
	.loc	2 1630 17                       @ C:\Keil_v5\ARM\ARMCLANG\Bin\..\include\libcxx\string:1630:17
	cmp	r0, #0
	it	pl
	addpl.w	r1, r4, #356
.Ltmp74:
	.loc	1 54 9                          @ ../../../../ThirdParty/ml-embedded-evaluation-kit/source/profiler/Profiler.cc:54:9
	adr	r0, .LCPI2_0
	bl	__2printf
.Ltmp75:
	.loc	1 0 9 is_stmt 0                 @ ../../../../ThirdParty/ml-embedded-evaluation-kit/source/profiler/Profiler.cc:0:9
	movs	r0, #0
	.loc	1 56 5 is_stmt 1                @ ../../../../ThirdParty/ml-embedded-evaluation-kit/source/profiler/Profiler.cc:56:5
	add	sp, #36
	pop.w	{r4, r5, r6, r7, r8, r9, pc}
.Ltmp76:
.LBB2_11:
	@DEBUG_VALUE: StartProfiling:this <- $r4
	.loc	1 40 13                         @ ../../../../ThirdParty/ml-embedded-evaluation-kit/source/profiler/Profiler.cc:40:13
	bl	pmu_reset_counters
.Ltmp77:
	.loc	1 0 13 is_stmt 0                @ ../../../../ThirdParty/ml-embedded-evaluation-kit/source/profiler/Profiler.cc:0:13
	movs	r1, #0
	.loc	1 41 19 is_stmt 1               @ ../../../../ThirdParty/ml-embedded-evaluation-kit/source/profiler/Profiler.cc:41:19
	add.w	r0, r4, #16
	.loc	1 41 42 is_stmt 0               @ ../../../../ThirdParty/ml-embedded-evaluation-kit/source/profiler/Profiler.cc:41:42
	strb.w	r1, [r4, #180]
	.loc	1 42 13 is_stmt 1               @ ../../../../ThirdParty/ml-embedded-evaluation-kit/source/profiler/Profiler.cc:42:13
	bl	pmu_get_counters
.Ltmp78:
	.loc	1 43 34                         @ ../../../../ThirdParty/ml-embedded-evaluation-kit/source/profiler/Profiler.cc:43:34
	ldrb.w	r0, [r4, #180]
.Ltmp79:
	.loc	1 43 17 is_stmt 0               @ ../../../../ThirdParty/ml-embedded-evaluation-kit/source/profiler/Profiler.cc:43:17
	cmp	r0, #0
	beq	.LBB2_10
.Ltmp80:
@ %bb.12:
	@DEBUG_VALUE: StartProfiling:this <- $r4
	.loc	1 44 51 is_stmt 1               @ ../../../../ThirdParty/ml-embedded-evaluation-kit/source/profiler/Profiler.cc:44:51
	add.w	r5, r4, #356
.Ltmp81:
	@DEBUG_VALUE: count:this <- $r4
	@DEBUG_VALUE: count:__k <- $r5
	.loc	28 1464 25                      @ C:\Keil_v5\ARM\ARMCLANG\Bin\..\include\libcxx\map:1464:25
	mov	r0, r4
	mov	r1, r5
	bl	_ZNKSt3__26__treeINS_12__value_typeINS_12basic_stringIcNS_11char_traitsIcEENS_9allocatorIcEEEENS_6vectorIN3arm3app10StatisticsENS5_ISB_EEEEEENS_19__map_value_compareIS7_SE_NS_4lessIS7_EELb1EEENS5_ISE_EEE14__count_uniqueIS7_EEjRKT_
.Ltmp82:
	.loc	1 44 21                         @ ../../../../ThirdParty/ml-embedded-evaluation-kit/source/profiler/Profiler.cc:44:21
	cmp	r0, #0
	bne	.LBB2_31
.Ltmp83:
@ %bb.13:
	@DEBUG_VALUE: StartProfiling:this <- $r4
	.loc	1 47 92                         @ ../../../../ThirdParty/ml-embedded-evaluation-kit/source/profiler/Profiler.cc:47:92
	ldr.w	r6, [r4, #176]
.Ltmp84:
	@DEBUG_VALUE: __compressed_pair_elem<std::nullptr_t, void>:__u <- undef
	@DEBUG_VALUE: __compressed_pair_elem<std::nullptr_t, void>:this <- undef
	@DEBUG_VALUE: vector:this <- undef
	@DEBUG_VALUE: vector:__n <- $r6
	.loc	3 1080 9                        @ C:\Keil_v5\ARM\ARMCLANG\Bin\..\include\libcxx\vector:1080:9
	cbz	r6, .LBB2_16
.Ltmp85:
@ %bb.14:
	@DEBUG_VALUE: vector:__n <- $r6
	@DEBUG_VALUE: StartProfiling:this <- $r4
	@DEBUG_VALUE: __vallocate:this <- undef
	@DEBUG_VALUE: __vallocate:__n <- $r6
	.loc	3 681 13                        @ C:\Keil_v5\ARM\ARMCLANG\Bin\..\include\libcxx\vector:681:13
	cmp.w	r6, #67108864
	bhs	.LBB2_32
.Ltmp86:
@ %bb.15:
	@DEBUG_VALUE: __vallocate:__n <- $r6
	@DEBUG_VALUE: vector:__n <- $r6
	@DEBUG_VALUE: StartProfiling:this <- $r4
	@DEBUG_VALUE: __allocate_at_least<std::__2::allocator<arm::app::Statistics> >:__alloc <- [DW_OP_plus_uconst 8, DW_OP_stack_value] undef
	@DEBUG_VALUE: __allocate_at_least<std::__2::allocator<arm::app::Statistics> >:__n <- $r6
	@DEBUG_VALUE: allocate:this <- [DW_OP_plus_uconst 8, DW_OP_stack_value] undef
	@DEBUG_VALUE: allocate:__n <- $r6
	.loc	7 112 67                        @ C:\Keil_v5\ARM\ARMCLANG\Bin\..\include\libcxx\__memory/allocator.h:112:67
	lsls	r7, r6, #6
.Ltmp87:
	@DEBUG_VALUE: __libcpp_allocate:__align <- 8
	@DEBUG_VALUE: __libcpp_operator_new<unsigned int>:__args <- $r7
	@DEBUG_VALUE: __libcpp_allocate:__size <- $r7
	.loc	63 270 10                       @ C:\Keil_v5\ARM\ARMCLANG\Bin\..\include\libcxx\new:270:10
	mov	r0, r7
	bl	_Znwj
.Ltmp88:
	.loc	2 1525 24                       @ C:\Keil_v5\ARM\ARMCLANG\Bin\..\include\libcxx\string:1525:24
	mov	r1, r7
.Ltmp89:
	.loc	63 270 10                       @ C:\Keil_v5\ARM\ARMCLANG\Bin\..\include\libcxx\new:270:10
	mov	r9, r0
.Ltmp90:
	@DEBUG_VALUE: __construct_at_end:__new_end <- [DW_OP_LLVM_arg 0, DW_OP_LLVM_arg 1, DW_OP_constu 64, DW_OP_mul, DW_OP_plus, DW_OP_stack_value] $r9, $r6
	@DEBUG_VALUE: __construct_at_end:__tx <- [DW_OP_LLVM_arg 0, DW_OP_LLVM_arg 1, DW_OP_constu 64, DW_OP_mul, DW_OP_plus, DW_OP_stack_value, DW_OP_LLVM_fragment 64 32] $r9, $r6
	@DEBUG_VALUE: __vallocate:__allocation <- [DW_OP_LLVM_fragment 32 32] $r6
	@DEBUG_VALUE: __vallocate:__allocation <- [DW_OP_LLVM_fragment 0 32] $r9
	.loc	3 686 32                        @ C:\Keil_v5\ARM\ARMCLANG\Bin\..\include\libcxx\vector:686:32
	add.w	r8, r0, r6, lsl #6
.Ltmp91:
	@DEBUG_VALUE: __construct_at_end:__tx <- [DW_OP_LLVM_fragment 0 32] undef
	@DEBUG_VALUE: __construct_at_end:__n <- undef
	@DEBUG_VALUE: __construct_at_end:this <- undef
	@DEBUG_VALUE: __construct_at_end:__tx <- [DW_OP_LLVM_fragment 32 32] $r9
	@DEBUG_VALUE: __pos <- $r9
	.loc	2 1525 24                       @ C:\Keil_v5\ARM\ARMCLANG\Bin\..\include\libcxx\string:1525:24
	bl	__aeabi_memclr8
.Ltmp92:
	@DEBUG_VALUE: __default_init:this <- [DW_OP_plus_uconst 12, DW_OP_stack_value] undef
	@DEBUG_VALUE: basic_string:this <- [DW_OP_plus_uconst 12, DW_OP_stack_value] undef
	@DEBUG_VALUE: __default_init:this <- undef
	@DEBUG_VALUE: basic_string:this <- undef
	@DEBUG_VALUE: Statistics:this <- undef
	@DEBUG_VALUE: construct<arm::app::Statistics>:__p <- undef
	@DEBUG_VALUE: construct<arm::app::Statistics>:this <- [DW_OP_plus_uconst 8, DW_OP_stack_value] undef
	@DEBUG_VALUE: construct<arm::app::Statistics, void>:__p <- undef
	@DEBUG_VALUE: construct<arm::app::Statistics, void>:__a <- [DW_OP_plus_uconst 8, DW_OP_stack_value] undef
	@DEBUG_VALUE: __construct_at_end:__tx <- [DW_OP_plus_uconst 64, DW_OP_stack_value, DW_OP_LLVM_fragment 32 32] undef
	@DEBUG_VALUE: __pos <- [DW_OP_plus_uconst 64, DW_OP_stack_value] undef
	.loc	2 0 24 is_stmt 0                @ C:\Keil_v5\ARM\ARMCLANG\Bin\..\include\libcxx\string:0:24
	b	.LBB2_17
.Ltmp93:
.LBB2_16:
	@DEBUG_VALUE: vector:__n <- $r6
	@DEBUG_VALUE: StartProfiling:this <- $r4
	mov.w	r9, #0
	mov.w	r8, #0
.Ltmp94:
.LBB2_17:
	@DEBUG_VALUE: StartProfiling:this <- $r4
	@DEBUG_VALUE: pair<std::__2::basic_string<char, std::__2::char_traits<char>, std::__2::allocator<char> > &, std::__2::vector<arm::app::Statistics, std::__2::allocator<arm::app::Statistics> >, nullptr>:this <- [DW_OP_plus_uconst 4, DW_OP_stack_value] $sp
	@DEBUG_VALUE: pair<std::__2::basic_string<char, std::__2::char_traits<char>, std::__2::allocator<char> > &, std::__2::vector<arm::app::Statistics, std::__2::allocator<arm::app::Statistics> >, nullptr>:__u1 <- $r5
	@DEBUG_VALUE: pair<std::__2::basic_string<char, std::__2::char_traits<char>, std::__2::allocator<char> > &, std::__2::vector<arm::app::Statistics, std::__2::allocator<arm::app::Statistics> >, nullptr>:__u2 <- undef
	@DEBUG_VALUE: basic_string:this <- [DW_OP_plus_uconst 4, DW_OP_stack_value] $sp
	@DEBUG_VALUE: basic_string:__str <- $r5
	@DEBUG_VALUE: __is_long:this <- $r5
	.loc	2 1509 33 is_stmt 1             @ C:\Keil_v5\ARM\ARMCLANG\Bin\..\include\libcxx\string:1509:33
	ldrsb.w	r0, [r4, #367]
.Ltmp95:
	.loc	2 2017 9                        @ C:\Keil_v5\ARM\ARMCLANG\Bin\..\include\libcxx\string:2017:9
	cmp	r0, #0
	bmi	.LBB2_19
.Ltmp96:
@ %bb.18:
	@DEBUG_VALUE: basic_string:__str <- $r5
	@DEBUG_VALUE: basic_string:this <- [DW_OP_plus_uconst 4, DW_OP_stack_value] $sp
	@DEBUG_VALUE: pair<std::__2::basic_string<char, std::__2::char_traits<char>, std::__2::allocator<char> > &, std::__2::vector<arm::app::Statistics, std::__2::allocator<arm::app::Statistics> >, nullptr>:__u1 <- $r5
	@DEBUG_VALUE: pair<std::__2::basic_string<char, std::__2::char_traits<char>, std::__2::allocator<char> > &, std::__2::vector<arm::app::Statistics, std::__2::allocator<arm::app::Statistics> >, nullptr>:this <- [DW_OP_plus_uconst 4, DW_OP_stack_value] $sp
	@DEBUG_VALUE: StartProfiling:this <- $r4
	@DEBUG_VALUE: pair<std::__2::basic_string<char, std::__2::char_traits<char>, std::__2::allocator<char> > &, std::__2::vector<arm::app::Statistics, std::__2::allocator<arm::app::Statistics> >, nullptr>:__u1 <- $r5
	@DEBUG_VALUE: basic_string:__str <- $r5
	.loc	2 2018 22                       @ C:\Keil_v5\ARM\ARMCLANG\Bin\..\include\libcxx\string:2018:22
	ldrd	r0, r2, [r5]
	ldr	r1, [r5, #8]
	str	r1, [sp, #12]
	strd	r0, r2, [sp, #4]
	b	.LBB2_20
.Ltmp97:
.LBB2_19:
	@DEBUG_VALUE: basic_string:__str <- $r5
	@DEBUG_VALUE: basic_string:this <- [DW_OP_plus_uconst 4, DW_OP_stack_value] $sp
	@DEBUG_VALUE: pair<std::__2::basic_string<char, std::__2::char_traits<char>, std::__2::allocator<char> > &, std::__2::vector<arm::app::Statistics, std::__2::allocator<arm::app::Statistics> >, nullptr>:__u1 <- $r5
	@DEBUG_VALUE: pair<std::__2::basic_string<char, std::__2::char_traits<char>, std::__2::allocator<char> > &, std::__2::vector<arm::app::Statistics, std::__2::allocator<arm::app::Statistics> >, nullptr>:this <- [DW_OP_plus_uconst 4, DW_OP_stack_value] $sp
	@DEBUG_VALUE: StartProfiling:this <- $r4
	@DEBUG_VALUE: __get_long_pointer:this <- undef
	@DEBUG_VALUE: __get_long_size:this <- [DW_OP_plus_uconst 356, DW_OP_stack_value] $r4
	.loc	2 1618 34                       @ C:\Keil_v5\ARM\ARMCLANG\Bin\..\include\libcxx\string:1618:34
	ldrd	r1, r2, [r4, #356]
	add	r0, sp, #4
.Ltmp98:
	.loc	2 2020 9                        @ C:\Keil_v5\ARM\ARMCLANG\Bin\..\include\libcxx\string:2020:9
	bl	_ZNSt3__212basic_stringIcNS_11char_traitsIcEENS_9allocatorIcEEE25__init_copy_ctor_externalEPKcj
.Ltmp99:
.LBB2_20:
	@DEBUG_VALUE: pair<std::__2::basic_string<char, std::__2::char_traits<char>, std::__2::allocator<char> > &, std::__2::vector<arm::app::Statistics, std::__2::allocator<arm::app::Statistics> >, nullptr>:__u1 <- $r5
	@DEBUG_VALUE: pair<std::__2::basic_string<char, std::__2::char_traits<char>, std::__2::allocator<char> > &, std::__2::vector<arm::app::Statistics, std::__2::allocator<arm::app::Statistics> >, nullptr>:this <- [DW_OP_plus_uconst 4, DW_OP_stack_value] $sp
	@DEBUG_VALUE: StartProfiling:this <- $r4
	@DEBUG_VALUE: __compressed_pair<std::nullptr_t, std::__2::allocator<arm::app::Statistics> >:__t1 <- undef
	@DEBUG_VALUE: __compressed_pair<std::nullptr_t, std::__2::allocator<arm::app::Statistics> >:__t2 <- [DW_OP_plus_uconst 8, DW_OP_stack_value] undef
	@DEBUG_VALUE: __compressed_pair_elem<std::nullptr_t, void>:__u <- undef
	.loc	2 0 9 is_stmt 0                 @ C:\Keil_v5\ARM\ARMCLANG\Bin\..\include\libcxx\string:0:9
	add	r2, sp, #4
	@DEBUG_VALUE: ~vector:this <- [DW_OP_plus_uconst 12, DW_OP_stack_value] $r2
.Ltmp100:
	@DEBUG_VALUE: vector:this <- [DW_OP_plus_uconst 12, DW_OP_stack_value] $r2
	@DEBUG_VALUE: __compressed_pair_elem<std::nullptr_t, void>:this <- [DW_OP_plus_uconst 20, DW_OP_stack_value] $r2
	@DEBUG_VALUE: __compressed_pair<std::nullptr_t, std::__2::allocator<arm::app::Statistics> >:this <- [DW_OP_plus_uconst 20, DW_OP_stack_value] $r2
	@DEBUG_VALUE: vector:__x <- undef
	add	r0, sp, #28
.Ltmp101:
	.loc	29 1213 14 is_stmt 1            @ C:\Keil_v5\ARM\ARMCLANG\Bin\..\include\libcxx\__tree:1213:14
	mov	r1, r4
	mov	r3, r2
.Ltmp102:
	.loc	3 1223 20                       @ C:\Keil_v5\ARM\ARMCLANG\Bin\..\include\libcxx\vector:1223:20
	strd	r9, r8, [sp, #16]
	.loc	3 1225 23                       @ C:\Keil_v5\ARM\ARMCLANG\Bin\..\include\libcxx\vector:1225:23
	str.w	r8, [sp, #24]
.Ltmp103:
	@DEBUG_VALUE: __emplace_unique_extract_key<std::__2::pair<std::__2::basic_string<char, std::__2::char_traits<char>, std::__2::allocator<char> >, std::__2::vector<arm::app::Statistics, std::__2::allocator<arm::app::Statistics> > > >:__x <- [DW_OP_plus_uconst 4, DW_OP_stack_value] $sp
	@DEBUG_VALUE: __emplace_unique_extract_key<std::__2::pair<std::__2::basic_string<char, std::__2::char_traits<char>, std::__2::allocator<char> >, std::__2::vector<arm::app::Statistics, std::__2::allocator<arm::app::Statistics> > > >:this <- $r4
	@DEBUG_VALUE: __emplace_unique<std::__2::pair<std::__2::basic_string<char, std::__2::char_traits<char>, std::__2::allocator<char> >, std::__2::vector<arm::app::Statistics, std::__2::allocator<arm::app::Statistics> > > >:__x <- [DW_OP_plus_uconst 4, DW_OP_stack_value] $sp
	@DEBUG_VALUE: __emplace_unique<std::__2::pair<std::__2::basic_string<char, std::__2::char_traits<char>, std::__2::allocator<char> >, std::__2::vector<arm::app::Statistics, std::__2::allocator<arm::app::Statistics> > > >:this <- $r4
	@DEBUG_VALUE: __insert_unique<std::__2::pair<std::__2::basic_string<char, std::__2::char_traits<char>, std::__2::allocator<char> >, std::__2::vector<arm::app::Statistics, std::__2::allocator<arm::app::Statistics> > >, void>:__v <- [DW_OP_plus_uconst 4, DW_OP_stack_value] $sp
	@DEBUG_VALUE: __insert_unique<std::__2::pair<std::__2::basic_string<char, std::__2::char_traits<char>, std::__2::allocator<char> >, std::__2::vector<arm::app::Statistics, std::__2::allocator<arm::app::Statistics> > >, void>:this <- $r4
	@DEBUG_VALUE: insert<std::__2::pair<std::__2::basic_string<char, std::__2::char_traits<char>, std::__2::allocator<char> >, std::__2::vector<arm::app::Statistics, std::__2::allocator<arm::app::Statistics> > >, void>:__p <- [DW_OP_plus_uconst 4, DW_OP_stack_value] $sp
	@DEBUG_VALUE: insert<std::__2::pair<std::__2::basic_string<char, std::__2::char_traits<char>, std::__2::allocator<char> >, std::__2::vector<arm::app::Statistics, std::__2::allocator<arm::app::Statistics> > >, void>:this <- $r4
	.loc	29 1213 14                      @ C:\Keil_v5\ARM\ARMCLANG\Bin\..\include\libcxx\__tree:1213:14
	bl	_ZNSt3__26__treeINS_12__value_typeINS_12basic_stringIcNS_11char_traitsIcEENS_9allocatorIcEEEENS_6vectorIN3arm3app10StatisticsENS5_ISB_EEEEEENS_19__map_value_compareIS7_SE_NS_4lessIS7_EELb1EEENS5_ISE_EEE25__emplace_unique_key_argsIS7_JNS_4pairIS7_SD_EEEEENSM_INS_15__tree_iteratorISE_PNS_11__tree_nodeISE_PvEEiEEbEERKT_DpOT0_
.Ltmp104:
	@DEBUG_VALUE: ~pair:this <- [DW_OP_plus_uconst 4, DW_OP_stack_value] $sp
	.loc	3 431 17                        @ C:\Keil_v5\ARM\ARMCLANG\Bin\..\include\libcxx\vector:431:17
	ldr	r5, [sp, #16]
.Ltmp105:
	.loc	3 431 11 is_stmt 0              @ C:\Keil_v5\ARM\ARMCLANG\Bin\..\include\libcxx\vector:431:11
	cbz	r5, .LBB2_29
.Ltmp106:
@ %bb.21:
	@DEBUG_VALUE: ~pair:this <- [DW_OP_plus_uconst 4, DW_OP_stack_value] $sp
	@DEBUG_VALUE: StartProfiling:this <- $r4
	@DEBUG_VALUE: __base_destruct_at_end:__new_last <- $r5
	.loc	3 832 38 is_stmt 1              @ C:\Keil_v5\ARM\ARMCLANG\Bin\..\include\libcxx\vector:832:38
	ldr	r6, [sp, #20]
.Ltmp107:
	@DEBUG_VALUE: __base_destruct_at_end:__soon_to_be_end <- $r6
	.loc	3 0 38 is_stmt 0                @ C:\Keil_v5\ARM\ARMCLANG\Bin\..\include\libcxx\vector:0:38
	mov	r0, r5
	.loc	3 833 5 is_stmt 1               @ C:\Keil_v5\ARM\ARMCLANG\Bin\..\include\libcxx\vector:833:5
	cmp	r6, r5
.Ltmp108:
	@DEBUG_VALUE: __base_destruct_at_end:this <- [DW_OP_plus_uconst 4, DW_OP_plus_uconst 12, DW_OP_stack_value] $sp
	@DEBUG_VALUE: __clear:this <- [DW_OP_plus_uconst 4, DW_OP_plus_uconst 12, DW_OP_stack_value] $sp
	bne	.LBB2_23
	b	.LBB2_28
.Ltmp109:
	.p2align	2
.LBB2_22:                               @   in Loop: Header=BB2_23 Depth=1
	@DEBUG_VALUE: __clear:this <- [DW_OP_plus_uconst 4, DW_OP_plus_uconst 12, DW_OP_stack_value] $sp
	@DEBUG_VALUE: __base_destruct_at_end:this <- [DW_OP_plus_uconst 4, DW_OP_plus_uconst 12, DW_OP_stack_value] $sp
	@DEBUG_VALUE: __base_destruct_at_end:__new_last <- $r5
	@DEBUG_VALUE: ~pair:this <- [DW_OP_plus_uconst 4, DW_OP_stack_value] $sp
	@DEBUG_VALUE: StartProfiling:this <- $r4
	.loc	3 0 0 is_stmt 0                 @ C:\Keil_v5\ARM\ARMCLANG\Bin\..\include\libcxx\vector:0:0
	subs	r6, #64
	@DEBUG_VALUE: __is_long:this <- $r6
	@DEBUG_VALUE: ~basic_string:this <- $r6
	@DEBUG_VALUE: __is_long:this <- [DW_OP_plus_uconst 12, DW_OP_stack_value] $r6
	@DEBUG_VALUE: ~basic_string:this <- [DW_OP_plus_uconst 12, DW_OP_stack_value] $r6
	@DEBUG_VALUE: ~Statistics:this <- $r6
	@DEBUG_VALUE: destroy:__p <- $r6
	@DEBUG_VALUE: destroy<arm::app::Statistics, void>:__p <- $r6
.Ltmp110:
	@DEBUG_VALUE: __base_destruct_at_end:__soon_to_be_end <- $r6
	.loc	3 833 5                         @ C:\Keil_v5\ARM\ARMCLANG\Bin\..\include\libcxx\vector:833:5
	cmp	r6, r5
	beq	.LBB2_27
.Ltmp111:
.LBB2_23:                               @ =>This Inner Loop Header: Depth=1
	@DEBUG_VALUE: __clear:this <- [DW_OP_plus_uconst 4, DW_OP_plus_uconst 12, DW_OP_stack_value] $sp
	@DEBUG_VALUE: __base_destruct_at_end:this <- [DW_OP_plus_uconst 4, DW_OP_plus_uconst 12, DW_OP_stack_value] $sp
	@DEBUG_VALUE: __base_destruct_at_end:__soon_to_be_end <- $r6
	@DEBUG_VALUE: __base_destruct_at_end:__new_last <- $r5
	@DEBUG_VALUE: ~pair:this <- [DW_OP_plus_uconst 4, DW_OP_stack_value] $sp
	@DEBUG_VALUE: StartProfiling:this <- $r4
	@DEBUG_VALUE: __base_destruct_at_end:__soon_to_be_end <- undef
	@DEBUG_VALUE: destroy<arm::app::Statistics, void>:__p <- undef
	@DEBUG_VALUE: destroy:__p <- undef
	@DEBUG_VALUE: ~Statistics:this <- undef
	@DEBUG_VALUE: ~basic_string:this <- [DW_OP_plus_uconst 12, DW_OP_stack_value] undef
	@DEBUG_VALUE: __is_long:this <- [DW_OP_plus_uconst 12, DW_OP_stack_value] undef
	.loc	2 1509 33 is_stmt 1             @ C:\Keil_v5\ARM\ARMCLANG\Bin\..\include\libcxx\string:1509:33
	ldrsb	r0, [r6, #-41]
.Ltmp112:
	.loc	2 2337 9                        @ C:\Keil_v5\ARM\ARMCLANG\Bin\..\include\libcxx\string:2337:9
	cmp.w	r0, #-1
.Ltmp113:
	@DEBUG_VALUE: destroy:this <- [DW_OP_plus_uconst 4, DW_OP_plus_uconst 12, DW_OP_plus_uconst 8, DW_OP_stack_value] $sp
	@DEBUG_VALUE: destroy<arm::app::Statistics, void>:__a <- [DW_OP_plus_uconst 4, DW_OP_plus_uconst 12, DW_OP_plus_uconst 8, DW_OP_stack_value] $sp
	bgt	.LBB2_25
.Ltmp114:
@ %bb.24:                               @   in Loop: Header=BB2_23 Depth=1
	@DEBUG_VALUE: destroy<arm::app::Statistics, void>:__a <- [DW_OP_plus_uconst 4, DW_OP_plus_uconst 12, DW_OP_plus_uconst 8, DW_OP_stack_value] $sp
	@DEBUG_VALUE: destroy:this <- [DW_OP_plus_uconst 4, DW_OP_plus_uconst 12, DW_OP_plus_uconst 8, DW_OP_stack_value] $sp
	@DEBUG_VALUE: __clear:this <- [DW_OP_plus_uconst 4, DW_OP_plus_uconst 12, DW_OP_stack_value] $sp
	@DEBUG_VALUE: __base_destruct_at_end:this <- [DW_OP_plus_uconst 4, DW_OP_plus_uconst 12, DW_OP_stack_value] $sp
	@DEBUG_VALUE: __base_destruct_at_end:__new_last <- $r5
	@DEBUG_VALUE: ~pair:this <- [DW_OP_plus_uconst 4, DW_OP_stack_value] $sp
	@DEBUG_VALUE: StartProfiling:this <- $r4
	@DEBUG_VALUE: ~basic_string:this <- [DW_OP_constu 52, DW_OP_minus, DW_OP_stack_value] $r6
	@DEBUG_VALUE: __is_long:this <- [DW_OP_constu 52, DW_OP_minus, DW_OP_stack_value] $r6
	@DEBUG_VALUE: __get_long_pointer:this <- [DW_OP_plus_uconst 12, DW_OP_stack_value] $r6
	.loc	2 1615 34                       @ C:\Keil_v5\ARM\ARMCLANG\Bin\..\include\libcxx\string:1615:34
	ldr	r0, [r6, #-52]
.Ltmp115:
	@DEBUG_VALUE: __do_deallocate_handle_size<>:__size <- [DW_OP_constu 2147483647, DW_OP_and, DW_OP_stack_value] undef
	@DEBUG_VALUE: __libcpp_deallocate:__align <- 1
	@DEBUG_VALUE: __libcpp_deallocate:__size <- [DW_OP_constu 2147483647, DW_OP_and, DW_OP_stack_value] undef
	@DEBUG_VALUE: deallocate:__n <- [DW_OP_constu 2147483647, DW_OP_and, DW_OP_stack_value] undef
	@DEBUG_VALUE: deallocate:this <- [DW_OP_plus_uconst 12, DW_OP_stack_value] $r6
	@DEBUG_VALUE: deallocate:__n <- [DW_OP_constu 2147483647, DW_OP_and, DW_OP_stack_value] undef
	@DEBUG_VALUE: deallocate:__a <- [DW_OP_plus_uconst 12, DW_OP_stack_value] $r6
	@DEBUG_VALUE: __libcpp_operator_delete<void *>:__args <- $r0
	@DEBUG_VALUE: __do_deallocate_handle_size<>:__ptr <- $r0
	@DEBUG_VALUE: __libcpp_deallocate:__ptr <- $r0
	@DEBUG_VALUE: deallocate:__p <- $r0
	@DEBUG_VALUE: deallocate:__p <- $r0
	.loc	63 280 3                        @ C:\Keil_v5\ARM\ARMCLANG\Bin\..\include\libcxx\new:280:3
	bl	_ZdlPv
.Ltmp116:
.LBB2_25:                               @   in Loop: Header=BB2_23 Depth=1
	@DEBUG_VALUE: destroy<arm::app::Statistics, void>:__a <- [DW_OP_plus_uconst 4, DW_OP_plus_uconst 12, DW_OP_plus_uconst 8, DW_OP_stack_value] $sp
	@DEBUG_VALUE: destroy:this <- [DW_OP_plus_uconst 4, DW_OP_plus_uconst 12, DW_OP_plus_uconst 8, DW_OP_stack_value] $sp
	@DEBUG_VALUE: __clear:this <- [DW_OP_plus_uconst 4, DW_OP_plus_uconst 12, DW_OP_stack_value] $sp
	@DEBUG_VALUE: __base_destruct_at_end:this <- [DW_OP_plus_uconst 4, DW_OP_plus_uconst 12, DW_OP_stack_value] $sp
	@DEBUG_VALUE: __base_destruct_at_end:__new_last <- $r5
	@DEBUG_VALUE: ~pair:this <- [DW_OP_plus_uconst 4, DW_OP_stack_value] $sp
	@DEBUG_VALUE: StartProfiling:this <- $r4
	@DEBUG_VALUE: __base_destruct_at_end:__soon_to_be_end <- undef
	@DEBUG_VALUE: destroy<arm::app::Statistics, void>:__p <- undef
	@DEBUG_VALUE: destroy:__p <- undef
	@DEBUG_VALUE: ~Statistics:this <- undef
	@DEBUG_VALUE: ~basic_string:this <- [DW_OP_plus_uconst 12, DW_OP_stack_value] undef
	@DEBUG_VALUE: __is_long:this <- [DW_OP_plus_uconst 12, DW_OP_stack_value] undef
	@DEBUG_VALUE: ~basic_string:this <- $r6
	@DEBUG_VALUE: __is_long:this <- $r6
	.loc	2 1509 33                       @ C:\Keil_v5\ARM\ARMCLANG\Bin\..\include\libcxx\string:1509:33
	ldrsb	r0, [r6, #-53]
.Ltmp117:
	.loc	2 2337 9                        @ C:\Keil_v5\ARM\ARMCLANG\Bin\..\include\libcxx\string:2337:9
	cmp.w	r0, #-1
	bgt	.LBB2_22
.Ltmp118:
@ %bb.26:                               @   in Loop: Header=BB2_23 Depth=1
	@DEBUG_VALUE: ~basic_string:this <- $r6
	@DEBUG_VALUE: destroy<arm::app::Statistics, void>:__a <- [DW_OP_plus_uconst 4, DW_OP_plus_uconst 12, DW_OP_plus_uconst 8, DW_OP_stack_value] $sp
	@DEBUG_VALUE: destroy:this <- [DW_OP_plus_uconst 4, DW_OP_plus_uconst 12, DW_OP_plus_uconst 8, DW_OP_stack_value] $sp
	@DEBUG_VALUE: __clear:this <- [DW_OP_plus_uconst 4, DW_OP_plus_uconst 12, DW_OP_stack_value] $sp
	@DEBUG_VALUE: __base_destruct_at_end:this <- [DW_OP_plus_uconst 4, DW_OP_plus_uconst 12, DW_OP_stack_value] $sp
	@DEBUG_VALUE: __base_destruct_at_end:__new_last <- $r5
	@DEBUG_VALUE: ~pair:this <- [DW_OP_plus_uconst 4, DW_OP_stack_value] $sp
	@DEBUG_VALUE: StartProfiling:this <- $r4
	@DEBUG_VALUE: __get_long_pointer:this <- $r6
	.loc	2 1615 34                       @ C:\Keil_v5\ARM\ARMCLANG\Bin\..\include\libcxx\string:1615:34
	ldr	r0, [r6, #-64]
.Ltmp119:
	@DEBUG_VALUE: __do_deallocate_handle_size<>:__size <- [DW_OP_constu 2147483647, DW_OP_and, DW_OP_stack_value] undef
	@DEBUG_VALUE: __libcpp_deallocate:__align <- 1
	@DEBUG_VALUE: __libcpp_deallocate:__size <- [DW_OP_constu 2147483647, DW_OP_and, DW_OP_stack_value] undef
	@DEBUG_VALUE: deallocate:__n <- [DW_OP_constu 2147483647, DW_OP_and, DW_OP_stack_value] undef
	@DEBUG_VALUE: deallocate:this <- $r6
	@DEBUG_VALUE: deallocate:__n <- [DW_OP_constu 2147483647, DW_OP_and, DW_OP_stack_value] undef
	@DEBUG_VALUE: deallocate:__a <- $r6
	@DEBUG_VALUE: __libcpp_operator_delete<void *>:__args <- $r0
	@DEBUG_VALUE: __do_deallocate_handle_size<>:__ptr <- $r0
	@DEBUG_VALUE: __libcpp_deallocate:__ptr <- $r0
	@DEBUG_VALUE: deallocate:__p <- $r0
	@DEBUG_VALUE: deallocate:__p <- $r0
	.loc	63 280 3                        @ C:\Keil_v5\ARM\ARMCLANG\Bin\..\include\libcxx\new:280:3
	bl	_ZdlPv
.Ltmp120:
	.loc	63 0 3 is_stmt 0                @ C:\Keil_v5\ARM\ARMCLANG\Bin\..\include\libcxx\new:0:3
	b	.LBB2_22
.Ltmp121:
.LBB2_27:
	@DEBUG_VALUE: ~pair:this <- [DW_OP_plus_uconst 4, DW_OP_stack_value] $sp
	@DEBUG_VALUE: StartProfiling:this <- $r4
	.loc	3 434 53 is_stmt 1              @ C:\Keil_v5\ARM\ARMCLANG\Bin\..\include\libcxx\vector:434:53
	ldr	r0, [sp, #16]
.Ltmp122:
.LBB2_28:
	@DEBUG_VALUE: ~pair:this <- [DW_OP_plus_uconst 4, DW_OP_stack_value] $sp
	@DEBUG_VALUE: StartProfiling:this <- $r4
	.loc	3 835 18                        @ C:\Keil_v5\ARM\ARMCLANG\Bin\..\include\libcxx\vector:835:18
	str	r5, [sp, #20]
.Ltmp123:
	@DEBUG_VALUE: __libcpp_operator_delete<void *>:__args <- $r0
	@DEBUG_VALUE: __do_deallocate_handle_size<>:__size <- [DW_OP_LLVM_arg 0, DW_OP_LLVM_arg 1, DW_OP_minus, DW_OP_constu 6, DW_OP_shra, DW_OP_constu 6, DW_OP_shl, DW_OP_stack_value] undef, undef
	@DEBUG_VALUE: __do_deallocate_handle_size<>:__ptr <- $r0
	@DEBUG_VALUE: __libcpp_deallocate:__align <- 8
	@DEBUG_VALUE: __libcpp_deallocate:__size <- [DW_OP_LLVM_arg 0, DW_OP_LLVM_arg 1, DW_OP_minus, DW_OP_constu 6, DW_OP_shra, DW_OP_constu 6, DW_OP_shl, DW_OP_stack_value] undef, undef
	@DEBUG_VALUE: __libcpp_deallocate:__ptr <- $r0
	@DEBUG_VALUE: deallocate:__n <- [DW_OP_LLVM_arg 0, DW_OP_LLVM_arg 1, DW_OP_minus, DW_OP_constu 6, DW_OP_shra, DW_OP_stack_value] undef, undef
	@DEBUG_VALUE: deallocate:__p <- $r0
	@DEBUG_VALUE: deallocate:__n <- [DW_OP_LLVM_arg 0, DW_OP_LLVM_arg 1, DW_OP_minus, DW_OP_constu 6, DW_OP_shra, DW_OP_stack_value] undef, undef
	@DEBUG_VALUE: deallocate:__p <- $r0
	.loc	63 280 3                        @ C:\Keil_v5\ARM\ARMCLANG\Bin\..\include\libcxx\new:280:3
	bl	_ZdlPv
.Ltmp124:
	@DEBUG_VALUE: deallocate:this <- [DW_OP_plus_uconst 4, DW_OP_plus_uconst 12, DW_OP_plus_uconst 8, DW_OP_stack_value] $sp
	@DEBUG_VALUE: deallocate:__a <- [DW_OP_plus_uconst 4, DW_OP_plus_uconst 12, DW_OP_plus_uconst 8, DW_OP_stack_value] $sp
.LBB2_29:
	@DEBUG_VALUE: ~pair:this <- [DW_OP_plus_uconst 4, DW_OP_stack_value] $sp
	@DEBUG_VALUE: StartProfiling:this <- $r4
	@DEBUG_VALUE: ~basic_string:this <- [DW_OP_plus_uconst 4, DW_OP_stack_value] $sp
	@DEBUG_VALUE: __is_long:this <- [DW_OP_plus_uconst 4, DW_OP_stack_value] $sp
	.loc	2 1509 33                       @ C:\Keil_v5\ARM\ARMCLANG\Bin\..\include\libcxx\string:1509:33
	ldrsb.w	r0, [sp, #15]
.Ltmp125:
	.loc	2 2337 9                        @ C:\Keil_v5\ARM\ARMCLANG\Bin\..\include\libcxx\string:2337:9
	cmp.w	r0, #-1
	bgt	.LBB2_31
.Ltmp126:
@ %bb.30:
	@DEBUG_VALUE: ~basic_string:this <- [DW_OP_plus_uconst 4, DW_OP_stack_value] $sp
	@DEBUG_VALUE: ~pair:this <- [DW_OP_plus_uconst 4, DW_OP_stack_value] $sp
	@DEBUG_VALUE: StartProfiling:this <- $r4
	@DEBUG_VALUE: __get_long_pointer:this <- [DW_OP_plus_uconst 4, DW_OP_stack_value] $sp
	.loc	2 1615 34                       @ C:\Keil_v5\ARM\ARMCLANG\Bin\..\include\libcxx\string:1615:34
	ldr	r0, [sp, #4]
.Ltmp127:
	@DEBUG_VALUE: __do_deallocate_handle_size<>:__size <- [DW_OP_constu 2147483647, DW_OP_and, DW_OP_stack_value] undef
	@DEBUG_VALUE: __libcpp_deallocate:__align <- 1
	@DEBUG_VALUE: __libcpp_deallocate:__size <- [DW_OP_constu 2147483647, DW_OP_and, DW_OP_stack_value] undef
	@DEBUG_VALUE: deallocate:__n <- [DW_OP_constu 2147483647, DW_OP_and, DW_OP_stack_value] undef
	@DEBUG_VALUE: deallocate:this <- [DW_OP_plus_uconst 4, DW_OP_stack_value] $sp
	@DEBUG_VALUE: deallocate:__n <- [DW_OP_constu 2147483647, DW_OP_and, DW_OP_stack_value] undef
	@DEBUG_VALUE: deallocate:__a <- [DW_OP_plus_uconst 4, DW_OP_stack_value] $sp
	@DEBUG_VALUE: __libcpp_operator_delete<void *>:__args <- $r0
	@DEBUG_VALUE: __do_deallocate_handle_size<>:__ptr <- $r0
	@DEBUG_VALUE: __libcpp_deallocate:__ptr <- $r0
	@DEBUG_VALUE: deallocate:__p <- $r0
	@DEBUG_VALUE: deallocate:__p <- $r0
	.loc	63 280 3                        @ C:\Keil_v5\ARM\ARMCLANG\Bin\..\include\libcxx\new:280:3
	bl	_ZdlPv
.Ltmp128:
.LBB2_31:
	@DEBUG_VALUE: StartProfiling:this <- $r4
	.loc	63 0 3 is_stmt 0                @ C:\Keil_v5\ARM\ARMCLANG\Bin\..\include\libcxx\new:0:3
	movs	r0, #1
	.loc	1 50 33 is_stmt 1               @ ../../../../ThirdParty/ml-embedded-evaluation-kit/source/profiler/Profiler.cc:50:33
	strb.w	r0, [r4, #352]
.Ltmp129:
	.loc	1 56 5                          @ ../../../../ThirdParty/ml-embedded-evaluation-kit/source/profiler/Profiler.cc:56:5
	add	sp, #36
	pop.w	{r4, r5, r6, r7, r8, r9, pc}
.Ltmp130:
.LBB2_32:
	@DEBUG_VALUE: StartProfiling:this <- $r4
	@DEBUG_VALUE: __throw_length_error:this <- [DW_OP_plus_uconst 4, DW_OP_stack_value] $sp
	.loc	1 0 0 is_stmt 0                 @ ../../../../ThirdParty/ml-embedded-evaluation-kit/source/profiler/Profiler.cc:0:0
	bl	abort
.Ltmp131:
	.p2align	2
@ %bb.33:
.LCPI2_0:
.L.str.2:
	.asciz	"Failed to start profiler %s\n\000\000\000"
.Lfunc_end2:
	.size	_ZN3arm3app8Profiler14StartProfilingEPKc, .Lfunc_end2-_ZN3arm3app8Profiler14StartProfilingEPKc
	.cfi_endproc
	.file	65 "<stdin>"
	.file	66 "C:\\Keil_v5\\ARM\\ARMCLANG\\Bin\\..\\include\\libcxx\\__type_traits" "can_extract_key.h"
	.cantunwind
	.fnend
                                        @ -- End function
	.section	.text._ZN3arm3app8Profiler7SetNameEPKc,"ax",%progbits
	.hidden	_ZN3arm3app8Profiler7SetNameEPKc @ -- Begin function _ZN3arm3app8Profiler7SetNameEPKc
	.globl	_ZN3arm3app8Profiler7SetNameEPKc
	.p2align	2
	.type	_ZN3arm3app8Profiler7SetNameEPKc,%function
	.code	16                              @ @_ZN3arm3app8Profiler7SetNameEPKc
	.thumb_func
_ZN3arm3app8Profiler7SetNameEPKc:
.Lfunc_begin3:
	.loc	1 151 0 is_stmt 1               @ ../../../../ThirdParty/ml-embedded-evaluation-kit/source/profiler/Profiler.cc:151:0
	.fnstart
	.cfi_startproc
@ %bb.0:
	@DEBUG_VALUE: SetName:this <- $r0
	@DEBUG_VALUE: SetName:str <- $r1
	.save	{r4, r5, r6, r7, lr}
	push	{r4, r5, r6, r7, lr}
	.cfi_def_cfa_offset 20
	.cfi_offset lr, -4
	.cfi_offset r7, -8
	.cfi_offset r6, -12
	.cfi_offset r5, -16
	.cfi_offset r4, -20
	.pad	#12
	sub	sp, #12
	.cfi_def_cfa_offset 32
	mov	r4, r0
.Ltmp132:
	@DEBUG_VALUE: SetName:this <- $r4
	@DEBUG_VALUE: length:__s <- $r5
	@DEBUG_VALUE: basic_string<std::nullptr_t>:__s <- $r5
	@DEBUG_VALUE: basic_string<std::nullptr_t>:this <- $sp
	@DEBUG_VALUE: SetName:this <- $r4
	.loc	5 222 14 prologue_end           @ C:\Keil_v5\ARM\ARMCLANG\Bin\..\include\libcxx\__string/char_traits.h:222:14
	mov	r0, r1
	mov	r5, r1
.Ltmp133:
	@DEBUG_VALUE: SetName:str <- $r5
	@DEBUG_VALUE: SetName:str <- $r5
	bl	strlen
.Ltmp134:
	mov	r6, r0
	movw	r0, #65520
	movt	r0, #32767
.Ltmp135:
	@DEBUG_VALUE: __init:__s <- $r5
	@DEBUG_VALUE: __init:this <- $sp
	@DEBUG_VALUE: __init:__sz <- $r6
	.loc	2 1960 9                        @ C:\Keil_v5\ARM\ARMCLANG\Bin\..\include\libcxx\string:1960:9
	cmp	r6, r0
	bhs	.LBB3_8
.Ltmp136:
@ %bb.1:
	@DEBUG_VALUE: __init:__sz <- $r6
	@DEBUG_VALUE: __init:this <- $sp
	@DEBUG_VALUE: __init:__s <- $r5
	@DEBUG_VALUE: SetName:str <- $r5
	@DEBUG_VALUE: basic_string<std::nullptr_t>:this <- $sp
	@DEBUG_VALUE: SetName:this <- $r4
	@DEBUG_VALUE: __fits_in_sso:__sz <- $r6
	.loc	2 1963 9                        @ C:\Keil_v5\ARM\ARMCLANG\Bin\..\include\libcxx\string:1963:9
	cmp	r6, #11
	bhs	.LBB3_3
.Ltmp137:
@ %bb.2:
	@DEBUG_VALUE: __init:__sz <- $r6
	@DEBUG_VALUE: __init:this <- $sp
	@DEBUG_VALUE: __init:__s <- $r5
	@DEBUG_VALUE: SetName:str <- $r5
	@DEBUG_VALUE: basic_string<std::nullptr_t>:this <- $sp
	@DEBUG_VALUE: SetName:this <- $r4
	@DEBUG_VALUE: __set_short_size:this <- $sp
	@DEBUG_VALUE: __set_short_size:__s <- $r6
	.loc	2 0 9 is_stmt 0                 @ C:\Keil_v5\ARM\ARMCLANG\Bin\..\include\libcxx\string:0:9
	mov	r0, sp
.Ltmp138:
	@DEBUG_VALUE: copy:__n <- $r6
	@DEBUG_VALUE: copy:__s2 <- $r5
	@DEBUG_VALUE: copy:__s1 <- $sp
	@DEBUG_VALUE: __init:__p <- $sp
	.loc	5 236 13 is_stmt 1              @ C:\Keil_v5\ARM\ARMCLANG\Bin\..\include\libcxx\__string/char_traits.h:236:13
	add.w	r7, r0, r6
.Ltmp139:
	@DEBUG_VALUE: __copy_impl<const char, char, void>:__n <- $r6
	@DEBUG_VALUE: __copy_impl<const char, char, void>:__result <- $sp
	@DEBUG_VALUE: __copy_impl<const char, char, void>:__last <- [DW_OP_LLVM_arg 0, DW_OP_LLVM_arg 1, DW_OP_constu 1, DW_OP_mul, DW_OP_plus, DW_OP_stack_value] $r5, $r6
	@DEBUG_VALUE: __copy_impl<const char, char, void>:__first <- $r5
	@DEBUG_VALUE: __copy<const char *, const char *, char *, 0>:__range <- [DW_OP_LLVM_arg 0, DW_OP_LLVM_arg 1, DW_OP_constu 1, DW_OP_mul, DW_OP_plus, DW_OP_stack_value, DW_OP_LLVM_fragment 32 32] $r5, $r6
	@DEBUG_VALUE: __copy<const char *, const char *, char *, 0>:__range <- [DW_OP_LLVM_fragment 0 32] $r5
	@DEBUG_VALUE: __copy<const char *, const char *, char *, 0>:__result <- $sp
	@DEBUG_VALUE: __copy<const char *, const char *, char *, 0>:__last <- [DW_OP_LLVM_arg 0, DW_OP_LLVM_arg 1, DW_OP_constu 1, DW_OP_mul, DW_OP_plus, DW_OP_stack_value] $r5, $r6
	@DEBUG_VALUE: __copy<const char *, const char *, char *, 0>:__first <- $r5
	@DEBUG_VALUE: copy<const char *, char *>:__result <- $sp
	@DEBUG_VALUE: copy<const char *, char *>:__last <- [DW_OP_LLVM_arg 0, DW_OP_LLVM_arg 1, DW_OP_constu 1, DW_OP_mul, DW_OP_plus, DW_OP_stack_value] $r5, $r6
	@DEBUG_VALUE: copy<const char *, char *>:__first <- $r5
	@DEBUG_VALUE: copy_n<const char *, unsigned int, char *>:__n <- $r6
	@DEBUG_VALUE: copy_n<const char *, unsigned int, char *>:__result <- $sp
	@DEBUG_VALUE: copy_n<const char *, unsigned int, char *>:__orig_n <- $r6
	@DEBUG_VALUE: copy_n<const char *, unsigned int, char *>:__first <- $r5
	.loc	2 1580 37                       @ C:\Keil_v5\ARM\ARMCLANG\Bin\..\include\libcxx\string:1580:37
	strb.w	r6, [sp, #11]
.Ltmp140:
	.loc	60 55 7                         @ C:\Keil_v5\ARM\ARMCLANG\Bin\..\include\libcxx\__algorithm/copy.h:55:7
	cbnz	r6, .LBB3_4
	b	.LBB3_5
.Ltmp141:
.LBB3_3:
	@DEBUG_VALUE: __init:__sz <- $r6
	@DEBUG_VALUE: __init:this <- $sp
	@DEBUG_VALUE: __init:__s <- $r5
	@DEBUG_VALUE: SetName:str <- $r5
	@DEBUG_VALUE: basic_string<std::nullptr_t>:this <- $sp
	@DEBUG_VALUE: SetName:this <- $r4
	@DEBUG_VALUE: __recommend:__s <- $r6
	.loc	2 1640 13                       @ C:\Keil_v5\ARM\ARMCLANG\Bin\..\include\libcxx\string:1640:13
	orr	r0, r6, #15
.Ltmp142:
	.loc	2 1970 83                       @ C:\Keil_v5\ARM\ARMCLANG\Bin\..\include\libcxx\string:1970:83
	adds	r7, r0, #1
.Ltmp143:
	@DEBUG_VALUE: __libcpp_allocate:__align <- 1
	@DEBUG_VALUE: allocate:this <- $sp
	@DEBUG_VALUE: __allocate_at_least<std::__2::allocator<char> >:__alloc <- $sp
	@DEBUG_VALUE: __libcpp_operator_new<unsigned int>:__args <- $r7
	@DEBUG_VALUE: __libcpp_allocate:__size <- $r7
	@DEBUG_VALUE: allocate:__n <- $r7
	@DEBUG_VALUE: __allocate_at_least<std::__2::allocator<char> >:__n <- $r7
	.loc	63 270 10                       @ C:\Keil_v5\ARM\ARMCLANG\Bin\..\include\libcxx\new:270:10
	mov	r0, r7
	bl	_Znwj
.Ltmp144:
	@DEBUG_VALUE: __set_long_pointer:this <- $sp
	@DEBUG_VALUE: __allocation <- [DW_OP_LLVM_fragment 32 32] $r7
	@DEBUG_VALUE: __set_long_pointer:__p <- $r0
	@DEBUG_VALUE: __init:__p <- $r0
	@DEBUG_VALUE: __allocation <- [DW_OP_LLVM_fragment 0 32] $r0
	.loc	2 1602 37                       @ C:\Keil_v5\ARM\ARMCLANG\Bin\..\include\libcxx\string:1602:37
	orr	r1, r7, #-2147483648
.Ltmp145:
	@DEBUG_VALUE: __set_long_size:__s <- $r6
	@DEBUG_VALUE: __set_long_size:this <- $sp
	.loc	2 1612 35                       @ C:\Keil_v5\ARM\ARMCLANG\Bin\..\include\libcxx\string:1612:35
	str	r0, [sp]
.Ltmp146:
	@DEBUG_VALUE: __set_long_cap:__s <- $r7
	@DEBUG_VALUE: __set_long_cap:this <- $sp
	.loc	2 1591 35                       @ C:\Keil_v5\ARM\ARMCLANG\Bin\..\include\libcxx\string:1591:35
	strd	r6, r1, [sp, #4]
.Ltmp147:
	@DEBUG_VALUE: copy:__n <- $r6
	@DEBUG_VALUE: copy:__s2 <- $r5
	@DEBUG_VALUE: copy:__s1 <- $sp
	@DEBUG_VALUE: __init:__p <- $sp
	.loc	5 236 13                        @ C:\Keil_v5\ARM\ARMCLANG\Bin\..\include\libcxx\__string/char_traits.h:236:13
	adds	r7, r0, r6
.Ltmp148:
	@DEBUG_VALUE: __copy_impl<const char, char, void>:__n <- $r6
	@DEBUG_VALUE: __copy_impl<const char, char, void>:__result <- $sp
	@DEBUG_VALUE: __copy_impl<const char, char, void>:__last <- [DW_OP_LLVM_arg 0, DW_OP_LLVM_arg 1, DW_OP_constu 1, DW_OP_mul, DW_OP_plus, DW_OP_stack_value] $r5, $r6
	@DEBUG_VALUE: __copy_impl<const char, char, void>:__first <- $r5
	@DEBUG_VALUE: __copy<const char *, const char *, char *, 0>:__range <- [DW_OP_LLVM_arg 0, DW_OP_LLVM_arg 1, DW_OP_constu 1, DW_OP_mul, DW_OP_plus, DW_OP_stack_value, DW_OP_LLVM_fragment 32 32] $r5, $r6
	@DEBUG_VALUE: __copy<const char *, const char *, char *, 0>:__range <- [DW_OP_LLVM_fragment 0 32] $r5
	@DEBUG_VALUE: __copy<const char *, const char *, char *, 0>:__result <- $sp
	@DEBUG_VALUE: __copy<const char *, const char *, char *, 0>:__last <- [DW_OP_LLVM_arg 0, DW_OP_LLVM_arg 1, DW_OP_constu 1, DW_OP_mul, DW_OP_plus, DW_OP_stack_value] $r5, $r6
	@DEBUG_VALUE: __copy<const char *, const char *, char *, 0>:__first <- $r5
	@DEBUG_VALUE: copy<const char *, char *>:__result <- $sp
	@DEBUG_VALUE: copy<const char *, char *>:__last <- [DW_OP_LLVM_arg 0, DW_OP_LLVM_arg 1, DW_OP_constu 1, DW_OP_mul, DW_OP_plus, DW_OP_stack_value] $r5, $r6
	@DEBUG_VALUE: copy<const char *, char *>:__first <- $r5
	@DEBUG_VALUE: copy_n<const char *, unsigned int, char *>:__n <- $r6
	@DEBUG_VALUE: copy_n<const char *, unsigned int, char *>:__result <- $sp
	@DEBUG_VALUE: copy_n<const char *, unsigned int, char *>:__orig_n <- $r6
	@DEBUG_VALUE: copy_n<const char *, unsigned int, char *>:__first <- $r5
.LBB3_4:
	@DEBUG_VALUE: copy_n<const char *, unsigned int, char *>:__first <- $r5
	@DEBUG_VALUE: copy_n<const char *, unsigned int, char *>:__orig_n <- $r6
	@DEBUG_VALUE: copy_n<const char *, unsigned int, char *>:__result <- $sp
	@DEBUG_VALUE: copy_n<const char *, unsigned int, char *>:__n <- $r6
	@DEBUG_VALUE: copy<const char *, char *>:__first <- $r5
	@DEBUG_VALUE: copy<const char *, char *>:__last <- [DW_OP_LLVM_arg 0, DW_OP_LLVM_arg 1, DW_OP_constu 1, DW_OP_mul, DW_OP_plus, DW_OP_stack_value] $r5, $r6
	@DEBUG_VALUE: copy<const char *, char *>:__result <- $sp
	@DEBUG_VALUE: __copy<const char *, const char *, char *, 0>:__first <- $r5
	@DEBUG_VALUE: __copy<const char *, const char *, char *, 0>:__last <- [DW_OP_LLVM_arg 0, DW_OP_LLVM_arg 1, DW_OP_constu 1, DW_OP_mul, DW_OP_plus, DW_OP_stack_value] $r5, $r6
	@DEBUG_VALUE: __copy<const char *, const char *, char *, 0>:__result <- $sp
	@DEBUG_VALUE: __copy<const char *, const char *, char *, 0>:__range <- [DW_OP_LLVM_fragment 0 32] $r5
	@DEBUG_VALUE: __copy<const char *, const char *, char *, 0>:__range <- [DW_OP_LLVM_arg 0, DW_OP_LLVM_arg 1, DW_OP_constu 1, DW_OP_mul, DW_OP_plus, DW_OP_stack_value, DW_OP_LLVM_fragment 32 32] $r5, $r6
	@DEBUG_VALUE: __copy_impl<const char, char, void>:__first <- $r5
	@DEBUG_VALUE: __copy_impl<const char, char, void>:__last <- [DW_OP_LLVM_arg 0, DW_OP_LLVM_arg 1, DW_OP_constu 1, DW_OP_mul, DW_OP_plus, DW_OP_stack_value] $r5, $r6
	@DEBUG_VALUE: __copy_impl<const char, char, void>:__result <- $sp
	@DEBUG_VALUE: __copy_impl<const char, char, void>:__n <- $r6
	@DEBUG_VALUE: __init:__p <- $sp
	@DEBUG_VALUE: copy:__s1 <- $sp
	@DEBUG_VALUE: copy:__s2 <- $r5
	@DEBUG_VALUE: copy:__n <- $r6
	@DEBUG_VALUE: __init:__sz <- $r6
	@DEBUG_VALUE: __init:this <- $sp
	@DEBUG_VALUE: __init:__s <- $r5
	@DEBUG_VALUE: SetName:str <- $r5
	@DEBUG_VALUE: basic_string<std::nullptr_t>:this <- $sp
	@DEBUG_VALUE: SetName:this <- $r4
	.loc	60 56 5                         @ C:\Keil_v5\ARM\ARMCLANG\Bin\..\include\libcxx\__algorithm/copy.h:56:5
	mov	r1, r5
	mov	r2, r6
	bl	__aeabi_memcpy
.Ltmp149:
.LBB3_5:
	@DEBUG_VALUE: __init:__p <- $sp
	@DEBUG_VALUE: __init:__sz <- $r6
	@DEBUG_VALUE: __init:this <- $sp
	@DEBUG_VALUE: __init:__s <- $r5
	@DEBUG_VALUE: SetName:str <- $r5
	@DEBUG_VALUE: basic_string<std::nullptr_t>:this <- $sp
	@DEBUG_VALUE: SetName:this <- $r4
	@DEBUG_VALUE: __copy<const char *, const char *, char *, 0>:__ret <- [DW_OP_LLVM_arg 0, DW_OP_LLVM_arg 0, DW_OP_constu 1, DW_OP_mul, DW_OP_plus, DW_OP_stack_value, DW_OP_LLVM_fragment 0 32] undef
	@DEBUG_VALUE: __copy<const char *, const char *, char *, 0>:__ret <- [DW_OP_LLVM_arg 0, DW_OP_LLVM_arg 0, DW_OP_constu 1, DW_OP_mul, DW_OP_plus, DW_OP_stack_value, DW_OP_LLVM_fragment 32 32] undef
	@DEBUG_VALUE: assign:__c2 <- undef
	.loc	60 0 5 is_stmt 0                @ C:\Keil_v5\ARM\ARMCLANG\Bin\..\include\libcxx\__algorithm/copy.h:0:5
	movs	r0, #0
.Ltmp150:
	.loc	5 202 73 is_stmt 1              @ C:\Keil_v5\ARM\ARMCLANG\Bin\..\include\libcxx\__string/char_traits.h:202:73
	strb	r0, [r7]
.Ltmp151:
	.loc	2 1509 33                       @ C:\Keil_v5\ARM\ARMCLANG\Bin\..\include\libcxx\string:1509:33
	ldrsb.w	r0, [r4, #367]
.Ltmp152:
	.loc	1 152 15                        @ ../../../../ThirdParty/ml-embedded-evaluation-kit/source/profiler/Profiler.cc:152:15
	add.w	r4, r4, #356
.Ltmp153:
	@DEBUG_VALUE: SetName:this <- [DW_OP_LLVM_entry_value 1] $r0
	@DEBUG_VALUE: __move_assign:__str <- $sp
	@DEBUG_VALUE: operator=:__str <- $sp
	@DEBUG_VALUE: __is_long:this <- $r4
	@DEBUG_VALUE: __move_assign:this <- $r4
	@DEBUG_VALUE: operator=:this <- $r4
	.loc	2 2540 7                        @ C:\Keil_v5\ARM\ARMCLANG\Bin\..\include\libcxx\string:2540:7
	cmp.w	r0, #-1
	bgt	.LBB3_7
.Ltmp154:
@ %bb.6:
	@DEBUG_VALUE: operator=:this <- $r4
	@DEBUG_VALUE: __move_assign:this <- $r4
	@DEBUG_VALUE: operator=:__str <- $sp
	@DEBUG_VALUE: __move_assign:__str <- $sp
	@DEBUG_VALUE: SetName:this <- [DW_OP_LLVM_entry_value 1] $r0
	@DEBUG_VALUE: SetName:str <- $r5
	@DEBUG_VALUE: __get_long_pointer:this <- $r4
	.loc	2 1615 34                       @ C:\Keil_v5\ARM\ARMCLANG\Bin\..\include\libcxx\string:1615:34
	ldr	r0, [r4]
.Ltmp155:
	@DEBUG_VALUE: __do_deallocate_handle_size<>:__size <- [DW_OP_constu 2147483647, DW_OP_and, DW_OP_stack_value] undef
	@DEBUG_VALUE: __libcpp_deallocate:__align <- 1
	@DEBUG_VALUE: __libcpp_deallocate:__size <- [DW_OP_constu 2147483647, DW_OP_and, DW_OP_stack_value] undef
	@DEBUG_VALUE: deallocate:__n <- [DW_OP_constu 2147483647, DW_OP_and, DW_OP_stack_value] undef
	@DEBUG_VALUE: deallocate:this <- $r4
	@DEBUG_VALUE: deallocate:__n <- [DW_OP_constu 2147483647, DW_OP_and, DW_OP_stack_value] undef
	@DEBUG_VALUE: deallocate:__a <- $r4
	@DEBUG_VALUE: __libcpp_operator_delete<void *>:__args <- $r0
	@DEBUG_VALUE: __do_deallocate_handle_size<>:__ptr <- $r0
	@DEBUG_VALUE: __libcpp_deallocate:__ptr <- $r0
	@DEBUG_VALUE: deallocate:__p <- $r0
	@DEBUG_VALUE: deallocate:__p <- $r0
	.loc	63 280 3                        @ C:\Keil_v5\ARM\ARMCLANG\Bin\..\include\libcxx\new:280:3
	bl	_ZdlPv
.Ltmp156:
.LBB3_7:
	@DEBUG_VALUE: operator=:this <- $r4
	@DEBUG_VALUE: __move_assign:this <- $r4
	@DEBUG_VALUE: operator=:__str <- $sp
	@DEBUG_VALUE: __move_assign:__str <- $sp
	@DEBUG_VALUE: SetName:this <- [DW_OP_LLVM_entry_value 1] $r0
	@DEBUG_VALUE: SetName:str <- $r5
	.loc	2 2551 16                       @ C:\Keil_v5\ARM\ARMCLANG\Bin\..\include\libcxx\string:2551:16
	ldm.w	sp, {r0, r1, r2}
.Ltmp157:
	@DEBUG_VALUE: __is_long:this <- $sp
	@DEBUG_VALUE: assign:__c2 <- undef
	@DEBUG_VALUE: assign:__c1 <- $sp
	@DEBUG_VALUE: __set_short_size:__s <- 0
	@DEBUG_VALUE: __set_short_size:this <- $sp
	stm	r4!, {r0, r1, r2}
.Ltmp158:
	.loc	1 153 5                         @ ../../../../ThirdParty/ml-embedded-evaluation-kit/source/profiler/Profiler.cc:153:5
	add	sp, #12
	pop	{r4, r5, r6, r7, pc}
.Ltmp159:
.LBB3_8:
	@DEBUG_VALUE: __init:__sz <- $r6
	@DEBUG_VALUE: __init:this <- $sp
	@DEBUG_VALUE: __init:__s <- $r5
	@DEBUG_VALUE: SetName:str <- $r5
	@DEBUG_VALUE: basic_string<std::nullptr_t>:this <- $sp
	@DEBUG_VALUE: SetName:this <- $r4
	@DEBUG_VALUE: __throw_length_error:this <- $sp
	.loc	64 260 5                        @ C:\Keil_v5\ARM\ARMCLANG\Bin\..\include\libcxx\stdexcept:260:5
	bl	abort
.Ltmp160:
.Lfunc_end3:
	.size	_ZN3arm3app8Profiler7SetNameEPKc, .Lfunc_end3-_ZN3arm3app8Profiler7SetNameEPKc
	.cfi_endproc
	.cantunwind
	.fnend
                                        @ -- End function
	.section	.text._ZN3arm3app8Profiler13StopProfilingEv,"ax",%progbits
	.hidden	_ZN3arm3app8Profiler13StopProfilingEv @ -- Begin function _ZN3arm3app8Profiler13StopProfilingEv
	.globl	_ZN3arm3app8Profiler13StopProfilingEv
	.p2align	2
	.type	_ZN3arm3app8Profiler13StopProfilingEv,%function
	.code	16                              @ @_ZN3arm3app8Profiler13StopProfilingEv
	.thumb_func
_ZN3arm3app8Profiler13StopProfilingEv:
.Lfunc_begin4:
	.loc	1 59 0                          @ ../../../../ThirdParty/ml-embedded-evaluation-kit/source/profiler/Profiler.cc:59:0
	.fnstart
	.cfi_startproc
@ %bb.0:
	@DEBUG_VALUE: StopProfiling:this <- $r0
	.save	{r4, r5, r6, lr}
	push	{r4, r5, r6, lr}
	.cfi_def_cfa_offset 16
	.cfi_offset lr, -4
	.cfi_offset r6, -8
	.cfi_offset r5, -12
	.cfi_offset r4, -16
	.pad	#336
	sub	sp, #336
	.cfi_def_cfa_offset 352
	mov	r4, r0
.Ltmp161:
	@DEBUG_VALUE: StopProfiling:this <- $r4
	.loc	1 60 19 prologue_end            @ ../../../../ThirdParty/ml-embedded-evaluation-kit/source/profiler/Profiler.cc:60:19
	ldrb.w	r0, [r0, #352]
.Ltmp162:
	.loc	1 60 13 is_stmt 0               @ ../../../../ThirdParty/ml-embedded-evaluation-kit/source/profiler/Profiler.cc:60:13
	cbz	r0, .LBB4_7
.Ltmp163:
@ %bb.1:
	@DEBUG_VALUE: StopProfiling:this <- $r4
	.loc	1 61 19 is_stmt 1               @ ../../../../ThirdParty/ml-embedded-evaluation-kit/source/profiler/Profiler.cc:61:19
	add.w	r5, r4, #184
	movs	r6, #0
	.loc	1 62 13                         @ ../../../../ThirdParty/ml-embedded-evaluation-kit/source/profiler/Profiler.cc:62:13
	mov	r0, r5
	.loc	1 61 43                         @ ../../../../ThirdParty/ml-embedded-evaluation-kit/source/profiler/Profiler.cc:61:43
	strb.w	r6, [r4, #348]
	.loc	1 62 13                         @ ../../../../ThirdParty/ml-embedded-evaluation-kit/source/profiler/Profiler.cc:62:13
	bl	pmu_get_counters
.Ltmp164:
	.loc	1 64 35                         @ ../../../../ThirdParty/ml-embedded-evaluation-kit/source/profiler/Profiler.cc:64:35
	ldrb.w	r0, [r4, #348]
.Ltmp165:
	.loc	1 63 29                         @ ../../../../ThirdParty/ml-embedded-evaluation-kit/source/profiler/Profiler.cc:63:29
	strb.w	r6, [r4, #352]
	.loc	1 64 17                         @ ../../../../ThirdParty/ml-embedded-evaluation-kit/source/profiler/Profiler.cc:64:17
	cbz	r0, .LBB4_7
.Ltmp166:
@ %bb.2:
	@DEBUG_VALUE: StopProfiling:this <- $r4
	.loc	1 68 27                         @ ../../../../ThirdParty/ml-embedded-evaluation-kit/source/profiler/Profiler.cc:68:27
	add.w	r1, r4, #356
	mov	r0, sp
	.loc	1 65 23                         @ ../../../../ThirdParty/ml-embedded-evaluation-kit/source/profiler/Profiler.cc:65:23
	str	r1, [sp, #328]
	add.w	r1, r4, #24
	movs	r2, #160
.Ltmp167:
.LBB4_3:                                @ =>This Inner Loop Header: Depth=1
	@DEBUG_VALUE: StopProfiling:this <- $r4
	ldr	r3, [r1], #4
	subs	r2, #4
	str	r3, [r0], #4
	bne	.LBB4_3
.Ltmp168:
@ %bb.4:
	@DEBUG_VALUE: StopProfiling:this <- $r4
	add	r0, sp, #160
	movs	r1, #168
.Ltmp169:
.LBB4_5:                                @ =>This Inner Loop Header: Depth=1
	@DEBUG_VALUE: StopProfiling:this <- $r4
	ldr	r2, [r5], #4
	subs	r1, #4
	str	r2, [r0], #4
	bne	.LBB4_5
.Ltmp170:
@ %bb.6:
	@DEBUG_VALUE: StopProfiling:this <- $r4
	ldrd	r2, r3, [r4, #16]
	mov	r0, r4
.Ltmp171:
	@DEBUG_VALUE: StopProfiling:this <- $r0
	bl	_ZN3arm3app8Profiler18UpdateRunningStatsE13_pmu_countersS2_RKNSt3__212basic_stringIcNS3_11char_traitsIcEENS3_9allocatorIcEEEE
.Ltmp172:
	@DEBUG_VALUE: StopProfiling:this <- [DW_OP_LLVM_entry_value 1] $r0
	.loc	1 0 23 is_stmt 0                @ ../../../../ThirdParty/ml-embedded-evaluation-kit/source/profiler/Profiler.cc:0:23
	movs	r0, #1
.Ltmp173:
	.loc	1 74 5 is_stmt 1                @ ../../../../ThirdParty/ml-embedded-evaluation-kit/source/profiler/Profiler.cc:74:5
	add	sp, #336
	pop	{r4, r5, r6, pc}
.Ltmp174:
.LBB4_7:
	@DEBUG_VALUE: StopProfiling:this <- $r4
	.loc	1 72 9                          @ ../../../../ThirdParty/ml-embedded-evaluation-kit/source/profiler/Profiler.cc:72:9
	movw	r0, :lower16:.L.str.1
	movt	r0, :upper16:.L.str.1
	bl	__2printf
.Ltmp175:
	@DEBUG_VALUE: __is_long:this <- undef
	@DEBUG_VALUE: __get_pointer:this <- undef
	@DEBUG_VALUE: data:this <- undef
	@DEBUG_VALUE: c_str:this <- undef
	.loc	2 1509 33                       @ C:\Keil_v5\ARM\ARMCLANG\Bin\..\include\libcxx\string:1509:33
	ldrsb.w	r0, [r4, #367]
	ldr.w	r1, [r4, #356]
.Ltmp176:
	.loc	2 1630 17                       @ C:\Keil_v5\ARM\ARMCLANG\Bin\..\include\libcxx\string:1630:17
	cmp	r0, #0
.Ltmp177:
	.loc	1 72 9                          @ ../../../../ThirdParty/ml-embedded-evaluation-kit/source/profiler/Profiler.cc:72:9
	movw	r0, :lower16:.L.str.3
	movt	r0, :upper16:.L.str.3
.Ltmp178:
	.loc	2 1630 17                       @ C:\Keil_v5\ARM\ARMCLANG\Bin\..\include\libcxx\string:1630:17
	it	pl
	addpl.w	r1, r4, #356
.Ltmp179:
	.loc	1 72 9                          @ ../../../../ThirdParty/ml-embedded-evaluation-kit/source/profiler/Profiler.cc:72:9
	bl	__2printf
.Ltmp180:
	.loc	1 0 9 is_stmt 0                 @ ../../../../ThirdParty/ml-embedded-evaluation-kit/source/profiler/Profiler.cc:0:9
	movs	r0, #0
	.loc	1 74 5 is_stmt 1                @ ../../../../ThirdParty/ml-embedded-evaluation-kit/source/profiler/Profiler.cc:74:5
	add	sp, #336
	pop	{r4, r5, r6, pc}
.Ltmp181:
.Lfunc_end4:
	.size	_ZN3arm3app8Profiler13StopProfilingEv, .Lfunc_end4-_ZN3arm3app8Profiler13StopProfilingEv
	.cfi_endproc
	.cantunwind
	.fnend
                                        @ -- End function
	.section	.text._ZN3arm3app8Profiler18UpdateRunningStatsE13_pmu_countersS2_RKNSt3__212basic_stringIcNS3_11char_traitsIcEENS3_9allocatorIcEEEE,"ax",%progbits
	.hidden	_ZN3arm3app8Profiler18UpdateRunningStatsE13_pmu_countersS2_RKNSt3__212basic_stringIcNS3_11char_traitsIcEENS3_9allocatorIcEEEE @ -- Begin function _ZN3arm3app8Profiler18UpdateRunningStatsE13_pmu_countersS2_RKNSt3__212basic_stringIcNS3_11char_traitsIcEENS3_9allocatorIcEEEE
	.globl	_ZN3arm3app8Profiler18UpdateRunningStatsE13_pmu_countersS2_RKNSt3__212basic_stringIcNS3_11char_traitsIcEENS3_9allocatorIcEEEE
	.p2align	2
	.type	_ZN3arm3app8Profiler18UpdateRunningStatsE13_pmu_countersS2_RKNSt3__212basic_stringIcNS3_11char_traitsIcEENS3_9allocatorIcEEEE,%function
	.code	16                              @ @_ZN3arm3app8Profiler18UpdateRunningStatsE13_pmu_countersS2_RKNSt3__212basic_stringIcNS3_11char_traitsIcEENS3_9allocatorIcEEEE
	.thumb_func
_ZN3arm3app8Profiler18UpdateRunningStatsE13_pmu_countersS2_RKNSt3__212basic_stringIcNS3_11char_traitsIcEENS3_9allocatorIcEEEE:
.Lfunc_begin5:
	.loc	1 157 0                         @ ../../../../ThirdParty/ml-embedded-evaluation-kit/source/profiler/Profiler.cc:157:0
	.fnstart
	.cfi_startproc
@ %bb.0:
	@DEBUG_VALUE: UpdateRunningStats:this <- $r0
	.pad	#8
	sub	sp, #8
	.cfi_def_cfa_offset 8
	.save	{r4, r5, r6, r7, r8, r9, r10, r11, lr}
	push.w	{r4, r5, r6, r7, r8, r9, r10, r11, lr}
	.cfi_def_cfa_offset 44
	.cfi_offset lr, -12
	.cfi_offset r11, -16
	.cfi_offset r10, -20
	.cfi_offset r9, -24
	.cfi_offset r8, -28
	.cfi_offset r7, -32
	.cfi_offset r6, -36
	.cfi_offset r5, -40
	.cfi_offset r4, -44
	.pad	#236
	sub	sp, #236
	.cfi_def_cfa_offset 280
.Ltmp182:
	@DEBUG_VALUE: UpdateRunningStats:name <- [DW_OP_plus_uconst 608] [$sp+0]
	add.w	r11, sp, #48
	mov	r4, r0
.Ltmp183:
	@DEBUG_VALUE: UpdateRunningStats:this <- $r4
	@DEBUG_VALUE: UpdateRunningStats:this <- $r4
	strd	r2, r3, [sp, #272]
	add	r1, sp, #440
.Ltmp184:
	.loc	1 159 25 prologue_end           @ ../../../../ThirdParty/ml-embedded-evaluation-kit/source/profiler/Profiler.cc:159:25
	mov	r0, r11
	movs	r2, #168
	bl	__aeabi_memcpy8
.Ltmp185:
	.loc	1 162 17                        @ ../../../../ThirdParty/ml-embedded-evaluation-kit/source/profiler/Profiler.cc:162:17
	ldr	r0, [sp, #600]
	.loc	1 162 39 is_stmt 0              @ ../../../../ThirdParty/ml-embedded-evaluation-kit/source/profiler/Profiler.cc:162:39
	ldr	r1, [sp, #432]
	.loc	1 162 52                        @ ../../../../ThirdParty/ml-embedded-evaluation-kit/source/profiler/Profiler.cc:162:52
	cmp	r0, r1
	bne	.LBB5_9
.Ltmp186:
@ %bb.1:
	@DEBUG_VALUE: UpdateRunningStats:this <- $r4
	@DEBUG_VALUE: UpdateRunningStats:name <- [DW_OP_plus_uconst 608] [$sp+0]
	.loc	1 0 52                          @ ../../../../ThirdParty/ml-embedded-evaluation-kit/source/profiler/Profiler.cc:0:52
	ldrb.w	r0, [sp, #604]
	.loc	1 162 52                        @ ../../../../ThirdParty/ml-embedded-evaluation-kit/source/profiler/Profiler.cc:162:52
	cbz	r0, .LBB5_9
.Ltmp187:
@ %bb.2:
	@DEBUG_VALUE: UpdateRunningStats:this <- $r4
	@DEBUG_VALUE: UpdateRunningStats:name <- [DW_OP_plus_uconst 608] [$sp+0]
	.loc	1 0 52                          @ ../../../../ThirdParty/ml-embedded-evaluation-kit/source/profiler/Profiler.cc:0:52
	ldrb.w	r0, [sp, #436]
	.loc	1 162 52                        @ ../../../../ThirdParty/ml-embedded-evaluation-kit/source/profiler/Profiler.cc:162:52
	cbz	r0, .LBB5_9
.Ltmp188:
@ %bb.3:
	@DEBUG_VALUE: UpdateRunningStats:this <- $r4
	@DEBUG_VALUE: UpdateRunningStats:name <- [DW_OP_plus_uconst 608] [$sp+0]
	.loc	1 0 52                          @ ../../../../ThirdParty/ml-embedded-evaluation-kit/source/profiler/Profiler.cc:0:52
	ldr	r7, [sp, #208]
.Ltmp189:
	@DEBUG_VALUE: i <- 0
	ldr.w	r9, [sp, #608]
	str	r4, [sp, #12]                   @ 4-byte Spill
.Ltmp190:
	@DEBUG_VALUE: UpdateRunningStats:this <- [DW_OP_plus_uconst 12] [$sp+0]
	.loc	1 168 9 is_stmt 1               @ ../../../../ThirdParty/ml-embedded-evaluation-kit/source/profiler/Profiler.cc:168:9
	cbz	r7, .LBB5_10
.Ltmp191:
@ %bb.4:
	@DEBUG_VALUE: UpdateRunningStats:this <- [DW_OP_plus_uconst 12] [$sp+0]
	@DEBUG_VALUE: i <- 0
	@DEBUG_VALUE: UpdateRunningStats:name <- [DW_OP_plus_uconst 608] [$sp+0]
	.loc	1 0 9 is_stmt 0                 @ ../../../../ThirdParty/ml-embedded-evaluation-kit/source/profiler/Profiler.cc:0:9
	add	r6, sp, #272
	adr.w	r8, .LCPI5_0
	.loc	1 168 9                         @ ../../../../ThirdParty/ml-embedded-evaluation-kit/source/profiler/Profiler.cc:168:9
	add.w	r4, r11, #8
	adr.w	r10, .LCPI5_1
	b	.LBB5_7
.Ltmp192:
	.p2align	2
.LBB5_5:                                @   in Loop: Header=BB5_7 Depth=1
	@DEBUG_VALUE: UpdateRunningStats:this <- [DW_OP_plus_uconst 12] [$sp+0]
	@DEBUG_VALUE: UpdateRunningStats:name <- [DW_OP_plus_uconst 608] [$sp+0]
	.loc	1 173 49 is_stmt 1              @ ../../../../ThirdParty/ml-embedded-evaluation-kit/source/profiler/Profiler.cc:173:49
	subs	r0, r0, r3
	sbcs	r1, r2
.Ltmp193:
.LBB5_6:                                @   in Loop: Header=BB5_7 Depth=1
	@DEBUG_VALUE: UpdateRunningStats:this <- [DW_OP_plus_uconst 12] [$sp+0]
	@DEBUG_VALUE: UpdateRunningStats:name <- [DW_OP_plus_uconst 608] [$sp+0]
	@DEBUG_VALUE: i <- [DW_OP_LLVM_arg 0, DW_OP_LLVM_arg 0, DW_OP_minus, DW_OP_consts 18446744073709551615, DW_OP_div, DW_OP_consts 1, DW_OP_plus, DW_OP_stack_value] undef
	.loc	1 0 0 is_stmt 0                 @ ../../../../ThirdParty/ml-embedded-evaluation-kit/source/profiler/Profiler.cc:0:0
	strd	r0, r1, [r4, #-8]
.Ltmp194:
	.loc	1 168 30 is_stmt 1              @ ../../../../ThirdParty/ml-embedded-evaluation-kit/source/profiler/Profiler.cc:168:30
	subs	r7, #1
	add.w	r6, r6, #16
	add.w	r4, r4, #16
.Ltmp195:
	.loc	1 168 9 is_stmt 0               @ ../../../../ThirdParty/ml-embedded-evaluation-kit/source/profiler/Profiler.cc:168:9
	beq	.LBB5_10
.Ltmp196:
.LBB5_7:                                @ =>This Inner Loop Header: Depth=1
	@DEBUG_VALUE: UpdateRunningStats:this <- [DW_OP_plus_uconst 12] [$sp+0]
	@DEBUG_VALUE: UpdateRunningStats:name <- [DW_OP_plus_uconst 608] [$sp+0]
	@DEBUG_VALUE: i <- [DW_OP_LLVM_arg 0, DW_OP_LLVM_arg 0, DW_OP_minus, DW_OP_consts 18446744073709551615, DW_OP_div, DW_OP_stack_value] undef
	.loc	1 169 43 is_stmt 1              @ ../../../../ThirdParty/ml-embedded-evaluation-kit/source/profiler/Profiler.cc:169:43
	ldrd	r0, r1, [r4, #-8]
	.loc	1 169 69 is_stmt 0              @ ../../../../ThirdParty/ml-embedded-evaluation-kit/source/profiler/Profiler.cc:169:69
	ldrd	r3, r2, [r6]
	.loc	1 169 49                        @ ../../../../ThirdParty/ml-embedded-evaluation-kit/source/profiler/Profiler.cc:169:49
	subs	r5, r0, r3
	sbcs.w	r5, r1, r2
	bhs	.LBB5_5
.Ltmp197:
@ %bb.8:                                @   in Loop: Header=BB5_7 Depth=1
	@DEBUG_VALUE: UpdateRunningStats:this <- [DW_OP_plus_uconst 12] [$sp+0]
	@DEBUG_VALUE: UpdateRunningStats:name <- [DW_OP_plus_uconst 608] [$sp+0]
	.loc	1 170 17 is_stmt 1              @ ../../../../ThirdParty/ml-embedded-evaluation-kit/source/profiler/Profiler.cc:170:17
	mov	r0, r8
	bl	__2printf
.Ltmp198:
	ldr	r1, [r4]
	mov	r0, r10
	bl	__2printf
.Ltmp199:
	.loc	1 0 17 is_stmt 0                @ ../../../../ThirdParty/ml-embedded-evaluation-kit/source/profiler/Profiler.cc:0:17
	movs	r0, #0
	movs	r1, #0
	b	.LBB5_6
.Ltmp200:
.LBB5_9:
	@DEBUG_VALUE: UpdateRunningStats:this <- $r4
	@DEBUG_VALUE: UpdateRunningStats:name <- [DW_OP_plus_uconst 608] [$sp+0]
	.loc	1 164 13 is_stmt 1              @ ../../../../ThirdParty/ml-embedded-evaluation-kit/source/profiler/Profiler.cc:164:13
	movw	r0, :lower16:.L.str.1
	movt	r0, :upper16:.L.str.1
	bl	__2printf
.Ltmp201:
	adr	r0, .LCPI5_2
	bl	puts
.Ltmp202:
	.loc	1 193 5                         @ ../../../../ThirdParty/ml-embedded-evaluation-kit/source/profiler/Profiler.cc:193:5
	b	.LBB5_40
.Ltmp203:
.LBB5_10:
	@DEBUG_VALUE: UpdateRunningStats:this <- [DW_OP_plus_uconst 12] [$sp+0]
	@DEBUG_VALUE: UpdateRunningStats:name <- [DW_OP_plus_uconst 608] [$sp+0]
	@DEBUG_VALUE: i <- 0
	@DEBUG_VALUE: operator[]:this <- [DW_OP_plus_uconst 12] [$sp+0]
	@DEBUG_VALUE: operator[]:__k <- $r9
	.loc	1 0 5 is_stmt 0                 @ ../../../../ThirdParty/ml-embedded-evaluation-kit/source/profiler/Profiler.cc:0:5
	ldr	r5, [sp, #12]                   @ 4-byte Reload
.Ltmp204:
	@DEBUG_VALUE: UpdateRunningStats:this <- $r5
	.loc	28 1595 20 is_stmt 1            @ C:\Keil_v5\ARM\ARMCLANG\Bin\..\include\libcxx\map:1595:20
	movw	r3, :lower16:_ZNSt3__2L19piecewise_constructE
	add	r4, sp, #228
	add	r6, sp, #224
	movt	r3, :upper16:_ZNSt3__2L19piecewise_constructE
	add	r0, sp, #20
	mov	r1, r5
	mov	r2, r9
	.loc	28 1597 9                       @ C:\Keil_v5\ARM\ARMCLANG\Bin\..\include\libcxx\map:1597:9
	str.w	r9, [sp, #228]
	.loc	28 1595 20                      @ C:\Keil_v5\ARM\ARMCLANG\Bin\..\include\libcxx\map:1595:20
	str	r4, [sp]
	str	r6, [sp, #4]
	bl	_ZNSt3__26__treeINS_12__value_typeINS_12basic_stringIcNS_11char_traitsIcEENS_9allocatorIcEEEENS_6vectorIN3arm3app10StatisticsENS5_ISB_EEEEEENS_19__map_value_compareIS7_SE_NS_4lessIS7_EELb1EEENS5_ISE_EEE25__emplace_unique_key_argsIS7_JRKNS_21piecewise_construct_tENS_5tupleIJRKS7_EEENSP_IJEEEEEENS_4pairINS_15__tree_iteratorISE_PNS_11__tree_nodeISE_PvEEiEEbEERKT_DpOT0_
.Ltmp205:
	@DEBUG_VALUE: __get_np:this <- [DW_OP_plus_uconst 20, DW_OP_stack_value] $sp
	@DEBUG_VALUE: operator->:this <- [DW_OP_plus_uconst 20, DW_OP_stack_value] $sp
	.loc	29 887 74                       @ C:\Keil_v5\ARM\ARMCLANG\Bin\..\include\libcxx\__tree:887:74
	ldr	r0, [sp, #20]
.Ltmp206:
	@DEBUG_VALUE: size:this <- [DW_OP_plus_uconst 28, DW_OP_stack_value] $r0
	.loc	3 535 61                        @ C:\Keil_v5\ARM\ARMCLANG\Bin\..\include\libcxx\vector:535:61
	ldrd	r1, r0, [r0, #28]
.Ltmp207:
	.loc	1 177 9                         @ ../../../../ThirdParty/ml-embedded-evaluation-kit/source/profiler/Profiler.cc:177:9
	cmp	r0, r1
	beq.w	.LBB5_13
.Ltmp208:
@ %bb.11:
	@DEBUG_VALUE: UpdateRunningStats:this <- $r5
	@DEBUG_VALUE: i <- 0
	@DEBUG_VALUE: UpdateRunningStats:name <- [DW_OP_plus_uconst 608] [$sp+0]
	add.w	r8, r11, #8
	mov.w	r10, #0
	movs	r7, #0
.Ltmp209:
	.p2align	2
.LBB5_12:                               @ =>This Inner Loop Header: Depth=1
	@DEBUG_VALUE: UpdateRunningStats:name <- [DW_OP_plus_uconst 608] [$sp+0]
	@DEBUG_VALUE: i <- $r7
	.loc	1 0 9 is_stmt 0                 @ ../../../../ThirdParty/ml-embedded-evaluation-kit/source/profiler/Profiler.cc:0:9
	movw	r3, :lower16:_ZNSt3__2L19piecewise_constructE
	str	r7, [sp, #16]                   @ 4-byte Spill
.Ltmp210:
	@DEBUG_VALUE: i <- [DW_OP_plus_uconst 16] [$sp+0]
	@DEBUG_VALUE: i <- [DW_OP_plus_uconst 16] [$sp+0]
	@DEBUG_VALUE: i <- [DW_OP_plus_uconst 16] [$sp+0]
	.loc	1 178 73 is_stmt 1              @ ../../../../ThirdParty/ml-embedded-evaluation-kit/source/profiler/Profiler.cc:178:73
	ldr.w	r7, [r8]
.Ltmp211:
	@DEBUG_VALUE: operator[]:__k <- $r9
	@DEBUG_VALUE: operator[]:this <- [DW_OP_plus_uconst 12] [$sp+0]
	.loc	1 0 73 is_stmt 0                @ ../../../../ThirdParty/ml-embedded-evaluation-kit/source/profiler/Profiler.cc:0:73
	add	r0, sp, #20
.Ltmp212:
	.loc	28 1595 20 is_stmt 1            @ C:\Keil_v5\ARM\ARMCLANG\Bin\..\include\libcxx\map:1595:20
	mov	r1, r5
	mov	r2, r9
	movt	r3, :upper16:_ZNSt3__2L19piecewise_constructE
	.loc	28 1597 9                       @ C:\Keil_v5\ARM\ARMCLANG\Bin\..\include\libcxx\map:1597:9
	str.w	r9, [sp, #228]
	mov	r11, r3
	.loc	28 1595 20                      @ C:\Keil_v5\ARM\ARMCLANG\Bin\..\include\libcxx\map:1595:20
	str	r4, [sp]
	str	r6, [sp, #4]
	bl	_ZNSt3__26__treeINS_12__value_typeINS_12basic_stringIcNS_11char_traitsIcEENS_9allocatorIcEEEENS_6vectorIN3arm3app10StatisticsENS5_ISB_EEEEEENS_19__map_value_compareIS7_SE_NS_4lessIS7_EELb1EEENS5_ISE_EEE25__emplace_unique_key_argsIS7_JRKNS_21piecewise_construct_tENS_5tupleIJRKS7_EEENSP_IJEEEEEENS_4pairINS_15__tree_iteratorISE_PNS_11__tree_nodeISE_PvEEiEEbEERKT_DpOT0_
.Ltmp213:
	@DEBUG_VALUE: __get_np:this <- [DW_OP_plus_uconst 20, DW_OP_stack_value] $sp
	@DEBUG_VALUE: operator->:this <- [DW_OP_plus_uconst 20, DW_OP_stack_value] $sp
	.loc	29 887 74                       @ C:\Keil_v5\ARM\ARMCLANG\Bin\..\include\libcxx\__tree:887:74
	ldr	r0, [sp, #20]
.Ltmp214:
	@DEBUG_VALUE: operator[]:this <- [DW_OP_plus_uconst 28, DW_OP_stack_value] $r0
	@DEBUG_VALUE: operator[]:__n <- [DW_OP_plus_uconst 16] [$sp+0]
	.loc	2 2672 18                       @ C:\Keil_v5\ARM\ARMCLANG\Bin\..\include\libcxx\string:2672:18
	mov	r1, r7
.Ltmp215:
	.loc	3 1458 18                       @ C:\Keil_v5\ARM\ARMCLANG\Bin\..\include\libcxx\vector:1458:18
	ldr	r0, [r0, #28]
.Ltmp216:
	@DEBUG_VALUE: assign:__s <- $r7
	@DEBUG_VALUE: operator=:__s <- $r7
	@DEBUG_VALUE: assign:this <- [DW_OP_LLVM_arg 0, DW_OP_LLVM_arg 1, DW_OP_plus_uconst 16, DW_OP_deref, DW_OP_constu 64, DW_OP_mul, DW_OP_plus, DW_OP_stack_value] $r0, $sp
	@DEBUG_VALUE: operator=:this <- [DW_OP_LLVM_arg 0, DW_OP_LLVM_arg 1, DW_OP_plus_uconst 16, DW_OP_deref, DW_OP_constu 64, DW_OP_mul, DW_OP_plus, DW_OP_stack_value] $r0, $sp
	.loc	2 2672 18                       @ C:\Keil_v5\ARM\ARMCLANG\Bin\..\include\libcxx\string:2672:18
	add	r0, r10
.Ltmp217:
	bl	_ZNSt3__212basic_stringIcNS_11char_traitsIcEENS_9allocatorIcEEE17__assign_externalEPKc
.Ltmp218:
	.loc	1 179 73                        @ ../../../../ThirdParty/ml-embedded-evaluation-kit/source/profiler/Profiler.cc:179:73
	ldr.w	r7, [r8, #4]
.Ltmp219:
	@DEBUG_VALUE: operator[]:__k <- $r9
	@DEBUG_VALUE: operator[]:this <- [DW_OP_plus_uconst 12] [$sp+0]
	.loc	28 1595 20                      @ C:\Keil_v5\ARM\ARMCLANG\Bin\..\include\libcxx\map:1595:20
	add	r0, sp, #20
	mov	r1, r5
	mov	r2, r9
	mov	r3, r11
	.loc	28 1597 9                       @ C:\Keil_v5\ARM\ARMCLANG\Bin\..\include\libcxx\map:1597:9
	str.w	r9, [sp, #228]
	.loc	28 1595 20                      @ C:\Keil_v5\ARM\ARMCLANG\Bin\..\include\libcxx\map:1595:20
	str	r4, [sp]
	str	r6, [sp, #4]
	bl	_ZNSt3__26__treeINS_12__value_typeINS_12basic_stringIcNS_11char_traitsIcEENS_9allocatorIcEEEENS_6vectorIN3arm3app10StatisticsENS5_ISB_EEEEEENS_19__map_value_compareIS7_SE_NS_4lessIS7_EELb1EEENS5_ISE_EEE25__emplace_unique_key_argsIS7_JRKNS_21piecewise_construct_tENS_5tupleIJRKS7_EEENSP_IJEEEEEENS_4pairINS_15__tree_iteratorISE_PNS_11__tree_nodeISE_PvEEiEEbEERKT_DpOT0_
.Ltmp220:
	@DEBUG_VALUE: __get_np:this <- [DW_OP_plus_uconst 20, DW_OP_stack_value] $sp
	@DEBUG_VALUE: operator->:this <- [DW_OP_plus_uconst 20, DW_OP_stack_value] $sp
	.loc	29 887 74                       @ C:\Keil_v5\ARM\ARMCLANG\Bin\..\include\libcxx\__tree:887:74
	ldr	r0, [sp, #20]
.Ltmp221:
	@DEBUG_VALUE: operator[]:this <- [DW_OP_plus_uconst 28, DW_OP_stack_value] $r0
	@DEBUG_VALUE: operator[]:__n <- [DW_OP_plus_uconst 16] [$sp+0]
	.loc	2 2672 18                       @ C:\Keil_v5\ARM\ARMCLANG\Bin\..\include\libcxx\string:2672:18
	mov	r1, r7
.Ltmp222:
	.loc	3 1458 18                       @ C:\Keil_v5\ARM\ARMCLANG\Bin\..\include\libcxx\vector:1458:18
	ldr	r0, [r0, #28]
.Ltmp223:
	@DEBUG_VALUE: assign:__s <- $r7
	@DEBUG_VALUE: operator=:__s <- $r7
	@DEBUG_VALUE: assign:this <- [DW_OP_LLVM_arg 0, DW_OP_LLVM_arg 1, DW_OP_plus_uconst 16, DW_OP_deref, DW_OP_constu 64, DW_OP_mul, DW_OP_plus, DW_OP_plus_uconst 12, DW_OP_stack_value] $r0, $sp
	@DEBUG_VALUE: operator=:this <- [DW_OP_LLVM_arg 0, DW_OP_LLVM_arg 1, DW_OP_plus_uconst 16, DW_OP_deref, DW_OP_constu 64, DW_OP_mul, DW_OP_plus, DW_OP_plus_uconst 12, DW_OP_stack_value] $r0, $sp
	.loc	2 2672 18                       @ C:\Keil_v5\ARM\ARMCLANG\Bin\..\include\libcxx\string:2672:18
	add	r0, r10
.Ltmp224:
	adds	r0, #12
	bl	_ZNSt3__212basic_stringIcNS_11char_traitsIcEENS_9allocatorIcEEE17__assign_externalEPKc
.Ltmp225:
	@DEBUG_VALUE: operator[]:__k <- $r9
	@DEBUG_VALUE: operator[]:this <- [DW_OP_plus_uconst 12] [$sp+0]
	.loc	28 1595 20                      @ C:\Keil_v5\ARM\ARMCLANG\Bin\..\include\libcxx\map:1595:20
	add	r0, sp, #20
	mov	r1, r5
	mov	r2, r9
	mov	r3, r11
	.loc	28 1597 9                       @ C:\Keil_v5\ARM\ARMCLANG\Bin\..\include\libcxx\map:1597:9
	str.w	r9, [sp, #228]
	.loc	28 1595 20                      @ C:\Keil_v5\ARM\ARMCLANG\Bin\..\include\libcxx\map:1595:20
	str	r4, [sp]
	str	r6, [sp, #4]
	bl	_ZNSt3__26__treeINS_12__value_typeINS_12basic_stringIcNS_11char_traitsIcEENS_9allocatorIcEEEENS_6vectorIN3arm3app10StatisticsENS5_ISB_EEEEEENS_19__map_value_compareIS7_SE_NS_4lessIS7_EELb1EEENS5_ISE_EEE25__emplace_unique_key_argsIS7_JRKNS_21piecewise_construct_tENS_5tupleIJRKS7_EEENSP_IJEEEEEENS_4pairINS_15__tree_iteratorISE_PNS_11__tree_nodeISE_PvEEiEEbEERKT_DpOT0_
.Ltmp226:
	@DEBUG_VALUE: __get_np:this <- [DW_OP_plus_uconst 20, DW_OP_stack_value] $sp
	@DEBUG_VALUE: operator->:this <- [DW_OP_plus_uconst 20, DW_OP_stack_value] $sp
	.loc	29 887 74                       @ C:\Keil_v5\ARM\ARMCLANG\Bin\..\include\libcxx\__tree:887:74
	ldr	r0, [sp, #20]
.Ltmp227:
	@DEBUG_VALUE: operator[]:this <- [DW_OP_plus_uconst 28, DW_OP_stack_value] $r0
	@DEBUG_VALUE: operator[]:__n <- [DW_OP_plus_uconst 16] [$sp+0]
	.loc	28 1595 20                      @ C:\Keil_v5\ARM\ARMCLANG\Bin\..\include\libcxx\map:1595:20
	movw	r3, :lower16:_ZNSt3__2L19piecewise_constructE
	mov	r11, r6
.Ltmp228:
	.loc	1 182 47                        @ ../../../../ThirdParty/ml-embedded-evaluation-kit/source/profiler/Profiler.cc:182:47
	ldrd	r6, r7, [r8, #-8]
.Ltmp229:
	@DEBUG_VALUE: operator[]:__k <- $r9
	@DEBUG_VALUE: operator[]:this <- [DW_OP_plus_uconst 12] [$sp+0]
	.loc	3 1458 18                       @ C:\Keil_v5\ARM\ARMCLANG\Bin\..\include\libcxx\vector:1458:18
	ldr	r0, [r0, #28]
.Ltmp230:
	.loc	28 1595 20                      @ C:\Keil_v5\ARM\ARMCLANG\Bin\..\include\libcxx\map:1595:20
	mov	r2, r9
	movt	r3, :upper16:_ZNSt3__2L19piecewise_constructE
.Ltmp231:
	.loc	1 180 13                        @ ../../../../ThirdParty/ml-embedded-evaluation-kit/source/profiler/Profiler.cc:180:13
	add	r0, r10
	ldr	r1, [r0, #56]
	adds	r1, #1
	str	r1, [r0, #56]
.Ltmp232:
	@DEBUG_VALUE: calcProfilingStat:currentValue <- [DW_OP_LLVM_fragment 32 32] undef
	@DEBUG_VALUE: operator[]:this <- [DW_OP_plus_uconst 28, DW_OP_stack_value] undef
	.loc	28 1595 20                      @ C:\Keil_v5\ARM\ARMCLANG\Bin\..\include\libcxx\map:1595:20
	add	r0, sp, #20
	mov	r1, r5
	.loc	28 1597 9                       @ C:\Keil_v5\ARM\ARMCLANG\Bin\..\include\libcxx\map:1597:9
	str.w	r9, [sp, #228]
	.loc	28 1595 20                      @ C:\Keil_v5\ARM\ARMCLANG\Bin\..\include\libcxx\map:1595:20
	str	r4, [sp]
	str.w	r11, [sp, #4]
	bl	_ZNSt3__26__treeINS_12__value_typeINS_12basic_stringIcNS_11char_traitsIcEENS_9allocatorIcEEEENS_6vectorIN3arm3app10StatisticsENS5_ISB_EEEEEENS_19__map_value_compareIS7_SE_NS_4lessIS7_EELb1EEENS5_ISE_EEE25__emplace_unique_key_argsIS7_JRKNS_21piecewise_construct_tENS_5tupleIJRKS7_EEENSP_IJEEEEEENS_4pairINS_15__tree_iteratorISE_PNS_11__tree_nodeISE_PvEEiEEbEERKT_DpOT0_
.Ltmp233:
	@DEBUG_VALUE: __get_np:this <- [DW_OP_plus_uconst 20, DW_OP_stack_value] $sp
	@DEBUG_VALUE: operator->:this <- [DW_OP_plus_uconst 20, DW_OP_stack_value] $sp
	.loc	29 887 74                       @ C:\Keil_v5\ARM\ARMCLANG\Bin\..\include\libcxx\__tree:887:74
	ldr	r0, [sp, #20]
.Ltmp234:
	@DEBUG_VALUE: operator[]:__n <- [DW_OP_plus_uconst 16] [$sp+0]
	.loc	3 1458 18                       @ C:\Keil_v5\ARM\ARMCLANG\Bin\..\include\libcxx\vector:1458:18
	ldr	r0, [r0, #28]
.Ltmp235:
	@DEBUG_VALUE: calcProfilingStat:currentValue <- [DW_OP_LLVM_fragment 0 32] $r6
	@DEBUG_VALUE: calcProfilingStat:data <- [DW_OP_LLVM_arg 0, DW_OP_LLVM_arg 1, DW_OP_plus_uconst 16, DW_OP_deref, DW_OP_constu 64, DW_OP_mul, DW_OP_plus, DW_OP_stack_value] $r0, $sp
	.loc	1 97 20                         @ ../../../../ThirdParty/ml-embedded-evaluation-kit/source/profiler/Profiler.cc:97:20
	add.w	r4, r0, r10
	ldrd	r0, r1, [r4, #24]
.Ltmp236:
	.file	67 "C:\\Keil_v5\\ARM\\ARMCLANG\\Bin\\..\\include\\libcxx\\__algorithm" "comp.h"
	.loc	67 73 73                        @ C:\Keil_v5\ARM\ARMCLANG\Bin\..\include\libcxx\__algorithm/comp.h:73:73
	ldrd	r3, r2, [r4, #40]
.Ltmp237:
	.loc	1 97 20                         @ ../../../../ThirdParty/ml-embedded-evaluation-kit/source/profiler/Profiler.cc:97:20
	adds	r0, r0, r6
	adcs	r1, r7
	@DEBUG_VALUE: operator():__y <- [DW_OP_LLVM_arg 0, DW_OP_LLVM_arg 0, DW_OP_constu 64, DW_OP_mul, DW_OP_plus, DW_OP_plus_uconst 40, DW_OP_stack_value] undef
	@DEBUG_VALUE: operator():__x <- undef
	@DEBUG_VALUE: operator():this <- undef
	@DEBUG_VALUE: min<unsigned long long, std::__2::__less<unsigned long long, unsigned long long> >:__b <- undef
	@DEBUG_VALUE: min<unsigned long long, std::__2::__less<unsigned long long, unsigned long long> >:__a <- [DW_OP_LLVM_arg 0, DW_OP_LLVM_arg 0, DW_OP_constu 64, DW_OP_mul, DW_OP_plus, DW_OP_plus_uconst 40, DW_OP_stack_value] undef
	@DEBUG_VALUE: min<unsigned long long>:__b <- undef
	@DEBUG_VALUE: min<unsigned long long>:__a <- [DW_OP_LLVM_arg 0, DW_OP_LLVM_arg 0, DW_OP_constu 64, DW_OP_mul, DW_OP_plus, DW_OP_plus_uconst 40, DW_OP_stack_value] undef
	.loc	1 98 20                         @ ../../../../ThirdParty/ml-embedded-evaluation-kit/source/profiler/Profiler.cc:98:20
	cmp	r2, r7
	csel	r5, r3, r6, lo
.Ltmp238:
	@DEBUG_VALUE: UpdateRunningStats:this <- [DW_OP_LLVM_entry_value 1] $r0
	cmp	r3, r6
	csel	r3, r3, r6, lo
	cmp	r2, r7
	csel	r3, r3, r5, eq
	csel	r2, r2, r7, lo
	.loc	1 98 18 is_stmt 0               @ ../../../../ThirdParty/ml-embedded-evaluation-kit/source/profiler/Profiler.cc:98:18
	strd	r3, r2, [r4, #40]
.Ltmp239:
	@DEBUG_VALUE: operator():__y <- undef
	@DEBUG_VALUE: operator():__x <- [DW_OP_LLVM_arg 0, DW_OP_LLVM_arg 0, DW_OP_constu 64, DW_OP_mul, DW_OP_plus, DW_OP_plus_uconst 48, DW_OP_stack_value] undef
	@DEBUG_VALUE: operator():this <- undef
	@DEBUG_VALUE: max<unsigned long long, std::__2::__less<unsigned long long, unsigned long long> >:__b <- undef
	@DEBUG_VALUE: max<unsigned long long, std::__2::__less<unsigned long long, unsigned long long> >:__a <- [DW_OP_LLVM_arg 0, DW_OP_LLVM_arg 0, DW_OP_constu 64, DW_OP_mul, DW_OP_plus, DW_OP_plus_uconst 48, DW_OP_stack_value] undef
	@DEBUG_VALUE: max<unsigned long long>:__b <- undef
	@DEBUG_VALUE: max<unsigned long long>:__a <- [DW_OP_LLVM_arg 0, DW_OP_LLVM_arg 0, DW_OP_constu 64, DW_OP_mul, DW_OP_plus, DW_OP_plus_uconst 48, DW_OP_stack_value] undef
	.loc	67 73 67 is_stmt 1              @ C:\Keil_v5\ARM\ARMCLANG\Bin\..\include\libcxx\__algorithm/comp.h:73:67
	ldrd	r3, r2, [r4, #48]
.Ltmp240:
	.loc	1 97 20                         @ ../../../../ThirdParty/ml-embedded-evaluation-kit/source/profiler/Profiler.cc:97:20
	strd	r0, r1, [r4, #24]
	.loc	1 99 20                         @ ../../../../ThirdParty/ml-embedded-evaluation-kit/source/profiler/Profiler.cc:99:20
	cmp	r2, r7
	csel	r5, r3, r6, hi
	cmp	r3, r6
	csel	r3, r3, r6, hi
	cmp	r2, r7
	mov	r6, r11
.Ltmp241:
	csel	r3, r3, r5, eq
	ldr	r5, [sp, #12]                   @ 4-byte Reload
	csel	r2, r2, r7, hi
	ldr	r7, [sp, #16]                   @ 4-byte Reload
.Ltmp242:
	@DEBUG_VALUE: i <- $r7
	.loc	1 99 18 is_stmt 0               @ ../../../../ThirdParty/ml-embedded-evaluation-kit/source/profiler/Profiler.cc:99:18
	strd	r3, r2, [r4, #48]
	.loc	1 100 42 is_stmt 1              @ ../../../../ThirdParty/ml-embedded-evaluation-kit/source/profiler/Profiler.cc:100:42
	bl	__aeabi_ul2d
.Ltmp243:
	.loc	1 100 56 is_stmt 0              @ ../../../../ThirdParty/ml-embedded-evaluation-kit/source/profiler/Profiler.cc:100:56
	vldr	s0, [r4, #56]
	.loc	1 100 42                        @ ../../../../ThirdParty/ml-embedded-evaluation-kit/source/profiler/Profiler.cc:100:42
	vmov	d1, r0, r1
	.loc	1 100 56                        @ ../../../../ThirdParty/ml-embedded-evaluation-kit/source/profiler/Profiler.cc:100:56
	vcvt.f64.u32	d0, s0
.Ltmp244:
	.loc	28 1595 20 is_stmt 1            @ C:\Keil_v5\ARM\ARMCLANG\Bin\..\include\libcxx\map:1595:20
	movw	r3, :lower16:_ZNSt3__2L19piecewise_constructE
	add	r0, sp, #20
.Ltmp245:
	.loc	1 100 54                        @ ../../../../ThirdParty/ml-embedded-evaluation-kit/source/profiler/Profiler.cc:100:54
	vdiv.f64	d0, d1, d0
.Ltmp246:
	.loc	28 1595 20                      @ C:\Keil_v5\ARM\ARMCLANG\Bin\..\include\libcxx\map:1595:20
	mov	r1, r5
	mov	r2, r9
	movt	r3, :upper16:_ZNSt3__2L19piecewise_constructE
.Ltmp247:
	.loc	1 177 64                        @ ../../../../ThirdParty/ml-embedded-evaluation-kit/source/profiler/Profiler.cc:177:64
	adds	r7, #1
.Ltmp248:
	@DEBUG_VALUE: operator[]:__k <- $r9
	@DEBUG_VALUE: operator[]:this <- [DW_OP_plus_uconst 12] [$sp+0]
	@DEBUG_VALUE: i <- $r7
	.loc	1 100 19                        @ ../../../../ThirdParty/ml-embedded-evaluation-kit/source/profiler/Profiler.cc:100:19
	vstr	d0, [r4, #32]
	add	r4, sp, #228
.Ltmp249:
	.loc	28 1597 9                       @ C:\Keil_v5\ARM\ARMCLANG\Bin\..\include\libcxx\map:1597:9
	str.w	r9, [sp, #228]
	.loc	28 1595 20                      @ C:\Keil_v5\ARM\ARMCLANG\Bin\..\include\libcxx\map:1595:20
	str	r4, [sp]
	str.w	r11, [sp, #4]
	bl	_ZNSt3__26__treeINS_12__value_typeINS_12basic_stringIcNS_11char_traitsIcEENS_9allocatorIcEEEENS_6vectorIN3arm3app10StatisticsENS5_ISB_EEEEEENS_19__map_value_compareIS7_SE_NS_4lessIS7_EELb1EEENS5_ISE_EEE25__emplace_unique_key_argsIS7_JRKNS_21piecewise_construct_tENS_5tupleIJRKS7_EEENSP_IJEEEEEENS_4pairINS_15__tree_iteratorISE_PNS_11__tree_nodeISE_PvEEiEEbEERKT_DpOT0_
.Ltmp250:
	@DEBUG_VALUE: __get_np:this <- [DW_OP_plus_uconst 20, DW_OP_stack_value] $sp
	@DEBUG_VALUE: operator->:this <- [DW_OP_plus_uconst 20, DW_OP_stack_value] $sp
	.loc	29 887 74                       @ C:\Keil_v5\ARM\ARMCLANG\Bin\..\include\libcxx\__tree:887:74
	ldr	r0, [sp, #20]
.Ltmp251:
	@DEBUG_VALUE: size:this <- [DW_OP_plus_uconst 28, DW_OP_stack_value] $r0
	.loc	1 177 30                        @ ../../../../ThirdParty/ml-embedded-evaluation-kit/source/profiler/Profiler.cc:177:30
	add.w	r8, r8, #16
	add.w	r10, r10, #64
.Ltmp252:
	.loc	3 535 61                        @ C:\Keil_v5\ARM\ARMCLANG\Bin\..\include\libcxx\vector:535:61
	ldrd	r1, r0, [r0, #28]
.Ltmp253:
	.loc	3 535 53 is_stmt 0              @ C:\Keil_v5\ARM\ARMCLANG\Bin\..\include\libcxx\vector:535:53
	subs	r0, r0, r1
.Ltmp254:
	.loc	1 177 9 is_stmt 1               @ ../../../../ThirdParty/ml-embedded-evaluation-kit/source/profiler/Profiler.cc:177:9
	cmp.w	r7, r0, asr #6
	blo.w	.LBB5_12
.Ltmp255:
.LBB5_13:
	@DEBUG_VALUE: UpdateRunningStats:name <- [DW_OP_plus_uconst 608] [$sp+0]
	@DEBUG_VALUE: basic_string:this <- [DW_OP_plus_uconst 20, DW_OP_stack_value] $sp
	@DEBUG_VALUE: __default_init:this <- [DW_OP_plus_uconst 20, DW_OP_stack_value] $sp
	@DEBUG_VALUE: vector:this <- undef
	@DEBUG_VALUE: __compressed_pair<std::nullptr_t, std::__2::__default_init_tag>:this <- [DW_OP_plus_uconst 20, DW_OP_plus_uconst 24, DW_OP_stack_value] $sp
	@DEBUG_VALUE: __compressed_pair<std::nullptr_t, std::__2::__default_init_tag>:__t1 <- undef
	@DEBUG_VALUE: __compressed_pair<std::nullptr_t, std::__2::__default_init_tag>:__t2 <- undef
	@DEBUG_VALUE: __compressed_pair_elem<std::nullptr_t, void>:this <- [DW_OP_plus_uconst 20, DW_OP_plus_uconst 24, DW_OP_stack_value] $sp
	@DEBUG_VALUE: __compressed_pair_elem<std::nullptr_t, void>:__u <- undef
	.loc	1 187 29                        @ ../../../../ThirdParty/ml-embedded-evaluation-kit/source/profiler/Profiler.cc:187:29
	add.w	r0, r5, #356
	add.w	r8, sp, #20
.Ltmp256:
	@DEBUG_VALUE: operator=:__str <- $r0
	@DEBUG_VALUE: operator=:this <- [DW_OP_plus_uconst 20, DW_OP_stack_value] $sp
	.loc	1 0 29 is_stmt 0                @ ../../../../ThirdParty/ml-embedded-evaluation-kit/source/profiler/Profiler.cc:0:29
	movs	r1, #0
.Ltmp257:
	.loc	2 2501 7 is_stmt 1              @ C:\Keil_v5\ARM\ARMCLANG\Bin\..\include\libcxx\string:2501:7
	cmp	r8, r0
.Ltmp258:
	.loc	1 186 29                        @ ../../../../ThirdParty/ml-embedded-evaluation-kit/source/profiler/Profiler.cc:186:29
	str	r1, [sp, #44]
	strd	r1, r1, [sp, #36]
	strd	r1, r1, [sp, #28]
	str	r1, [sp, #24]
	str	r1, [sp, #20]
	@DEBUG_VALUE: operator=:this <- [DW_OP_plus_uconst 20, DW_OP_stack_value] $sp
	beq	.LBB5_17
.Ltmp259:
@ %bb.14:
	@DEBUG_VALUE: operator=:this <- [DW_OP_plus_uconst 20, DW_OP_stack_value] $sp
	@DEBUG_VALUE: operator=:__str <- $r0
	@DEBUG_VALUE: UpdateRunningStats:name <- [DW_OP_plus_uconst 608] [$sp+0]
	@DEBUG_VALUE: __is_long:this <- [DW_OP_plus_uconst 20, DW_OP_stack_value] $sp
	.loc	2 0 0 is_stmt 0                 @ C:\Keil_v5\ARM\ARMCLANG\Bin\..\include\libcxx\string:0:0
	ldrsb.w	r1, [r5, #367]
.Ltmp260:
	@DEBUG_VALUE: __is_long:this <- $r0
	.loc	2 2504 11 is_stmt 1             @ C:\Keil_v5\ARM\ARMCLANG\Bin\..\include\libcxx\string:2504:11
	cmp	r1, #0
	bmi	.LBB5_16
.Ltmp261:
@ %bb.15:
	@DEBUG_VALUE: operator=:this <- [DW_OP_plus_uconst 20, DW_OP_stack_value] $sp
	@DEBUG_VALUE: operator=:__str <- $r0
	@DEBUG_VALUE: UpdateRunningStats:name <- [DW_OP_plus_uconst 608] [$sp+0]
	@DEBUG_VALUE: __is_long:this <- $r0
	.loc	2 2505 22                       @ C:\Keil_v5\ARM\ARMCLANG\Bin\..\include\libcxx\string:2505:22
	ldr	r2, [r0, #8]
	ldrd	r1, r0, [r0]
.Ltmp262:
	str	r2, [sp, #28]
	strd	r1, r0, [sp, #20]
	b	.LBB5_17
.Ltmp263:
.LBB5_16:
	@DEBUG_VALUE: operator=:this <- [DW_OP_plus_uconst 20, DW_OP_stack_value] $sp
	@DEBUG_VALUE: operator=:__str <- $r0
	@DEBUG_VALUE: UpdateRunningStats:name <- [DW_OP_plus_uconst 608] [$sp+0]
	@DEBUG_VALUE: __is_long:this <- undef
	@DEBUG_VALUE: __is_long:this <- [DW_OP_plus_uconst 356, DW_OP_stack_value] $r5
	@DEBUG_VALUE: size:this <- [DW_OP_plus_uconst 356, DW_OP_stack_value] $r5
	.loc	2 0 22 is_stmt 0                @ C:\Keil_v5\ARM\ARMCLANG\Bin\..\include\libcxx\string:0:22
	ldrd	r1, r2, [r5, #356]
	add	r0, sp, #20
.Ltmp264:
	.loc	2 2507 16 is_stmt 1             @ C:\Keil_v5\ARM\ARMCLANG\Bin\..\include\libcxx\string:2507:16
	bl	_ZNSt3__212basic_stringIcNS_11char_traitsIcEENS_9allocatorIcEEE17__assign_no_aliasILb1EEERS5_PKcj
.Ltmp265:
.LBB5_17:
	@DEBUG_VALUE: UpdateRunningStats:name <- [DW_OP_plus_uconst 608] [$sp+0]
	@DEBUG_VALUE: vector:this <- undef
	@DEBUG_VALUE: operator[]:this <- $r5
	@DEBUG_VALUE: operator[]:__k <- $r9
	.loc	28 1595 20                      @ C:\Keil_v5\ARM\ARMCLANG\Bin\..\include\libcxx\map:1595:20
	movw	r7, :lower16:_ZNSt3__2L19piecewise_constructE
	add	r4, sp, #220
	movt	r7, :upper16:_ZNSt3__2L19piecewise_constructE
	add	r0, sp, #228
	mov	r1, r5
	mov	r2, r9
	mov	r3, r7
	.loc	28 1597 9                       @ C:\Keil_v5\ARM\ARMCLANG\Bin\..\include\libcxx\map:1597:9
	str.w	r9, [sp, #224]
	.loc	28 1595 20                      @ C:\Keil_v5\ARM\ARMCLANG\Bin\..\include\libcxx\map:1595:20
	str	r6, [sp]
	str	r4, [sp, #4]
	bl	_ZNSt3__26__treeINS_12__value_typeINS_12basic_stringIcNS_11char_traitsIcEENS_9allocatorIcEEEENS_6vectorIN3arm3app10StatisticsENS5_ISB_EEEEEENS_19__map_value_compareIS7_SE_NS_4lessIS7_EELb1EEENS5_ISE_EEE25__emplace_unique_key_argsIS7_JRKNS_21piecewise_construct_tENS_5tupleIJRKS7_EEENSP_IJEEEEEENS_4pairINS_15__tree_iteratorISE_PNS_11__tree_nodeISE_PvEEiEEbEERKT_DpOT0_
.Ltmp266:
	@DEBUG_VALUE: __get_np:this <- [DW_OP_plus_uconst 228, DW_OP_stack_value] $sp
	@DEBUG_VALUE: operator->:this <- [DW_OP_plus_uconst 228, DW_OP_stack_value] $sp
	.loc	29 887 74                       @ C:\Keil_v5\ARM\ARMCLANG\Bin\..\include\libcxx\__tree:887:74
	ldr	r0, [sp, #228]
.Ltmp267:
	@DEBUG_VALUE: operator[]:this <- [DW_OP_plus_uconst 28, DW_OP_stack_value] $r0
	@DEBUG_VALUE: operator[]:__n <- 0
	.loc	28 1595 20                      @ C:\Keil_v5\ARM\ARMCLANG\Bin\..\include\libcxx\map:1595:20
	mov	r1, r5
	mov	r2, r9
	mov	r3, r7
.Ltmp268:
	.loc	3 1458 18                       @ C:\Keil_v5\ARM\ARMCLANG\Bin\..\include\libcxx\vector:1458:18
	ldr	r0, [r0, #28]
.Ltmp269:
	.loc	28 1597 9                       @ C:\Keil_v5\ARM\ARMCLANG\Bin\..\include\libcxx\map:1597:9
	str.w	r9, [sp, #224]
.Ltmp270:
	.loc	1 188 56                        @ ../../../../ThirdParty/ml-embedded-evaluation-kit/source/profiler/Profiler.cc:188:56
	ldr	r0, [r0, #56]
.Ltmp271:
	.loc	28 1595 20                      @ C:\Keil_v5\ARM\ARMCLANG\Bin\..\include\libcxx\map:1595:20
	str	r6, [sp]
.Ltmp272:
	.loc	1 188 27                        @ ../../../../ThirdParty/ml-embedded-evaluation-kit/source/profiler/Profiler.cc:188:27
	str	r0, [sp, #32]
.Ltmp273:
	@DEBUG_VALUE: operator[]:__k <- $r9
	@DEBUG_VALUE: operator[]:this <- $r5
	.loc	1 0 27 is_stmt 0                @ ../../../../ThirdParty/ml-embedded-evaluation-kit/source/profiler/Profiler.cc:0:27
	add	r0, sp, #228
.Ltmp274:
	.loc	28 1595 20 is_stmt 1            @ C:\Keil_v5\ARM\ARMCLANG\Bin\..\include\libcxx\map:1595:20
	str	r4, [sp, #4]
	bl	_ZNSt3__26__treeINS_12__value_typeINS_12basic_stringIcNS_11char_traitsIcEENS_9allocatorIcEEEENS_6vectorIN3arm3app10StatisticsENS5_ISB_EEEEEENS_19__map_value_compareIS7_SE_NS_4lessIS7_EELb1EEENS5_ISE_EEE25__emplace_unique_key_argsIS7_JRKNS_21piecewise_construct_tENS_5tupleIJRKS7_EEENSP_IJEEEEEENS_4pairINS_15__tree_iteratorISE_PNS_11__tree_nodeISE_PvEEiEEbEERKT_DpOT0_
.Ltmp275:
	@DEBUG_VALUE: __get_np:this <- [DW_OP_plus_uconst 228, DW_OP_stack_value] $sp
	@DEBUG_VALUE: operator->:this <- [DW_OP_plus_uconst 228, DW_OP_stack_value] $sp
	.loc	29 887 74                       @ C:\Keil_v5\ARM\ARMCLANG\Bin\..\include\libcxx\__tree:887:74
	ldr	r0, [sp, #228]
.Ltmp276:
	@DEBUG_VALUE: operator==<arm::app::Statistics *>:__y <- undef
	@DEBUG_VALUE: operator==<arm::app::Statistics *>:__x <- undef
	@DEBUG_VALUE: operator!=<arm::app::Statistics *>:__y <- undef
	@DEBUG_VALUE: operator!=<arm::app::Statistics *>:__x <- undef
	@DEBUG_VALUE: __end2 <- undef
	@DEBUG_VALUE: __begin2 <- undef
	@DEBUG_VALUE: begin:this <- [DW_OP_plus_uconst 28, DW_OP_stack_value] $r0
	@DEBUG_VALUE: __range2 <- [DW_OP_plus_uconst 28, DW_OP_stack_value] $r0
	@DEBUG_VALUE: end:this <- [DW_OP_plus_uconst 28, DW_OP_stack_value] $r0
	.loc	3 1421 33                       @ C:\Keil_v5\ARM\ARMCLANG\Bin\..\include\libcxx\vector:1421:33
	ldrd	r4, r9, [r0, #28]
.Ltmp277:
	.loc	1 190 31                        @ ../../../../ThirdParty/ml-embedded-evaluation-kit/source/profiler/Profiler.cc:190:31
	cmp	r4, r9
	beq	.LBB5_29
.Ltmp278:
@ %bb.18:
	@DEBUG_VALUE: end:this <- [DW_OP_plus_uconst 28, DW_OP_stack_value] $r0
	@DEBUG_VALUE: __range2 <- [DW_OP_plus_uconst 28, DW_OP_stack_value] $r0
	@DEBUG_VALUE: begin:this <- [DW_OP_plus_uconst 28, DW_OP_stack_value] $r0
	@DEBUG_VALUE: operator->:this <- [DW_OP_plus_uconst 228, DW_OP_stack_value] $sp
	@DEBUG_VALUE: __get_np:this <- [DW_OP_plus_uconst 228, DW_OP_stack_value] $sp
	@DEBUG_VALUE: operator[]:this <- $r5
	@DEBUG_VALUE: operator[]:__n <- 0
	@DEBUG_VALUE: operator->:this <- [DW_OP_plus_uconst 228, DW_OP_stack_value] $sp
	@DEBUG_VALUE: __get_np:this <- [DW_OP_plus_uconst 228, DW_OP_stack_value] $sp
	@DEBUG_VALUE: operator[]:this <- $r5
	@DEBUG_VALUE: UpdateRunningStats:name <- [DW_OP_plus_uconst 608] [$sp+0]
	.loc	1 0 31 is_stmt 0                @ ../../../../ThirdParty/ml-embedded-evaluation-kit/source/profiler/Profiler.cc:0:31
	add.w	r8, r8, #16
.Ltmp279:
	@DEBUG_VALUE: vector:this <- $r8
	b	.LBB5_21
.Ltmp280:
	.p2align	2
.LBB5_19:                               @   in Loop: Header=BB5_21 Depth=1
	@DEBUG_VALUE: emplace_back<arm::app::Statistics &>:__args <- $r4
	@DEBUG_VALUE: emplace_back<arm::app::Statistics &>:this <- $r8
	@DEBUG_VALUE: stat <- $r4
	@DEBUG_VALUE: __begin2 <- $r4
	@DEBUG_VALUE: UpdateRunningStats:name <- [DW_OP_plus_uconst 608] [$sp+0]
	.loc	3 1601 9 is_stmt 1              @ C:\Keil_v5\ARM\ARMCLANG\Bin\..\include\libcxx\vector:1601:9
	mov	r0, r8
	mov	r1, r4
	bl	_ZNSt3__26vectorIN3arm3app10StatisticsENS_9allocatorIS3_EEE24__emplace_back_slow_pathIJRS3_EEEvDpOT_
.Ltmp281:
.LBB5_20:                               @   in Loop: Header=BB5_21 Depth=1
	@DEBUG_VALUE: __begin2 <- $r4
	@DEBUG_VALUE: UpdateRunningStats:name <- [DW_OP_plus_uconst 608] [$sp+0]
	@DEBUG_VALUE: operator++:this <- undef
	.loc	18 100 9                        @ C:\Keil_v5\ARM\ARMCLANG\Bin\..\include\libcxx\__iterator/wrap_iter.h:100:9
	adds	r4, #64
.Ltmp282:
	@DEBUG_VALUE: operator==<arm::app::Statistics *>:__y <- undef
	@DEBUG_VALUE: operator==<arm::app::Statistics *>:__x <- undef
	@DEBUG_VALUE: operator!=<arm::app::Statistics *>:__y <- undef
	@DEBUG_VALUE: operator!=<arm::app::Statistics *>:__x <- undef
	@DEBUG_VALUE: __begin2 <- $r4
	.loc	1 190 31                        @ ../../../../ThirdParty/ml-embedded-evaluation-kit/source/profiler/Profiler.cc:190:31
	cmp	r4, r9
	beq	.LBB5_29
.Ltmp283:
.LBB5_21:                               @ =>This Inner Loop Header: Depth=1
	@DEBUG_VALUE: UpdateRunningStats:name <- [DW_OP_plus_uconst 608] [$sp+0]
	@DEBUG_VALUE: __begin2 <- $r4
	@DEBUG_VALUE: stat <- $r4
	@DEBUG_VALUE: emplace_back<arm::app::Statistics &>:this <- $r8
	@DEBUG_VALUE: emplace_back<arm::app::Statistics &>:__args <- $r4
	.loc	3 1596 15                       @ C:\Keil_v5\ARM\ARMCLANG\Bin\..\include\libcxx\vector:1596:15
	ldrd	r6, r0, [sp, #40]
.Ltmp284:
	.loc	3 1596 9 is_stmt 0              @ C:\Keil_v5\ARM\ARMCLANG\Bin\..\include\libcxx\vector:1596:9
	cmp	r6, r0
	bhs	.LBB5_19
.Ltmp285:
@ %bb.22:                               @   in Loop: Header=BB5_21 Depth=1
	@DEBUG_VALUE: emplace_back<arm::app::Statistics &>:__args <- $r4
	@DEBUG_VALUE: emplace_back<arm::app::Statistics &>:this <- $r8
	@DEBUG_VALUE: stat <- $r4
	@DEBUG_VALUE: __begin2 <- $r4
	@DEBUG_VALUE: UpdateRunningStats:name <- [DW_OP_plus_uconst 608] [$sp+0]
	@DEBUG_VALUE: __construct_one_at_end<arm::app::Statistics &>:this <- $r8
	@DEBUG_VALUE: __construct_one_at_end<arm::app::Statistics &>:__args <- $r4
	@DEBUG_VALUE: __construct_one_at_end<arm::app::Statistics &>:__tx <- [DW_OP_LLVM_fragment 0 32] $r8
	@DEBUG_VALUE: __construct_one_at_end<arm::app::Statistics &>:__tx <- [DW_OP_LLVM_fragment 32 32] $r6
	@DEBUG_VALUE: __construct_one_at_end<arm::app::Statistics &>:__tx <- [DW_OP_plus_uconst 64, DW_OP_stack_value, DW_OP_LLVM_fragment 64 32] $r6
	@DEBUG_VALUE: construct<arm::app::Statistics, arm::app::Statistics &, void>:__a <- [DW_OP_plus_uconst 8, DW_OP_stack_value] $r8
	@DEBUG_VALUE: construct<arm::app::Statistics, arm::app::Statistics &, void>:__p <- $r6
	@DEBUG_VALUE: construct<arm::app::Statistics, arm::app::Statistics &, void>:__args <- $r4
	@DEBUG_VALUE: construct<arm::app::Statistics, arm::app::Statistics &>:this <- [DW_OP_plus_uconst 8, DW_OP_stack_value] $r8
	@DEBUG_VALUE: construct<arm::app::Statistics, arm::app::Statistics &>:__p <- $r6
	@DEBUG_VALUE: construct<arm::app::Statistics, arm::app::Statistics &>:__args <- $r4
	@DEBUG_VALUE: Statistics:this <- $r6
	@DEBUG_VALUE: Statistics: <- $r4
	@DEBUG_VALUE: basic_string:this <- $r6
	@DEBUG_VALUE: basic_string:__str <- $r4
	@DEBUG_VALUE: __is_long:this <- $r4
	.loc	2 1509 33 is_stmt 1             @ C:\Keil_v5\ARM\ARMCLANG\Bin\..\include\libcxx\string:1509:33
	ldrsb.w	r0, [r4, #11]
.Ltmp286:
	.loc	2 2017 9                        @ C:\Keil_v5\ARM\ARMCLANG\Bin\..\include\libcxx\string:2017:9
	cmp	r0, #0
	bmi	.LBB5_24
.Ltmp287:
@ %bb.23:                               @   in Loop: Header=BB5_21 Depth=1
	@DEBUG_VALUE: basic_string:__str <- $r4
	@DEBUG_VALUE: basic_string:this <- $r6
	@DEBUG_VALUE: Statistics: <- $r4
	@DEBUG_VALUE: Statistics:this <- $r6
	@DEBUG_VALUE: construct<arm::app::Statistics, arm::app::Statistics &>:__args <- $r4
	@DEBUG_VALUE: construct<arm::app::Statistics, arm::app::Statistics &>:__p <- $r6
	@DEBUG_VALUE: construct<arm::app::Statistics, arm::app::Statistics &>:this <- [DW_OP_plus_uconst 8, DW_OP_stack_value] $r8
	@DEBUG_VALUE: construct<arm::app::Statistics, arm::app::Statistics &, void>:__args <- $r4
	@DEBUG_VALUE: construct<arm::app::Statistics, arm::app::Statistics &, void>:__p <- $r6
	@DEBUG_VALUE: construct<arm::app::Statistics, arm::app::Statistics &, void>:__a <- [DW_OP_plus_uconst 8, DW_OP_stack_value] $r8
	@DEBUG_VALUE: __construct_one_at_end<arm::app::Statistics &>:__tx <- [DW_OP_plus_uconst 64, DW_OP_stack_value, DW_OP_LLVM_fragment 64 32] $r6
	@DEBUG_VALUE: __construct_one_at_end<arm::app::Statistics &>:__tx <- [DW_OP_LLVM_fragment 32 32] $r6
	@DEBUG_VALUE: __construct_one_at_end<arm::app::Statistics &>:__tx <- [DW_OP_LLVM_fragment 0 32] $r8
	@DEBUG_VALUE: __construct_one_at_end<arm::app::Statistics &>:__args <- $r4
	@DEBUG_VALUE: __construct_one_at_end<arm::app::Statistics &>:this <- $r8
	@DEBUG_VALUE: emplace_back<arm::app::Statistics &>:__args <- $r4
	@DEBUG_VALUE: emplace_back<arm::app::Statistics &>:this <- $r8
	@DEBUG_VALUE: stat <- $r4
	@DEBUG_VALUE: __begin2 <- $r4
	@DEBUG_VALUE: UpdateRunningStats:name <- [DW_OP_plus_uconst 608] [$sp+0]
	.loc	2 2018 22                       @ C:\Keil_v5\ARM\ARMCLANG\Bin\..\include\libcxx\string:2018:22
	ldm.w	r4, {r0, r1, r2}
	stm.w	r6, {r0, r1, r2}
	b	.LBB5_25
.Ltmp288:
.LBB5_24:                               @   in Loop: Header=BB5_21 Depth=1
	@DEBUG_VALUE: basic_string:__str <- $r4
	@DEBUG_VALUE: basic_string:this <- $r6
	@DEBUG_VALUE: Statistics: <- $r4
	@DEBUG_VALUE: Statistics:this <- $r6
	@DEBUG_VALUE: construct<arm::app::Statistics, arm::app::Statistics &>:__args <- $r4
	@DEBUG_VALUE: construct<arm::app::Statistics, arm::app::Statistics &>:__p <- $r6
	@DEBUG_VALUE: construct<arm::app::Statistics, arm::app::Statistics &>:this <- [DW_OP_plus_uconst 8, DW_OP_stack_value] $r8
	@DEBUG_VALUE: construct<arm::app::Statistics, arm::app::Statistics &, void>:__args <- $r4
	@DEBUG_VALUE: construct<arm::app::Statistics, arm::app::Statistics &, void>:__p <- $r6
	@DEBUG_VALUE: construct<arm::app::Statistics, arm::app::Statistics &, void>:__a <- [DW_OP_plus_uconst 8, DW_OP_stack_value] $r8
	@DEBUG_VALUE: __construct_one_at_end<arm::app::Statistics &>:__tx <- [DW_OP_plus_uconst 64, DW_OP_stack_value, DW_OP_LLVM_fragment 64 32] $r6
	@DEBUG_VALUE: __construct_one_at_end<arm::app::Statistics &>:__tx <- [DW_OP_LLVM_fragment 32 32] $r6
	@DEBUG_VALUE: __construct_one_at_end<arm::app::Statistics &>:__tx <- [DW_OP_LLVM_fragment 0 32] $r8
	@DEBUG_VALUE: __construct_one_at_end<arm::app::Statistics &>:__args <- $r4
	@DEBUG_VALUE: __construct_one_at_end<arm::app::Statistics &>:this <- $r8
	@DEBUG_VALUE: emplace_back<arm::app::Statistics &>:__args <- $r4
	@DEBUG_VALUE: emplace_back<arm::app::Statistics &>:this <- $r8
	@DEBUG_VALUE: stat <- $r4
	@DEBUG_VALUE: __begin2 <- $r4
	@DEBUG_VALUE: UpdateRunningStats:name <- [DW_OP_plus_uconst 608] [$sp+0]
	@DEBUG_VALUE: __get_long_pointer:this <- $r4
	@DEBUG_VALUE: __get_long_size:this <- $r4
	.loc	2 1618 34                       @ C:\Keil_v5\ARM\ARMCLANG\Bin\..\include\libcxx\string:1618:34
	ldrd	r1, r2, [r4]
.Ltmp289:
	.loc	2 2020 9                        @ C:\Keil_v5\ARM\ARMCLANG\Bin\..\include\libcxx\string:2020:9
	mov	r0, r6
	bl	_ZNSt3__212basic_stringIcNS_11char_traitsIcEENS_9allocatorIcEEE25__init_copy_ctor_externalEPKcj
.Ltmp290:
.LBB5_25:                               @   in Loop: Header=BB5_21 Depth=1
	@DEBUG_VALUE: Statistics: <- $r4
	@DEBUG_VALUE: Statistics:this <- $r6
	@DEBUG_VALUE: construct<arm::app::Statistics, arm::app::Statistics &>:__args <- $r4
	@DEBUG_VALUE: construct<arm::app::Statistics, arm::app::Statistics &>:__p <- $r6
	@DEBUG_VALUE: construct<arm::app::Statistics, arm::app::Statistics &>:this <- [DW_OP_plus_uconst 8, DW_OP_stack_value] $r8
	@DEBUG_VALUE: construct<arm::app::Statistics, arm::app::Statistics &, void>:__args <- $r4
	@DEBUG_VALUE: construct<arm::app::Statistics, arm::app::Statistics &, void>:__p <- $r6
	@DEBUG_VALUE: construct<arm::app::Statistics, arm::app::Statistics &, void>:__a <- [DW_OP_plus_uconst 8, DW_OP_stack_value] $r8
	@DEBUG_VALUE: __construct_one_at_end<arm::app::Statistics &>:__tx <- [DW_OP_plus_uconst 64, DW_OP_stack_value, DW_OP_LLVM_fragment 64 32] $r6
	@DEBUG_VALUE: __construct_one_at_end<arm::app::Statistics &>:__tx <- [DW_OP_LLVM_fragment 32 32] $r6
	@DEBUG_VALUE: __construct_one_at_end<arm::app::Statistics &>:__tx <- [DW_OP_LLVM_fragment 0 32] $r8
	@DEBUG_VALUE: __construct_one_at_end<arm::app::Statistics &>:__args <- $r4
	@DEBUG_VALUE: __construct_one_at_end<arm::app::Statistics &>:this <- $r8
	@DEBUG_VALUE: emplace_back<arm::app::Statistics &>:__args <- $r4
	@DEBUG_VALUE: emplace_back<arm::app::Statistics &>:this <- $r8
	@DEBUG_VALUE: stat <- $r4
	@DEBUG_VALUE: __begin2 <- $r4
	@DEBUG_VALUE: UpdateRunningStats:name <- [DW_OP_plus_uconst 608] [$sp+0]
	.loc	2 1509 33                       @ C:\Keil_v5\ARM\ARMCLANG\Bin\..\include\libcxx\string:1509:33
	ldrsb.w	r0, [r4, #23]
.Ltmp291:
	.loc	2 2017 9                        @ C:\Keil_v5\ARM\ARMCLANG\Bin\..\include\libcxx\string:2017:9
	cmp	r0, #0
.Ltmp292:
	.loc	15 31 12                        @ ../../../../ThirdParty/ml-embedded-evaluation-kit/source/profiler/include\Profiler.hpp:31:12
	add.w	r0, r6, #12
	@DEBUG_VALUE: __is_long:this <- [DW_OP_plus_uconst 12, DW_OP_stack_value] $r4
.Ltmp293:
	@DEBUG_VALUE: basic_string:__str <- [DW_OP_plus_uconst 12, DW_OP_stack_value] $r4
	@DEBUG_VALUE: basic_string:this <- $r0
	.loc	2 2017 9                        @ C:\Keil_v5\ARM\ARMCLANG\Bin\..\include\libcxx\string:2017:9
	bmi	.LBB5_27
.Ltmp294:
@ %bb.26:                               @   in Loop: Header=BB5_21 Depth=1
	@DEBUG_VALUE: basic_string:this <- $r0
	@DEBUG_VALUE: basic_string:__str <- [DW_OP_plus_uconst 12, DW_OP_stack_value] $r4
	@DEBUG_VALUE: Statistics: <- $r4
	@DEBUG_VALUE: Statistics:this <- $r6
	@DEBUG_VALUE: construct<arm::app::Statistics, arm::app::Statistics &>:__args <- $r4
	@DEBUG_VALUE: construct<arm::app::Statistics, arm::app::Statistics &>:__p <- $r6
	@DEBUG_VALUE: construct<arm::app::Statistics, arm::app::Statistics &>:this <- [DW_OP_plus_uconst 8, DW_OP_stack_value] $r8
	@DEBUG_VALUE: construct<arm::app::Statistics, arm::app::Statistics &, void>:__args <- $r4
	@DEBUG_VALUE: construct<arm::app::Statistics, arm::app::Statistics &, void>:__p <- $r6
	@DEBUG_VALUE: construct<arm::app::Statistics, arm::app::Statistics &, void>:__a <- [DW_OP_plus_uconst 8, DW_OP_stack_value] $r8
	@DEBUG_VALUE: __construct_one_at_end<arm::app::Statistics &>:__tx <- [DW_OP_plus_uconst 64, DW_OP_stack_value, DW_OP_LLVM_fragment 64 32] $r6
	@DEBUG_VALUE: __construct_one_at_end<arm::app::Statistics &>:__tx <- [DW_OP_LLVM_fragment 32 32] $r6
	@DEBUG_VALUE: __construct_one_at_end<arm::app::Statistics &>:__tx <- [DW_OP_LLVM_fragment 0 32] $r8
	@DEBUG_VALUE: __construct_one_at_end<arm::app::Statistics &>:__args <- $r4
	@DEBUG_VALUE: __construct_one_at_end<arm::app::Statistics &>:this <- $r8
	@DEBUG_VALUE: emplace_back<arm::app::Statistics &>:__args <- $r4
	@DEBUG_VALUE: emplace_back<arm::app::Statistics &>:this <- $r8
	@DEBUG_VALUE: stat <- $r4
	@DEBUG_VALUE: __begin2 <- $r4
	@DEBUG_VALUE: UpdateRunningStats:name <- [DW_OP_plus_uconst 608] [$sp+0]
	.loc	2 0 0 is_stmt 0                 @ C:\Keil_v5\ARM\ARMCLANG\Bin\..\include\libcxx\string:0:0
	add.w	r1, r4, #12
	.loc	2 2018 22 is_stmt 1             @ C:\Keil_v5\ARM\ARMCLANG\Bin\..\include\libcxx\string:2018:22
	ldrd	r2, r3, [r1]
	ldr	r1, [r1, #8]
	str	r1, [r0, #8]
	strd	r2, r3, [r0]
	b	.LBB5_28
.Ltmp295:
.LBB5_27:                               @   in Loop: Header=BB5_21 Depth=1
	@DEBUG_VALUE: basic_string:this <- $r0
	@DEBUG_VALUE: basic_string:__str <- [DW_OP_plus_uconst 12, DW_OP_stack_value] $r4
	@DEBUG_VALUE: Statistics: <- $r4
	@DEBUG_VALUE: Statistics:this <- $r6
	@DEBUG_VALUE: construct<arm::app::Statistics, arm::app::Statistics &>:__args <- $r4
	@DEBUG_VALUE: construct<arm::app::Statistics, arm::app::Statistics &>:__p <- $r6
	@DEBUG_VALUE: construct<arm::app::Statistics, arm::app::Statistics &>:this <- [DW_OP_plus_uconst 8, DW_OP_stack_value] $r8
	@DEBUG_VALUE: construct<arm::app::Statistics, arm::app::Statistics &, void>:__args <- $r4
	@DEBUG_VALUE: construct<arm::app::Statistics, arm::app::Statistics &, void>:__p <- $r6
	@DEBUG_VALUE: construct<arm::app::Statistics, arm::app::Statistics &, void>:__a <- [DW_OP_plus_uconst 8, DW_OP_stack_value] $r8
	@DEBUG_VALUE: __construct_one_at_end<arm::app::Statistics &>:__tx <- [DW_OP_plus_uconst 64, DW_OP_stack_value, DW_OP_LLVM_fragment 64 32] $r6
	@DEBUG_VALUE: __construct_one_at_end<arm::app::Statistics &>:__tx <- [DW_OP_LLVM_fragment 32 32] $r6
	@DEBUG_VALUE: __construct_one_at_end<arm::app::Statistics &>:__tx <- [DW_OP_LLVM_fragment 0 32] $r8
	@DEBUG_VALUE: __construct_one_at_end<arm::app::Statistics &>:__args <- $r4
	@DEBUG_VALUE: __construct_one_at_end<arm::app::Statistics &>:this <- $r8
	@DEBUG_VALUE: emplace_back<arm::app::Statistics &>:__args <- $r4
	@DEBUG_VALUE: emplace_back<arm::app::Statistics &>:this <- $r8
	@DEBUG_VALUE: stat <- $r4
	@DEBUG_VALUE: __begin2 <- $r4
	@DEBUG_VALUE: UpdateRunningStats:name <- [DW_OP_plus_uconst 608] [$sp+0]
	@DEBUG_VALUE: __get_long_pointer:this <- [DW_OP_plus_uconst 12, DW_OP_stack_value] $r4
	@DEBUG_VALUE: __get_long_size:this <- [DW_OP_plus_uconst 12, DW_OP_stack_value] $r4
	.loc	2 1618 34                       @ C:\Keil_v5\ARM\ARMCLANG\Bin\..\include\libcxx\string:1618:34
	ldrd	r1, r2, [r4, #12]
.Ltmp296:
	.loc	2 2020 9                        @ C:\Keil_v5\ARM\ARMCLANG\Bin\..\include\libcxx\string:2020:9
	bl	_ZNSt3__212basic_stringIcNS_11char_traitsIcEENS_9allocatorIcEEE25__init_copy_ctor_externalEPKcj
.Ltmp297:
.LBB5_28:                               @   in Loop: Header=BB5_21 Depth=1
	@DEBUG_VALUE: Statistics: <- $r4
	@DEBUG_VALUE: Statistics:this <- $r6
	@DEBUG_VALUE: construct<arm::app::Statistics, arm::app::Statistics &>:__args <- $r4
	@DEBUG_VALUE: construct<arm::app::Statistics, arm::app::Statistics &>:__p <- $r6
	@DEBUG_VALUE: construct<arm::app::Statistics, arm::app::Statistics &>:this <- [DW_OP_plus_uconst 8, DW_OP_stack_value] $r8
	@DEBUG_VALUE: construct<arm::app::Statistics, arm::app::Statistics &, void>:__args <- $r4
	@DEBUG_VALUE: construct<arm::app::Statistics, arm::app::Statistics &, void>:__p <- $r6
	@DEBUG_VALUE: construct<arm::app::Statistics, arm::app::Statistics &, void>:__a <- [DW_OP_plus_uconst 8, DW_OP_stack_value] $r8
	@DEBUG_VALUE: __construct_one_at_end<arm::app::Statistics &>:__tx <- [DW_OP_plus_uconst 64, DW_OP_stack_value, DW_OP_LLVM_fragment 64 32] $r6
	@DEBUG_VALUE: __construct_one_at_end<arm::app::Statistics &>:__tx <- [DW_OP_LLVM_fragment 32 32] $r6
	@DEBUG_VALUE: __construct_one_at_end<arm::app::Statistics &>:__tx <- [DW_OP_LLVM_fragment 0 32] $r8
	@DEBUG_VALUE: __construct_one_at_end<arm::app::Statistics &>:__args <- $r4
	@DEBUG_VALUE: __construct_one_at_end<arm::app::Statistics &>:this <- $r8
	@DEBUG_VALUE: emplace_back<arm::app::Statistics &>:__args <- $r4
	@DEBUG_VALUE: emplace_back<arm::app::Statistics &>:this <- $r8
	@DEBUG_VALUE: stat <- $r4
	@DEBUG_VALUE: __begin2 <- $r4
	@DEBUG_VALUE: UpdateRunningStats:name <- [DW_OP_plus_uconst 608] [$sp+0]
	.loc	15 31 12                        @ ../../../../ThirdParty/ml-embedded-evaluation-kit/source/profiler/include\Profiler.hpp:31:12
	add.w	r7, r4, #24
	ldr	r5, [r4, #44]
	ldm	r7, {r0, r1, r2, r3, r7}
	add.w	r12, r6, #24
	str	r5, [r6, #44]
	stm.w	r12, {r0, r1, r2, r3, r7}
	ldrd	r0, r2, [r4, #48]
	ldr	r1, [r4, #56]
	str	r1, [r6, #56]
	strd	r0, r2, [r6, #48]
.Ltmp298:
	.loc	3 811 5                         @ C:\Keil_v5\ARM\ARMCLANG\Bin\..\include\libcxx\vector:811:5
	add.w	r0, r6, #64
.Ltmp299:
	@DEBUG_VALUE: ~_ConstructTransaction:this <- undef
	@DEBUG_VALUE: __construct_one_at_end<arm::app::Statistics &>:__tx <- [DW_OP_LLVM_fragment 32 32] $r0
	.loc	3 788 19                        @ C:\Keil_v5\ARM\ARMCLANG\Bin\..\include\libcxx\vector:788:19
	str	r0, [sp, #40]
	b	.LBB5_20
.Ltmp300:
.LBB5_29:
	@DEBUG_VALUE: UpdateRunningStats:name <- [DW_OP_plus_uconst 608] [$sp+0]
	@DEBUG_VALUE: ~ProfileResult:this <- [DW_OP_plus_uconst 20, DW_OP_stack_value] $sp
	@DEBUG_VALUE: ~vector:this <- undef
	.loc	3 431 17                        @ C:\Keil_v5\ARM\ARMCLANG\Bin\..\include\libcxx\vector:431:17
	ldr	r4, [sp, #36]
.Ltmp301:
	.loc	3 431 11 is_stmt 0              @ C:\Keil_v5\ARM\ARMCLANG\Bin\..\include\libcxx\vector:431:11
	cbz	r4, .LBB5_38
.Ltmp302:
@ %bb.30:
	@DEBUG_VALUE: ~ProfileResult:this <- [DW_OP_plus_uconst 20, DW_OP_stack_value] $sp
	@DEBUG_VALUE: UpdateRunningStats:name <- [DW_OP_plus_uconst 608] [$sp+0]
	@DEBUG_VALUE: __clear:this <- undef
	@DEBUG_VALUE: __base_destruct_at_end:this <- undef
	@DEBUG_VALUE: __base_destruct_at_end:__new_last <- $r4
	.loc	3 832 38 is_stmt 1              @ C:\Keil_v5\ARM\ARMCLANG\Bin\..\include\libcxx\vector:832:38
	ldr	r5, [sp, #40]
.Ltmp303:
	@DEBUG_VALUE: __base_destruct_at_end:__soon_to_be_end <- $r5
	.loc	3 0 38 is_stmt 0                @ C:\Keil_v5\ARM\ARMCLANG\Bin\..\include\libcxx\vector:0:38
	mov	r0, r4
	.loc	3 833 5 is_stmt 1               @ C:\Keil_v5\ARM\ARMCLANG\Bin\..\include\libcxx\vector:833:5
	cmp	r5, r4
	bne	.LBB5_32
	b	.LBB5_37
.Ltmp304:
	.p2align	2
.LBB5_31:                               @   in Loop: Header=BB5_32 Depth=1
	@DEBUG_VALUE: __base_destruct_at_end:__new_last <- $r4
	@DEBUG_VALUE: ~ProfileResult:this <- [DW_OP_plus_uconst 20, DW_OP_stack_value] $sp
	@DEBUG_VALUE: UpdateRunningStats:name <- [DW_OP_plus_uconst 608] [$sp+0]
	.loc	3 0 0 is_stmt 0                 @ C:\Keil_v5\ARM\ARMCLANG\Bin\..\include\libcxx\vector:0:0
	subs	r5, #64
	@DEBUG_VALUE: __is_long:this <- $r5
	@DEBUG_VALUE: ~basic_string:this <- $r5
	@DEBUG_VALUE: __is_long:this <- [DW_OP_plus_uconst 12, DW_OP_stack_value] $r5
	@DEBUG_VALUE: ~basic_string:this <- [DW_OP_plus_uconst 12, DW_OP_stack_value] $r5
	@DEBUG_VALUE: ~Statistics:this <- $r5
	@DEBUG_VALUE: destroy:__p <- $r5
	@DEBUG_VALUE: destroy<arm::app::Statistics, void>:__p <- $r5
.Ltmp305:
	@DEBUG_VALUE: __base_destruct_at_end:__soon_to_be_end <- $r5
	.loc	3 833 5                         @ C:\Keil_v5\ARM\ARMCLANG\Bin\..\include\libcxx\vector:833:5
	cmp	r5, r4
	beq	.LBB5_36
.Ltmp306:
.LBB5_32:                               @ =>This Inner Loop Header: Depth=1
	@DEBUG_VALUE: __base_destruct_at_end:__soon_to_be_end <- $r5
	@DEBUG_VALUE: __base_destruct_at_end:__new_last <- $r4
	@DEBUG_VALUE: ~ProfileResult:this <- [DW_OP_plus_uconst 20, DW_OP_stack_value] $sp
	@DEBUG_VALUE: UpdateRunningStats:name <- [DW_OP_plus_uconst 608] [$sp+0]
	@DEBUG_VALUE: __base_destruct_at_end:__soon_to_be_end <- undef
	@DEBUG_VALUE: destroy<arm::app::Statistics, void>:__p <- undef
	@DEBUG_VALUE: destroy:__p <- undef
	@DEBUG_VALUE: ~Statistics:this <- undef
	@DEBUG_VALUE: ~basic_string:this <- [DW_OP_plus_uconst 12, DW_OP_stack_value] undef
	@DEBUG_VALUE: __is_long:this <- [DW_OP_plus_uconst 12, DW_OP_stack_value] undef
	@DEBUG_VALUE: destroy<arm::app::Statistics, void>:__a <- [DW_OP_plus_uconst 8, DW_OP_stack_value] undef
	@DEBUG_VALUE: destroy:this <- [DW_OP_plus_uconst 8, DW_OP_stack_value] undef
	.loc	2 1509 33 is_stmt 1             @ C:\Keil_v5\ARM\ARMCLANG\Bin\..\include\libcxx\string:1509:33
	ldrsb	r0, [r5, #-41]
.Ltmp307:
	.loc	2 2337 9                        @ C:\Keil_v5\ARM\ARMCLANG\Bin\..\include\libcxx\string:2337:9
	cmp.w	r0, #-1
	bgt	.LBB5_34
.Ltmp308:
@ %bb.33:                               @   in Loop: Header=BB5_32 Depth=1
	@DEBUG_VALUE: __base_destruct_at_end:__new_last <- $r4
	@DEBUG_VALUE: ~ProfileResult:this <- [DW_OP_plus_uconst 20, DW_OP_stack_value] $sp
	@DEBUG_VALUE: UpdateRunningStats:name <- [DW_OP_plus_uconst 608] [$sp+0]
	@DEBUG_VALUE: ~basic_string:this <- [DW_OP_constu 52, DW_OP_minus, DW_OP_stack_value] $r5
	@DEBUG_VALUE: __is_long:this <- [DW_OP_constu 52, DW_OP_minus, DW_OP_stack_value] $r5
	@DEBUG_VALUE: __get_long_pointer:this <- [DW_OP_plus_uconst 12, DW_OP_stack_value] $r5
	.loc	2 1615 34                       @ C:\Keil_v5\ARM\ARMCLANG\Bin\..\include\libcxx\string:1615:34
	ldr	r0, [r5, #-52]
.Ltmp309:
	@DEBUG_VALUE: __do_deallocate_handle_size<>:__size <- [DW_OP_constu 2147483647, DW_OP_and, DW_OP_stack_value] undef
	@DEBUG_VALUE: __libcpp_deallocate:__align <- 1
	@DEBUG_VALUE: __libcpp_deallocate:__size <- [DW_OP_constu 2147483647, DW_OP_and, DW_OP_stack_value] undef
	@DEBUG_VALUE: deallocate:__n <- [DW_OP_constu 2147483647, DW_OP_and, DW_OP_stack_value] undef
	@DEBUG_VALUE: deallocate:this <- [DW_OP_plus_uconst 12, DW_OP_stack_value] $r5
	@DEBUG_VALUE: deallocate:__n <- [DW_OP_constu 2147483647, DW_OP_and, DW_OP_stack_value] undef
	@DEBUG_VALUE: deallocate:__a <- [DW_OP_plus_uconst 12, DW_OP_stack_value] $r5
	@DEBUG_VALUE: __libcpp_operator_delete<void *>:__args <- $r0
	@DEBUG_VALUE: __do_deallocate_handle_size<>:__ptr <- $r0
	@DEBUG_VALUE: __libcpp_deallocate:__ptr <- $r0
	@DEBUG_VALUE: deallocate:__p <- $r0
	@DEBUG_VALUE: deallocate:__p <- $r0
	.loc	63 280 3                        @ C:\Keil_v5\ARM\ARMCLANG\Bin\..\include\libcxx\new:280:3
	bl	_ZdlPv
.Ltmp310:
.LBB5_34:                               @   in Loop: Header=BB5_32 Depth=1
	@DEBUG_VALUE: __base_destruct_at_end:__new_last <- $r4
	@DEBUG_VALUE: ~ProfileResult:this <- [DW_OP_plus_uconst 20, DW_OP_stack_value] $sp
	@DEBUG_VALUE: UpdateRunningStats:name <- [DW_OP_plus_uconst 608] [$sp+0]
	@DEBUG_VALUE: __base_destruct_at_end:__soon_to_be_end <- undef
	@DEBUG_VALUE: destroy<arm::app::Statistics, void>:__p <- undef
	@DEBUG_VALUE: destroy:__p <- undef
	@DEBUG_VALUE: ~Statistics:this <- undef
	@DEBUG_VALUE: ~basic_string:this <- [DW_OP_plus_uconst 12, DW_OP_stack_value] undef
	@DEBUG_VALUE: __is_long:this <- [DW_OP_plus_uconst 12, DW_OP_stack_value] undef
	@DEBUG_VALUE: ~basic_string:this <- $r5
	@DEBUG_VALUE: __is_long:this <- $r5
	.loc	2 1509 33                       @ C:\Keil_v5\ARM\ARMCLANG\Bin\..\include\libcxx\string:1509:33
	ldrsb	r0, [r5, #-53]
.Ltmp311:
	.loc	2 2337 9                        @ C:\Keil_v5\ARM\ARMCLANG\Bin\..\include\libcxx\string:2337:9
	cmp.w	r0, #-1
	bgt	.LBB5_31
.Ltmp312:
@ %bb.35:                               @   in Loop: Header=BB5_32 Depth=1
	@DEBUG_VALUE: ~basic_string:this <- $r5
	@DEBUG_VALUE: __base_destruct_at_end:__new_last <- $r4
	@DEBUG_VALUE: ~ProfileResult:this <- [DW_OP_plus_uconst 20, DW_OP_stack_value] $sp
	@DEBUG_VALUE: UpdateRunningStats:name <- [DW_OP_plus_uconst 608] [$sp+0]
	@DEBUG_VALUE: __get_long_pointer:this <- $r5
	.loc	2 1615 34                       @ C:\Keil_v5\ARM\ARMCLANG\Bin\..\include\libcxx\string:1615:34
	ldr	r0, [r5, #-64]
.Ltmp313:
	@DEBUG_VALUE: __do_deallocate_handle_size<>:__size <- [DW_OP_constu 2147483647, DW_OP_and, DW_OP_stack_value] undef
	@DEBUG_VALUE: __libcpp_deallocate:__align <- 1
	@DEBUG_VALUE: __libcpp_deallocate:__size <- [DW_OP_constu 2147483647, DW_OP_and, DW_OP_stack_value] undef
	@DEBUG_VALUE: deallocate:__n <- [DW_OP_constu 2147483647, DW_OP_and, DW_OP_stack_value] undef
	@DEBUG_VALUE: deallocate:this <- $r5
	@DEBUG_VALUE: deallocate:__n <- [DW_OP_constu 2147483647, DW_OP_and, DW_OP_stack_value] undef
	@DEBUG_VALUE: deallocate:__a <- $r5
	@DEBUG_VALUE: __libcpp_operator_delete<void *>:__args <- $r0
	@DEBUG_VALUE: __do_deallocate_handle_size<>:__ptr <- $r0
	@DEBUG_VALUE: __libcpp_deallocate:__ptr <- $r0
	@DEBUG_VALUE: deallocate:__p <- $r0
	@DEBUG_VALUE: deallocate:__p <- $r0
	.loc	63 280 3                        @ C:\Keil_v5\ARM\ARMCLANG\Bin\..\include\libcxx\new:280:3
	bl	_ZdlPv
.Ltmp314:
	.loc	63 0 3 is_stmt 0                @ C:\Keil_v5\ARM\ARMCLANG\Bin\..\include\libcxx\new:0:3
	b	.LBB5_31
.Ltmp315:
.LBB5_36:
	@DEBUG_VALUE: ~ProfileResult:this <- [DW_OP_plus_uconst 20, DW_OP_stack_value] $sp
	@DEBUG_VALUE: UpdateRunningStats:name <- [DW_OP_plus_uconst 608] [$sp+0]
	.loc	3 434 53 is_stmt 1              @ C:\Keil_v5\ARM\ARMCLANG\Bin\..\include\libcxx\vector:434:53
	ldr	r0, [sp, #36]
.Ltmp316:
.LBB5_37:
	@DEBUG_VALUE: ~ProfileResult:this <- [DW_OP_plus_uconst 20, DW_OP_stack_value] $sp
	@DEBUG_VALUE: UpdateRunningStats:name <- [DW_OP_plus_uconst 608] [$sp+0]
	.loc	3 835 18                        @ C:\Keil_v5\ARM\ARMCLANG\Bin\..\include\libcxx\vector:835:18
	str	r4, [sp, #40]
.Ltmp317:
	@DEBUG_VALUE: __libcpp_operator_delete<void *>:__args <- $r0
	@DEBUG_VALUE: __do_deallocate_handle_size<>:__size <- [DW_OP_LLVM_arg 0, DW_OP_LLVM_arg 1, DW_OP_minus, DW_OP_constu 6, DW_OP_shra, DW_OP_constu 6, DW_OP_shl, DW_OP_stack_value] undef, undef
	@DEBUG_VALUE: __do_deallocate_handle_size<>:__ptr <- $r0
	@DEBUG_VALUE: __libcpp_deallocate:__align <- 8
	@DEBUG_VALUE: __libcpp_deallocate:__size <- [DW_OP_LLVM_arg 0, DW_OP_LLVM_arg 1, DW_OP_minus, DW_OP_constu 6, DW_OP_shra, DW_OP_constu 6, DW_OP_shl, DW_OP_stack_value] undef, undef
	@DEBUG_VALUE: __libcpp_deallocate:__ptr <- $r0
	@DEBUG_VALUE: deallocate:__n <- [DW_OP_LLVM_arg 0, DW_OP_LLVM_arg 1, DW_OP_minus, DW_OP_constu 6, DW_OP_shra, DW_OP_stack_value] undef, undef
	@DEBUG_VALUE: deallocate:__p <- $r0
	@DEBUG_VALUE: deallocate:this <- [DW_OP_plus_uconst 8, DW_OP_stack_value] undef
	@DEBUG_VALUE: deallocate:__n <- [DW_OP_LLVM_arg 0, DW_OP_LLVM_arg 1, DW_OP_minus, DW_OP_constu 6, DW_OP_shra, DW_OP_stack_value] undef, undef
	@DEBUG_VALUE: deallocate:__p <- $r0
	@DEBUG_VALUE: deallocate:__a <- [DW_OP_plus_uconst 8, DW_OP_stack_value] undef
	.loc	63 280 3                        @ C:\Keil_v5\ARM\ARMCLANG\Bin\..\include\libcxx\new:280:3
	bl	_ZdlPv
.Ltmp318:
.LBB5_38:
	@DEBUG_VALUE: ~ProfileResult:this <- [DW_OP_plus_uconst 20, DW_OP_stack_value] $sp
	@DEBUG_VALUE: UpdateRunningStats:name <- [DW_OP_plus_uconst 608] [$sp+0]
	@DEBUG_VALUE: ~basic_string:this <- [DW_OP_plus_uconst 20, DW_OP_stack_value] $sp
	@DEBUG_VALUE: __is_long:this <- [DW_OP_plus_uconst 20, DW_OP_stack_value] $sp
	.loc	2 1509 33                       @ C:\Keil_v5\ARM\ARMCLANG\Bin\..\include\libcxx\string:1509:33
	ldrsb.w	r0, [sp, #31]
.Ltmp319:
	.loc	2 2337 9                        @ C:\Keil_v5\ARM\ARMCLANG\Bin\..\include\libcxx\string:2337:9
	cmp.w	r0, #-1
	bgt	.LBB5_40
.Ltmp320:
@ %bb.39:
	@DEBUG_VALUE: ~basic_string:this <- [DW_OP_plus_uconst 20, DW_OP_stack_value] $sp
	@DEBUG_VALUE: ~ProfileResult:this <- [DW_OP_plus_uconst 20, DW_OP_stack_value] $sp
	@DEBUG_VALUE: UpdateRunningStats:name <- [DW_OP_plus_uconst 608] [$sp+0]
	@DEBUG_VALUE: __get_long_pointer:this <- [DW_OP_plus_uconst 20, DW_OP_stack_value] $sp
	.loc	2 1615 34                       @ C:\Keil_v5\ARM\ARMCLANG\Bin\..\include\libcxx\string:1615:34
	ldr	r0, [sp, #20]
.Ltmp321:
	@DEBUG_VALUE: __do_deallocate_handle_size<>:__size <- [DW_OP_constu 2147483647, DW_OP_and, DW_OP_stack_value] undef
	@DEBUG_VALUE: __libcpp_deallocate:__align <- 1
	@DEBUG_VALUE: __libcpp_deallocate:__size <- [DW_OP_constu 2147483647, DW_OP_and, DW_OP_stack_value] undef
	@DEBUG_VALUE: deallocate:__n <- [DW_OP_constu 2147483647, DW_OP_and, DW_OP_stack_value] undef
	@DEBUG_VALUE: deallocate:this <- [DW_OP_plus_uconst 20, DW_OP_stack_value] $sp
	@DEBUG_VALUE: deallocate:__n <- [DW_OP_constu 2147483647, DW_OP_and, DW_OP_stack_value] undef
	@DEBUG_VALUE: deallocate:__a <- [DW_OP_plus_uconst 20, DW_OP_stack_value] $sp
	@DEBUG_VALUE: __libcpp_operator_delete<void *>:__args <- $r0
	@DEBUG_VALUE: __do_deallocate_handle_size<>:__ptr <- $r0
	@DEBUG_VALUE: __libcpp_deallocate:__ptr <- $r0
	@DEBUG_VALUE: deallocate:__p <- $r0
	@DEBUG_VALUE: deallocate:__p <- $r0
	.loc	63 280 3                        @ C:\Keil_v5\ARM\ARMCLANG\Bin\..\include\libcxx\new:280:3
	bl	_ZdlPv
.Ltmp322:
.LBB5_40:
	@DEBUG_VALUE: UpdateRunningStats:name <- [DW_OP_plus_uconst 608] [$sp+0]
	.loc	1 193 5                         @ ../../../../ThirdParty/ml-embedded-evaluation-kit/source/profiler/Profiler.cc:193:5
	add	sp, #236
	pop.w	{r4, r5, r6, r7, r8, r9, r10, r11, lr}
	add	sp, #8
	bx	lr
.Ltmp323:
	.p2align	2
@ %bb.41:
	.loc	1 0 5 is_stmt 0                 @ ../../../../ThirdParty/ml-embedded-evaluation-kit/source/profiler/Profiler.cc:0:5
.LCPI5_0:
.L.str.12:
	.asciz	"WARN - "
.LCPI5_1:
.L.str.13:
	.asciz	"Overflow detected for %s\n\000\000"
.LCPI5_2:
.Lstr:
	.asciz	"Invalid start or end counters\000\000"
.Lfunc_end5:
	.size	_ZN3arm3app8Profiler18UpdateRunningStatsE13_pmu_countersS2_RKNSt3__212basic_stringIcNS3_11char_traitsIcEENS3_9allocatorIcEEEE, .Lfunc_end5-_ZN3arm3app8Profiler18UpdateRunningStatsE13_pmu_countersS2_RKNSt3__212basic_stringIcNS3_11char_traitsIcEENS3_9allocatorIcEEEE
	.cfi_endproc
	.file	68 "C:\\Keil_v5\\ARM\\ARMCLANG\\Bin\\..\\include\\libcxx\\__algorithm" "min.h"
	.file	69 "C:\\Keil_v5\\ARM\\ARMCLANG\\Bin\\..\\include\\libcxx\\__algorithm" "max.h"
	.cantunwind
	.fnend
                                        @ -- End function
	.section	.text._ZN3arm3app8Profiler21StopProfilingAndResetEv,"ax",%progbits
	.hidden	_ZN3arm3app8Profiler21StopProfilingAndResetEv @ -- Begin function _ZN3arm3app8Profiler21StopProfilingAndResetEv
	.globl	_ZN3arm3app8Profiler21StopProfilingAndResetEv
	.p2align	2
	.type	_ZN3arm3app8Profiler21StopProfilingAndResetEv,%function
	.code	16                              @ @_ZN3arm3app8Profiler21StopProfilingAndResetEv
	.thumb_func
_ZN3arm3app8Profiler21StopProfilingAndResetEv:
.Lfunc_begin6:
	.loc	1 77 0 is_stmt 1                @ ../../../../ThirdParty/ml-embedded-evaluation-kit/source/profiler/Profiler.cc:77:0
	.fnstart
	.cfi_startproc
@ %bb.0:
	@DEBUG_VALUE: StopProfilingAndReset:this <- $r0
	@DEBUG_VALUE: StopProfiling:this <- $r0
	.save	{r4, r5, r6, r7, lr}
	push	{r4, r5, r6, r7, lr}
	.cfi_def_cfa_offset 20
	.cfi_offset lr, -4
	.cfi_offset r7, -8
	.cfi_offset r6, -12
	.cfi_offset r5, -16
	.cfi_offset r4, -20
	.pad	#332
	sub	sp, #332
	.cfi_def_cfa_offset 352
	mov	r4, r0
.Ltmp324:
	@DEBUG_VALUE: StopProfiling:this <- $r4
	@DEBUG_VALUE: StopProfilingAndReset:this <- $r4
	.loc	1 60 19 prologue_end            @ ../../../../ThirdParty/ml-embedded-evaluation-kit/source/profiler/Profiler.cc:60:19
	ldrb.w	r0, [r0, #352]
.Ltmp325:
	.loc	1 60 13 is_stmt 0               @ ../../../../ThirdParty/ml-embedded-evaluation-kit/source/profiler/Profiler.cc:60:13
	cbz	r0, .LBB6_7
.Ltmp326:
@ %bb.1:
	@DEBUG_VALUE: StopProfilingAndReset:this <- $r4
	@DEBUG_VALUE: StopProfiling:this <- $r4
	.loc	1 61 19 is_stmt 1               @ ../../../../ThirdParty/ml-embedded-evaluation-kit/source/profiler/Profiler.cc:61:19
	add.w	r5, r4, #184
	movs	r6, #0
	.loc	1 62 13                         @ ../../../../ThirdParty/ml-embedded-evaluation-kit/source/profiler/Profiler.cc:62:13
	mov	r0, r5
	.loc	1 61 43                         @ ../../../../ThirdParty/ml-embedded-evaluation-kit/source/profiler/Profiler.cc:61:43
	strb.w	r6, [r4, #348]
	.loc	1 62 13                         @ ../../../../ThirdParty/ml-embedded-evaluation-kit/source/profiler/Profiler.cc:62:13
	bl	pmu_get_counters
.Ltmp327:
	.loc	1 64 35                         @ ../../../../ThirdParty/ml-embedded-evaluation-kit/source/profiler/Profiler.cc:64:35
	ldrb.w	r0, [r4, #348]
.Ltmp328:
	.loc	1 63 29                         @ ../../../../ThirdParty/ml-embedded-evaluation-kit/source/profiler/Profiler.cc:63:29
	strb.w	r6, [r4, #352]
	.loc	1 64 17                         @ ../../../../ThirdParty/ml-embedded-evaluation-kit/source/profiler/Profiler.cc:64:17
	cbz	r0, .LBB6_7
.Ltmp329:
@ %bb.2:
	@DEBUG_VALUE: StopProfilingAndReset:this <- $r4
	@DEBUG_VALUE: StopProfiling:this <- $r4
	.loc	1 68 27                         @ ../../../../ThirdParty/ml-embedded-evaluation-kit/source/profiler/Profiler.cc:68:27
	add.w	r1, r4, #356
	mov	r0, sp
	.loc	1 65 23                         @ ../../../../ThirdParty/ml-embedded-evaluation-kit/source/profiler/Profiler.cc:65:23
	str	r1, [sp, #328]
	add.w	r1, r4, #24
	movs	r2, #160
.Ltmp330:
.LBB6_3:                                @ =>This Inner Loop Header: Depth=1
	@DEBUG_VALUE: StopProfilingAndReset:this <- $r4
	@DEBUG_VALUE: StopProfiling:this <- $r4
	ldr	r3, [r1], #4
	subs	r2, #4
	str	r3, [r0], #4
	bne	.LBB6_3
.Ltmp331:
@ %bb.4:
	@DEBUG_VALUE: StopProfilingAndReset:this <- $r4
	@DEBUG_VALUE: StopProfiling:this <- $r4
	add	r0, sp, #160
	movs	r1, #168
.Ltmp332:
.LBB6_5:                                @ =>This Inner Loop Header: Depth=1
	@DEBUG_VALUE: StopProfilingAndReset:this <- $r4
	@DEBUG_VALUE: StopProfiling:this <- $r4
	ldr	r2, [r5], #4
	subs	r1, #4
	str	r2, [r0], #4
	bne	.LBB6_5
.Ltmp333:
@ %bb.6:
	@DEBUG_VALUE: StopProfilingAndReset:this <- $r4
	@DEBUG_VALUE: StopProfiling:this <- $r4
	mov	r5, r4
	ldr	r3, [r4, #20]
	ldr	r2, [r5, #16]!
	mov	r0, r4
	bl	_ZN3arm3app8Profiler18UpdateRunningStatsE13_pmu_countersS2_RKNSt3__212basic_stringIcNS3_11char_traitsIcEENS3_9allocatorIcEEEE
.Ltmp334:
	.loc	29 1094 59                      @ C:\Keil_v5\ARM\ARMCLANG\Bin\..\include\libcxx\__tree:1094:59
	mov	r6, r4
	movs	r7, #0
.Ltmp335:
	@DEBUG_VALUE: Reset:this <- $r4
	ldr	r1, [r6, #4]!
.Ltmp336:
	.loc	29 1843 5                       @ C:\Keil_v5\ARM\ARMCLANG\Bin\..\include\libcxx\__tree:1843:5
	mov	r0, r4
.Ltmp337:
	.loc	1 88 25                         @ ../../../../ThirdParty/ml-embedded-evaluation-kit/source/profiler/Profiler.cc:88:25
	strb.w	r7, [r4, #352]
.Ltmp338:
	@DEBUG_VALUE: __end_node:this <- $r4
	@DEBUG_VALUE: __root:this <- $r4
	@DEBUG_VALUE: clear:this <- $r4
	@DEBUG_VALUE: clear:this <- $r4
	.loc	29 1843 5                       @ C:\Keil_v5\ARM\ARMCLANG\Bin\..\include\libcxx\__tree:1843:5
	bl	_ZNSt3__26__treeINS_12__value_typeINS_12basic_stringIcNS_11char_traitsIcEENS_9allocatorIcEEEENS_6vectorIN3arm3app10StatisticsENS5_ISB_EEEEEENS_19__map_value_compareIS7_SE_NS_4lessIS7_EELb1EEENS5_ISE_EEE7destroyEPNS_11__tree_nodeISE_PvEE
.Ltmp339:
	@DEBUG_VALUE: size:this <- $r4
	.loc	1 90 9                          @ ../../../../ThirdParty/ml-embedded-evaluation-kit/source/profiler/Profiler.cc:90:9
	mov	r0, r5
	mov.w	r1, #336
.Ltmp340:
	.loc	29 1844 12                      @ C:\Keil_v5\ARM\ARMCLANG\Bin\..\include\libcxx\__tree:1844:12
	str	r7, [r4, #8]
	.loc	29 1845 20                      @ C:\Keil_v5\ARM\ARMCLANG\Bin\..\include\libcxx\__tree:1845:20
	str	r6, [r4]
	.loc	29 1846 27                      @ C:\Keil_v5\ARM\ARMCLANG\Bin\..\include\libcxx\__tree:1846:27
	str	r7, [r6]
.Ltmp341:
	.loc	1 90 9                          @ ../../../../ThirdParty/ml-embedded-evaluation-kit/source/profiler/Profiler.cc:90:9
	bl	__aeabi_memclr8
.Ltmp342:
	.loc	1 0 9 is_stmt 0                 @ ../../../../ThirdParty/ml-embedded-evaluation-kit/source/profiler/Profiler.cc:0:9
	movs	r0, #1
.Ltmp343:
	.loc	1 84 5 is_stmt 1                @ ../../../../ThirdParty/ml-embedded-evaluation-kit/source/profiler/Profiler.cc:84:5
	add	sp, #332
	pop	{r4, r5, r6, r7, pc}
.Ltmp344:
.LBB6_7:
	@DEBUG_VALUE: StopProfilingAndReset:this <- $r4
	@DEBUG_VALUE: StopProfiling:this <- $r4
	.loc	1 72 9                          @ ../../../../ThirdParty/ml-embedded-evaluation-kit/source/profiler/Profiler.cc:72:9
	movw	r5, :lower16:.L.str.1
	movt	r5, :upper16:.L.str.1
	mov	r0, r5
	bl	__2printf
.Ltmp345:
	.loc	2 1509 33                       @ C:\Keil_v5\ARM\ARMCLANG\Bin\..\include\libcxx\string:1509:33
	ldrsb.w	r0, [r4, #367]
.Ltmp346:
	.loc	1 72 9                          @ ../../../../ThirdParty/ml-embedded-evaluation-kit/source/profiler/Profiler.cc:72:9
	movw	r6, :lower16:.L.str.3
	ldr.w	r1, [r4, #356]
	add.w	r7, r4, #356
	@DEBUG_VALUE: __is_long:this <- $r7
.Ltmp347:
	@DEBUG_VALUE: __get_pointer:this <- $r7
	@DEBUG_VALUE: data:this <- $r7
	@DEBUG_VALUE: c_str:this <- $r7
	.loc	2 1630 17                       @ C:\Keil_v5\ARM\ARMCLANG\Bin\..\include\libcxx\string:1630:17
	cmp	r0, #0
.Ltmp348:
	.loc	1 72 9                          @ ../../../../ThirdParty/ml-embedded-evaluation-kit/source/profiler/Profiler.cc:72:9
	movt	r6, :upper16:.L.str.3
.Ltmp349:
	.loc	2 1630 17                       @ C:\Keil_v5\ARM\ARMCLANG\Bin\..\include\libcxx\string:1630:17
	csel	r1, r1, r7, mi
.Ltmp350:
	.loc	1 72 9                          @ ../../../../ThirdParty/ml-embedded-evaluation-kit/source/profiler/Profiler.cc:72:9
	mov	r0, r6
	bl	__2printf
.Ltmp351:
	.loc	1 82 9                          @ ../../../../ThirdParty/ml-embedded-evaluation-kit/source/profiler/Profiler.cc:82:9
	mov	r0, r5
	bl	__2printf
.Ltmp352:
	@DEBUG_VALUE: __is_long:this <- $r7
	@DEBUG_VALUE: __get_pointer:this <- $r7
	@DEBUG_VALUE: data:this <- $r7
	@DEBUG_VALUE: c_str:this <- $r7
	.loc	2 1509 33                       @ C:\Keil_v5\ARM\ARMCLANG\Bin\..\include\libcxx\string:1509:33
	ldrsb.w	r0, [r4, #367]
	ldr.w	r1, [r4, #356]
.Ltmp353:
	.loc	2 1630 17                       @ C:\Keil_v5\ARM\ARMCLANG\Bin\..\include\libcxx\string:1630:17
	cmp	r0, #0
.Ltmp354:
	.loc	1 82 9                          @ ../../../../ThirdParty/ml-embedded-evaluation-kit/source/profiler/Profiler.cc:82:9
	mov	r0, r6
.Ltmp355:
	.loc	2 1630 17                       @ C:\Keil_v5\ARM\ARMCLANG\Bin\..\include\libcxx\string:1630:17
	csel	r1, r1, r7, mi
.Ltmp356:
	.loc	1 82 9                          @ ../../../../ThirdParty/ml-embedded-evaluation-kit/source/profiler/Profiler.cc:82:9
	bl	__2printf
.Ltmp357:
	.loc	1 0 9 is_stmt 0                 @ ../../../../ThirdParty/ml-embedded-evaluation-kit/source/profiler/Profiler.cc:0:9
	movs	r0, #0
	.loc	1 84 5 is_stmt 1                @ ../../../../ThirdParty/ml-embedded-evaluation-kit/source/profiler/Profiler.cc:84:5
	add	sp, #332
	pop	{r4, r5, r6, r7, pc}
.Ltmp358:
.Lfunc_end6:
	.size	_ZN3arm3app8Profiler21StopProfilingAndResetEv, .Lfunc_end6-_ZN3arm3app8Profiler21StopProfilingAndResetEv
	.cfi_endproc
	.cantunwind
	.fnend
                                        @ -- End function
	.section	.text._ZN3arm3app8Profiler5ResetEv,"ax",%progbits
	.hidden	_ZN3arm3app8Profiler5ResetEv    @ -- Begin function _ZN3arm3app8Profiler5ResetEv
	.globl	_ZN3arm3app8Profiler5ResetEv
	.p2align	2
	.type	_ZN3arm3app8Profiler5ResetEv,%function
	.code	16                              @ @_ZN3arm3app8Profiler5ResetEv
	.thumb_func
_ZN3arm3app8Profiler5ResetEv:
.Lfunc_begin7:
	.loc	1 87 0                          @ ../../../../ThirdParty/ml-embedded-evaluation-kit/source/profiler/Profiler.cc:87:0
	.fnstart
	.cfi_startproc
@ %bb.0:
	@DEBUG_VALUE: Reset:this <- $r0
	.save	{r4, r5, r6, lr}
	push	{r4, r5, r6, lr}
	.cfi_def_cfa_offset 16
	.cfi_offset lr, -4
	.cfi_offset r6, -8
	.cfi_offset r5, -12
	.cfi_offset r4, -16
.Ltmp359:
	.loc	29 1094 59 prologue_end         @ C:\Keil_v5\ARM\ARMCLANG\Bin\..\include\libcxx\__tree:1094:59
	mov	r5, r0
	movs	r6, #0
	ldr	r1, [r5, #4]!
	mov	r4, r0
.Ltmp360:
	@DEBUG_VALUE: Reset:this <- $r4
	.loc	1 88 25                         @ ../../../../ThirdParty/ml-embedded-evaluation-kit/source/profiler/Profiler.cc:88:25
	strb.w	r6, [r0, #352]
.Ltmp361:
	@DEBUG_VALUE: __end_node:this <- $r4
	@DEBUG_VALUE: __root:this <- $r4
	@DEBUG_VALUE: clear:this <- $r4
	@DEBUG_VALUE: clear:this <- $r4
	.loc	29 1843 5                       @ C:\Keil_v5\ARM\ARMCLANG\Bin\..\include\libcxx\__tree:1843:5
	bl	_ZNSt3__26__treeINS_12__value_typeINS_12basic_stringIcNS_11char_traitsIcEENS_9allocatorIcEEEENS_6vectorIN3arm3app10StatisticsENS5_ISB_EEEEEENS_19__map_value_compareIS7_SE_NS_4lessIS7_EELb1EEENS5_ISE_EEE7destroyEPNS_11__tree_nodeISE_PvEE
.Ltmp362:
	@DEBUG_VALUE: size:this <- $r4
	.loc	1 90 23                         @ ../../../../ThirdParty/ml-embedded-evaluation-kit/source/profiler/Profiler.cc:90:23
	add.w	r0, r4, #16
	.loc	1 90 9 is_stmt 0                @ ../../../../ThirdParty/ml-embedded-evaluation-kit/source/profiler/Profiler.cc:90:9
	mov.w	r1, #336
.Ltmp363:
	.loc	29 1844 12 is_stmt 1            @ C:\Keil_v5\ARM\ARMCLANG\Bin\..\include\libcxx\__tree:1844:12
	str	r6, [r4, #8]
	.loc	29 1845 20                      @ C:\Keil_v5\ARM\ARMCLANG\Bin\..\include\libcxx\__tree:1845:20
	str	r5, [r4]
	.loc	29 1846 27                      @ C:\Keil_v5\ARM\ARMCLANG\Bin\..\include\libcxx\__tree:1846:27
	str	r6, [r5]
.Ltmp364:
	.loc	1 90 9                          @ ../../../../ThirdParty/ml-embedded-evaluation-kit/source/profiler/Profiler.cc:90:9
	bl	__aeabi_memclr8
.Ltmp365:
	.loc	1 92 5                          @ ../../../../ThirdParty/ml-embedded-evaluation-kit/source/profiler/Profiler.cc:92:5
	pop	{r4, r5, r6, pc}
.Ltmp366:
.Lfunc_end7:
	.size	_ZN3arm3app8Profiler5ResetEv, .Lfunc_end7-_ZN3arm3app8Profiler5ResetEv
	.cfi_endproc
	.cantunwind
	.fnend
                                        @ -- End function
	.section	.text._ZN3arm3app17calcProfilingStatEyRNS0_10StatisticsE,"ax",%progbits
	.hidden	_ZN3arm3app17calcProfilingStatEyRNS0_10StatisticsE @ -- Begin function _ZN3arm3app17calcProfilingStatEyRNS0_10StatisticsE
	.globl	_ZN3arm3app17calcProfilingStatEyRNS0_10StatisticsE
	.p2align	2
	.type	_ZN3arm3app17calcProfilingStatEyRNS0_10StatisticsE,%function
	.code	16                              @ @_ZN3arm3app17calcProfilingStatEyRNS0_10StatisticsE
	.thumb_func
_ZN3arm3app17calcProfilingStatEyRNS0_10StatisticsE:
.Lfunc_begin8:
	.loc	1 96 0                          @ ../../../../ThirdParty/ml-embedded-evaluation-kit/source/profiler/Profiler.cc:96:0
	.fnstart
	.cfi_startproc
@ %bb.0:
	@DEBUG_VALUE: calcProfilingStat:data <- $r2
	.save	{r4, r5, r7, lr}
	push	{r4, r5, r7, lr}
	.cfi_def_cfa_offset 16
	.cfi_offset lr, -4
	.cfi_offset r7, -8
	.cfi_offset r5, -12
	.cfi_offset r4, -16
	mov	r4, r2
.Ltmp367:
	@DEBUG_VALUE: calcProfilingStat:data <- $r4
	.loc	1 97 20 prologue_end            @ ../../../../ThirdParty/ml-embedded-evaluation-kit/source/profiler/Profiler.cc:97:20
	ldrd	r2, r3, [r2, #24]
.Ltmp368:
	@DEBUG_VALUE: calcProfilingStat:currentValue <- [DW_OP_LLVM_fragment 0 32] $r0
	@DEBUG_VALUE: calcProfilingStat:currentValue <- [DW_OP_LLVM_fragment 32 32] $r1
	adds.w	r12, r2, r0
	adc.w	lr, r3, r1
.Ltmp369:
	@DEBUG_VALUE: operator():__x <- undef
	@DEBUG_VALUE: operator():this <- undef
	@DEBUG_VALUE: min<unsigned long long, std::__2::__less<unsigned long long, unsigned long long> >:__b <- undef
	@DEBUG_VALUE: min<unsigned long long>:__b <- undef
	.loc	67 73 73                        @ C:\Keil_v5\ARM\ARMCLANG\Bin\..\include\libcxx\__algorithm/comp.h:73:73
	ldrd	r3, r2, [r4, #40]
.Ltmp370:
	.loc	1 97 20                         @ ../../../../ThirdParty/ml-embedded-evaluation-kit/source/profiler/Profiler.cc:97:20
	strd	r12, lr, [r4, #24]
	@DEBUG_VALUE: operator():__y <- [DW_OP_plus_uconst 40, DW_OP_stack_value] $r4
	@DEBUG_VALUE: min<unsigned long long, std::__2::__less<unsigned long long, unsigned long long> >:__a <- [DW_OP_plus_uconst 40, DW_OP_stack_value] $r4
	@DEBUG_VALUE: min<unsigned long long>:__a <- [DW_OP_plus_uconst 40, DW_OP_stack_value] $r4
	.loc	1 98 20                         @ ../../../../ThirdParty/ml-embedded-evaluation-kit/source/profiler/Profiler.cc:98:20
	cmp	r2, r1
	csel	r5, r3, r0, lo
	cmp	r3, r0
	csel	r3, r3, r0, lo
	cmp	r2, r1
	csel	r3, r3, r5, eq
	csel	r2, r2, r1, lo
	.loc	1 98 18 is_stmt 0               @ ../../../../ThirdParty/ml-embedded-evaluation-kit/source/profiler/Profiler.cc:98:18
	strd	r3, r2, [r4, #40]
.Ltmp371:
	@DEBUG_VALUE: operator():__x <- [DW_OP_plus_uconst 48, DW_OP_stack_value] $r4
	@DEBUG_VALUE: max<unsigned long long, std::__2::__less<unsigned long long, unsigned long long> >:__a <- [DW_OP_plus_uconst 48, DW_OP_stack_value] $r4
	@DEBUG_VALUE: max<unsigned long long>:__a <- [DW_OP_plus_uconst 48, DW_OP_stack_value] $r4
	@DEBUG_VALUE: operator():__y <- undef
	@DEBUG_VALUE: operator():this <- undef
	@DEBUG_VALUE: max<unsigned long long, std::__2::__less<unsigned long long, unsigned long long> >:__b <- undef
	@DEBUG_VALUE: max<unsigned long long>:__b <- undef
	.loc	67 73 67 is_stmt 1              @ C:\Keil_v5\ARM\ARMCLANG\Bin\..\include\libcxx\__algorithm/comp.h:73:67
	ldrd	r3, r2, [r4, #48]
.Ltmp372:
	.loc	1 99 20                         @ ../../../../ThirdParty/ml-embedded-evaluation-kit/source/profiler/Profiler.cc:99:20
	cmp	r2, r1
	csel	r5, r3, r0, hi
	cmp	r3, r0
	csel	r0, r3, r0, hi
.Ltmp373:
	cmp	r2, r1
	csel	r0, r0, r5, eq
	csel	r1, r2, r1, hi
.Ltmp374:
	.loc	1 99 18 is_stmt 0               @ ../../../../ThirdParty/ml-embedded-evaluation-kit/source/profiler/Profiler.cc:99:18
	strd	r0, r1, [r4, #48]
	.loc	1 100 42 is_stmt 1              @ ../../../../ThirdParty/ml-embedded-evaluation-kit/source/profiler/Profiler.cc:100:42
	mov	r0, r12
	mov	r1, lr
	bl	__aeabi_ul2d
.Ltmp375:
	.loc	1 100 56 is_stmt 0              @ ../../../../ThirdParty/ml-embedded-evaluation-kit/source/profiler/Profiler.cc:100:56
	vldr	s0, [r4, #56]
	.loc	1 100 42                        @ ../../../../ThirdParty/ml-embedded-evaluation-kit/source/profiler/Profiler.cc:100:42
	vmov	d1, r0, r1
	.loc	1 100 56                        @ ../../../../ThirdParty/ml-embedded-evaluation-kit/source/profiler/Profiler.cc:100:56
	vcvt.f64.u32	d0, s0
	.loc	1 100 54                        @ ../../../../ThirdParty/ml-embedded-evaluation-kit/source/profiler/Profiler.cc:100:54
	vdiv.f64	d0, d1, d0
	.loc	1 100 19                        @ ../../../../ThirdParty/ml-embedded-evaluation-kit/source/profiler/Profiler.cc:100:19
	vstr	d0, [r4, #32]
	.loc	1 101 5 is_stmt 1               @ ../../../../ThirdParty/ml-embedded-evaluation-kit/source/profiler/Profiler.cc:101:5
	pop	{r4, r5, r7, pc}
.Ltmp376:
.Lfunc_end8:
	.size	_ZN3arm3app17calcProfilingStatEyRNS0_10StatisticsE, .Lfunc_end8-_ZN3arm3app17calcProfilingStatEyRNS0_10StatisticsE
	.cfi_endproc
	.cantunwind
	.fnend
                                        @ -- End function
	.section	.text._ZN3arm3app8Profiler21GetAllResultsAndResetERNSt3__26vectorINS0_13ProfileResultENS2_9allocatorIS4_EEEE,"ax",%progbits
	.hidden	_ZN3arm3app8Profiler21GetAllResultsAndResetERNSt3__26vectorINS0_13ProfileResultENS2_9allocatorIS4_EEEE @ -- Begin function _ZN3arm3app8Profiler21GetAllResultsAndResetERNSt3__26vectorINS0_13ProfileResultENS2_9allocatorIS4_EEEE
	.globl	_ZN3arm3app8Profiler21GetAllResultsAndResetERNSt3__26vectorINS0_13ProfileResultENS2_9allocatorIS4_EEEE
	.p2align	2
	.type	_ZN3arm3app8Profiler21GetAllResultsAndResetERNSt3__26vectorINS0_13ProfileResultENS2_9allocatorIS4_EEEE,%function
	.code	16                              @ @_ZN3arm3app8Profiler21GetAllResultsAndResetERNSt3__26vectorINS0_13ProfileResultENS2_9allocatorIS4_EEEE
	.thumb_func
_ZN3arm3app8Profiler21GetAllResultsAndResetERNSt3__26vectorINS0_13ProfileResultENS2_9allocatorIS4_EEEE:
.Lfunc_begin9:
	.loc	1 104 0                         @ ../../../../ThirdParty/ml-embedded-evaluation-kit/source/profiler/Profiler.cc:104:0
	.fnstart
	.cfi_startproc
@ %bb.0:
	@DEBUG_VALUE: GetAllResultsAndReset:this <- $r0
	@DEBUG_VALUE: GetAllResultsAndReset:results <- $r1
	.save	{r4, r5, r6, r7, r8, r9, r10, r11, lr}
	push.w	{r4, r5, r6, r7, r8, r9, r10, r11, lr}
	.cfi_def_cfa_offset 36
	.cfi_offset lr, -4
	.cfi_offset r11, -8
	.cfi_offset r10, -12
	.cfi_offset r9, -16
	.cfi_offset r8, -20
	.cfi_offset r7, -24
	.cfi_offset r6, -28
	.cfi_offset r5, -32
	.cfi_offset r4, -36
	.pad	#60
	sub	sp, #60
	.cfi_def_cfa_offset 96
	@DEBUG_VALUE: __range2 <- $r0
	str	r0, [sp]                        @ 4-byte Spill
.Ltmp377:
	@DEBUG_VALUE: begin:this <- [$sp+0]
	@DEBUG_VALUE: begin:this <- [$sp+0]
	@DEBUG_VALUE: __range2 <- [$sp+0]
	@DEBUG_VALUE: GetAllResultsAndReset:this <- [$sp+0]
	.loc	29 1128 62 prologue_end         @ C:\Keil_v5\ARM\ARMCLANG\Bin\..\include\libcxx\__tree:1128:62
	ldr	r10, [r0], #4
.Ltmp378:
	@DEBUG_VALUE: __end2 <- $r0
	@DEBUG_VALUE: operator==:__y <- undef
	@DEBUG_VALUE: operator==:__x <- undef
	@DEBUG_VALUE: operator!=:__y <- undef
	@DEBUG_VALUE: operator!=:__x <- undef
	@DEBUG_VALUE: operator!=:__y <- undef
	@DEBUG_VALUE: operator!=:__x <- undef
	@DEBUG_VALUE: __end_node:this <- [$sp+0]
	@DEBUG_VALUE: end:this <- [$sp+0]
	@DEBUG_VALUE: end:this <- [$sp+0]
	@DEBUG_VALUE: __begin2 <- $r10
	.loc	1 105 30                        @ ../../../../ThirdParty/ml-embedded-evaluation-kit/source/profiler/Profiler.cc:105:30
	cmp	r10, r0
	@DEBUG_VALUE: GetAllResultsAndReset:results <- $r1
	str	r0, [sp, #4]                    @ 4-byte Spill
.Ltmp379:
	@DEBUG_VALUE: __end2 <- [DW_OP_plus_uconst 4] [$sp+0]
	@DEBUG_VALUE: __end2 <- [DW_OP_plus_uconst 4] [$sp+0]
	beq.w	.LBB9_58
.Ltmp380:
@ %bb.1:
	@DEBUG_VALUE: __end2 <- [DW_OP_plus_uconst 4] [$sp+0]
	@DEBUG_VALUE: __begin2 <- $r10
	@DEBUG_VALUE: end:this <- [$sp+0]
	@DEBUG_VALUE: end:this <- [$sp+0]
	@DEBUG_VALUE: __end_node:this <- [$sp+0]
	@DEBUG_VALUE: GetAllResultsAndReset:this <- [$sp+0]
	@DEBUG_VALUE: __range2 <- [$sp+0]
	@DEBUG_VALUE: begin:this <- [$sp+0]
	@DEBUG_VALUE: begin:this <- [$sp+0]
	@DEBUG_VALUE: GetAllResultsAndReset:results <- $r1
	.loc	1 0 30 is_stmt 0                @ ../../../../ThirdParty/ml-embedded-evaluation-kit/source/profiler/Profiler.cc:0:30
	add	r0, sp, #8
	mov	r8, r1
.Ltmp381:
	@DEBUG_VALUE: GetAllResultsAndReset:results <- $r8
	@DEBUG_VALUE: GetAllResultsAndReset:results <- $r8
	add.w	r9, r0, #16
	b	.LBB9_4
.Ltmp382:
.LBB9_2:                                @   in Loop: Header=BB9_4 Depth=1
	@DEBUG_VALUE: __tree_is_left_child<std::__2::__tree_node_base<void *> *>:__x <- $r10
	@DEBUG_VALUE: __tree_next_iter<std::__2::__tree_end_node<std::__2::__tree_node_base<void *> *> *, std::__2::__tree_node_base<void *> *>:__x <- $r10
	@DEBUG_VALUE: GetAllResultsAndReset:results <- $r8
	@DEBUG_VALUE: __end2 <- [DW_OP_plus_uconst 4] [$sp+0]
	@DEBUG_VALUE: GetAllResultsAndReset:this <- [$sp+0]
	@DEBUG_VALUE: __range2 <- [$sp+0]
	mov	r10, r0
.Ltmp383:
	.p2align	2
.LBB9_3:                                @   in Loop: Header=BB9_4 Depth=1
	@DEBUG_VALUE: GetAllResultsAndReset:results <- $r8
	@DEBUG_VALUE: __end2 <- [DW_OP_plus_uconst 4] [$sp+0]
	@DEBUG_VALUE: GetAllResultsAndReset:this <- [$sp+0]
	@DEBUG_VALUE: __range2 <- [$sp+0]
	@DEBUG_VALUE: __begin2 <- $r10
	@DEBUG_VALUE: operator!=:__x <- undef
	@DEBUG_VALUE: operator!=:__y <- undef
	@DEBUG_VALUE: operator!=:__x <- undef
	@DEBUG_VALUE: operator!=:__y <- undef
	@DEBUG_VALUE: operator==:__x <- undef
	@DEBUG_VALUE: operator==:__y <- undef
	.loc	1 105 30                        @ ../../../../ThirdParty/ml-embedded-evaluation-kit/source/profiler/Profiler.cc:105:30
	ldr	r0, [sp, #4]                    @ 4-byte Reload
	cmp	r10, r0
	beq.w	.LBB9_58
.Ltmp384:
.LBB9_4:                                @ =>This Loop Header: Depth=1
                                        @     Child Loop BB9_13 Depth 2
                                        @     Child Loop BB9_30 Depth 2
                                        @     Child Loop BB9_41 Depth 2
                                        @     Child Loop BB9_50 Depth 2
                                        @     Child Loop BB9_54 Depth 2
	@DEBUG_VALUE: GetAllResultsAndReset:results <- $r8
	@DEBUG_VALUE: __end2 <- [DW_OP_plus_uconst 4] [$sp+0]
	@DEBUG_VALUE: __begin2 <- $r10
	@DEBUG_VALUE: GetAllResultsAndReset:this <- [$sp+0]
	@DEBUG_VALUE: __range2 <- [$sp+0]
	@DEBUG_VALUE: __begin2 <- $r10
	@DEBUG_VALUE: operator*:this <- undef
	@DEBUG_VALUE: operator->:this <- undef
	.loc	2 1509 33 is_stmt 1             @ C:\Keil_v5\ARM\ARMCLANG\Bin\..\include\libcxx\string:1509:33
	ldrsb.w	r0, [r10, #27]
.Ltmp385:
	.loc	29 852 65                       @ C:\Keil_v5\ARM\ARMCLANG\Bin\..\include\libcxx\__tree:852:65
	add.w	r4, r10, #16
.Ltmp386:
	@DEBUG_VALUE: __is_long:this <- $r4
	@DEBUG_VALUE: basic_string:__str <- $r4
	@DEBUG_VALUE: basic_string:this <- [DW_OP_plus_uconst 48, DW_OP_stack_value] $sp
	@DEBUG_VALUE: item <- $r4
	.loc	2 2017 9                        @ C:\Keil_v5\ARM\ARMCLANG\Bin\..\include\libcxx\string:2017:9
	cmp	r0, #0
	bmi	.LBB9_6
.Ltmp387:
@ %bb.5:                                @   in Loop: Header=BB9_4 Depth=1
	@DEBUG_VALUE: item <- $r4
	@DEBUG_VALUE: basic_string:this <- [DW_OP_plus_uconst 48, DW_OP_stack_value] $sp
	@DEBUG_VALUE: basic_string:__str <- $r4
	@DEBUG_VALUE: GetAllResultsAndReset:results <- $r8
	@DEBUG_VALUE: __end2 <- [DW_OP_plus_uconst 4] [$sp+0]
	@DEBUG_VALUE: __begin2 <- $r10
	@DEBUG_VALUE: GetAllResultsAndReset:this <- [$sp+0]
	@DEBUG_VALUE: __range2 <- [$sp+0]
	.loc	2 2018 22                       @ C:\Keil_v5\ARM\ARMCLANG\Bin\..\include\libcxx\string:2018:22
	ldrd	r0, r2, [r4]
	ldr	r1, [r4, #8]
	str	r1, [sp, #56]
	strd	r0, r2, [sp, #48]
	b	.LBB9_7
.Ltmp388:
	.p2align	2
.LBB9_6:                                @   in Loop: Header=BB9_4 Depth=1
	@DEBUG_VALUE: item <- $r4
	@DEBUG_VALUE: basic_string:this <- [DW_OP_plus_uconst 48, DW_OP_stack_value] $sp
	@DEBUG_VALUE: basic_string:__str <- $r4
	@DEBUG_VALUE: GetAllResultsAndReset:results <- $r8
	@DEBUG_VALUE: __end2 <- [DW_OP_plus_uconst 4] [$sp+0]
	@DEBUG_VALUE: __begin2 <- $r10
	@DEBUG_VALUE: GetAllResultsAndReset:this <- [$sp+0]
	@DEBUG_VALUE: __range2 <- [$sp+0]
	@DEBUG_VALUE: __get_long_pointer:this <- $r4
	@DEBUG_VALUE: __get_long_size:this <- [DW_OP_plus_uconst 16, DW_OP_stack_value] $r10
	.loc	2 1618 34                       @ C:\Keil_v5\ARM\ARMCLANG\Bin\..\include\libcxx\string:1618:34
	ldrd	r1, r2, [r10, #16]
.Ltmp389:
	.loc	2 2020 9                        @ C:\Keil_v5\ARM\ARMCLANG\Bin\..\include\libcxx\string:2020:9
	add	r0, sp, #48
	bl	_ZNSt3__212basic_stringIcNS_11char_traitsIcEENS_9allocatorIcEEE25__init_copy_ctor_externalEPKcj
.Ltmp390:
.LBB9_7:                                @   in Loop: Header=BB9_4 Depth=1
	@DEBUG_VALUE: item <- $r4
	@DEBUG_VALUE: GetAllResultsAndReset:results <- $r8
	@DEBUG_VALUE: __end2 <- [DW_OP_plus_uconst 4] [$sp+0]
	@DEBUG_VALUE: __begin2 <- $r10
	@DEBUG_VALUE: GetAllResultsAndReset:this <- [$sp+0]
	@DEBUG_VALUE: __range2 <- [$sp+0]
	.loc	1 107 51                        @ ../../../../ThirdParty/ml-embedded-evaluation-kit/source/profiler/Profiler.cc:107:51
	add.w	r1, r10, #28
	.loc	1 107 46 is_stmt 0              @ ../../../../ThirdParty/ml-embedded-evaluation-kit/source/profiler/Profiler.cc:107:46
	add	r0, sp, #36
	bl	_ZNSt3__26vectorIN3arm3app10StatisticsENS_9allocatorIS3_EEEC2ERKS6_
.Ltmp391:
	@DEBUG_VALUE: __compressed_pair_elem<std::nullptr_t, void>:__u <- undef
	@DEBUG_VALUE: __compressed_pair_elem<std::nullptr_t, void>:this <- [DW_OP_plus_uconst 8, DW_OP_plus_uconst 24, DW_OP_stack_value] $sp
	@DEBUG_VALUE: __compressed_pair<std::nullptr_t, std::__2::__default_init_tag>:__t2 <- undef
	@DEBUG_VALUE: __compressed_pair<std::nullptr_t, std::__2::__default_init_tag>:__t1 <- undef
	@DEBUG_VALUE: __compressed_pair<std::nullptr_t, std::__2::__default_init_tag>:this <- [DW_OP_plus_uconst 8, DW_OP_plus_uconst 24, DW_OP_stack_value] $sp
	@DEBUG_VALUE: vector:this <- $r9
	@DEBUG_VALUE: __default_init:this <- [DW_OP_plus_uconst 8, DW_OP_stack_value] $sp
	@DEBUG_VALUE: basic_string:this <- [DW_OP_plus_uconst 8, DW_OP_stack_value] $sp
	.loc	2 2501 7 is_stmt 1              @ C:\Keil_v5\ARM\ARMCLANG\Bin\..\include\libcxx\string:2501:7
	add	r0, sp, #8
.Ltmp392:
	@DEBUG_VALUE: operator=:__str <- $r4
	@DEBUG_VALUE: operator=:this <- [DW_OP_plus_uconst 8, DW_OP_stack_value] $sp
	.loc	2 0 7 is_stmt 0                 @ C:\Keil_v5\ARM\ARMCLANG\Bin\..\include\libcxx\string:0:7
	movs	r1, #0
	.loc	2 2501 7                        @ C:\Keil_v5\ARM\ARMCLANG\Bin\..\include\libcxx\string:2501:7
	cmp	r0, r4
.Ltmp393:
	.loc	1 108 33 is_stmt 1              @ ../../../../ThirdParty/ml-embedded-evaluation-kit/source/profiler/Profiler.cc:108:33
	strd	r1, r1, [sp, #28]
	strd	r1, r1, [sp, #20]
	strd	r1, r1, [sp, #12]
	str	r1, [sp, #8]
	@DEBUG_VALUE: operator=:this <- [DW_OP_plus_uconst 8, DW_OP_stack_value] $sp
.Ltmp394:
	.loc	2 2501 7                        @ C:\Keil_v5\ARM\ARMCLANG\Bin\..\include\libcxx\string:2501:7
	beq	.LBB9_11
.Ltmp395:
@ %bb.8:                                @   in Loop: Header=BB9_4 Depth=1
	@DEBUG_VALUE: operator=:this <- [DW_OP_plus_uconst 8, DW_OP_stack_value] $sp
	@DEBUG_VALUE: operator=:__str <- $r4
	@DEBUG_VALUE: item <- $r4
	@DEBUG_VALUE: GetAllResultsAndReset:results <- $r8
	@DEBUG_VALUE: __end2 <- [DW_OP_plus_uconst 4] [$sp+0]
	@DEBUG_VALUE: __begin2 <- $r10
	@DEBUG_VALUE: GetAllResultsAndReset:this <- [$sp+0]
	@DEBUG_VALUE: __range2 <- [$sp+0]
	@DEBUG_VALUE: __is_long:this <- [DW_OP_plus_uconst 8, DW_OP_stack_value] $sp
	.loc	2 0 0 is_stmt 0                 @ C:\Keil_v5\ARM\ARMCLANG\Bin\..\include\libcxx\string:0:0
	ldrsb.w	r0, [r10, #27]
.Ltmp396:
	@DEBUG_VALUE: __is_long:this <- $r4
	.loc	2 2504 11 is_stmt 1             @ C:\Keil_v5\ARM\ARMCLANG\Bin\..\include\libcxx\string:2504:11
	cmp	r0, #0
	bmi	.LBB9_10
.Ltmp397:
@ %bb.9:                                @   in Loop: Header=BB9_4 Depth=1
	@DEBUG_VALUE: operator=:this <- [DW_OP_plus_uconst 8, DW_OP_stack_value] $sp
	@DEBUG_VALUE: operator=:__str <- $r4
	@DEBUG_VALUE: item <- $r4
	@DEBUG_VALUE: GetAllResultsAndReset:results <- $r8
	@DEBUG_VALUE: __end2 <- [DW_OP_plus_uconst 4] [$sp+0]
	@DEBUG_VALUE: __begin2 <- $r10
	@DEBUG_VALUE: GetAllResultsAndReset:this <- [$sp+0]
	@DEBUG_VALUE: __range2 <- [$sp+0]
	.loc	2 2505 22                       @ C:\Keil_v5\ARM\ARMCLANG\Bin\..\include\libcxx\string:2505:22
	ldrd	r0, r2, [r4]
	ldr	r1, [r4, #8]
	str	r1, [sp, #16]
	strd	r0, r2, [sp, #8]
	b	.LBB9_11
.Ltmp398:
	.p2align	2
.LBB9_10:                               @   in Loop: Header=BB9_4 Depth=1
	@DEBUG_VALUE: operator=:this <- [DW_OP_plus_uconst 8, DW_OP_stack_value] $sp
	@DEBUG_VALUE: operator=:__str <- $r4
	@DEBUG_VALUE: item <- $r4
	@DEBUG_VALUE: GetAllResultsAndReset:results <- $r8
	@DEBUG_VALUE: __end2 <- [DW_OP_plus_uconst 4] [$sp+0]
	@DEBUG_VALUE: __begin2 <- $r10
	@DEBUG_VALUE: GetAllResultsAndReset:this <- [$sp+0]
	@DEBUG_VALUE: __range2 <- [$sp+0]
	@DEBUG_VALUE: __is_long:this <- undef
	@DEBUG_VALUE: __is_long:this <- [DW_OP_plus_uconst 16, DW_OP_stack_value] $r10
	@DEBUG_VALUE: size:this <- [DW_OP_plus_uconst 16, DW_OP_stack_value] $r10
	.loc	2 0 22 is_stmt 0                @ C:\Keil_v5\ARM\ARMCLANG\Bin\..\include\libcxx\string:0:22
	ldrd	r1, r2, [r10, #16]
.Ltmp399:
	.loc	2 2507 16 is_stmt 1             @ C:\Keil_v5\ARM\ARMCLANG\Bin\..\include\libcxx\string:2507:16
	add	r0, sp, #8
	bl	_ZNSt3__212basic_stringIcNS_11char_traitsIcEENS_9allocatorIcEEE17__assign_no_aliasILb1EEERS5_PKcj
.Ltmp400:
.LBB9_11:                               @   in Loop: Header=BB9_4 Depth=1
	@DEBUG_VALUE: item <- $r4
	@DEBUG_VALUE: GetAllResultsAndReset:results <- $r8
	@DEBUG_VALUE: __end2 <- [DW_OP_plus_uconst 4] [$sp+0]
	@DEBUG_VALUE: __begin2 <- $r10
	@DEBUG_VALUE: GetAllResultsAndReset:this <- [$sp+0]
	@DEBUG_VALUE: __range2 <- [$sp+0]
	@DEBUG_VALUE: __range3 <- [DW_OP_plus_uconst 36, DW_OP_stack_value] $sp
	@DEBUG_VALUE: begin:this <- [DW_OP_plus_uconst 36, DW_OP_stack_value] $sp
	@DEBUG_VALUE: end:this <- [DW_OP_plus_uconst 36, DW_OP_stack_value] $sp
	@DEBUG_VALUE: __begin3 <- $r4
	.loc	3 1421 33                       @ C:\Keil_v5\ARM\ARMCLANG\Bin\..\include\libcxx\vector:1421:33
	ldrd	r4, r11, [sp, #36]
.Ltmp401:
	@DEBUG_VALUE: operator==<arm::app::Statistics *>:__y <- undef
	@DEBUG_VALUE: operator==<arm::app::Statistics *>:__x <- undef
	@DEBUG_VALUE: operator!=<arm::app::Statistics *>:__y <- undef
	@DEBUG_VALUE: operator!=<arm::app::Statistics *>:__x <- undef
	@DEBUG_VALUE: __end3 <- $r11
	.loc	1 111 35                        @ ../../../../ThirdParty/ml-embedded-evaluation-kit/source/profiler/Profiler.cc:111:35
	cmp	r4, r11
	bne	.LBB9_13
	b	.LBB9_21
.Ltmp402:
	.p2align	2
.LBB9_12:                               @   in Loop: Header=BB9_13 Depth=2
	@DEBUG_VALUE: emplace_back<arm::app::Statistics &>:this <- $r9
	@DEBUG_VALUE: emplace_back<arm::app::Statistics &>:__args <- $r4
	@DEBUG_VALUE: stat <- $r4
	@DEBUG_VALUE: __end3 <- $r11
	@DEBUG_VALUE: __begin3 <- $r4
	@DEBUG_VALUE: __range3 <- [DW_OP_plus_uconst 36, DW_OP_stack_value] $sp
	@DEBUG_VALUE: GetAllResultsAndReset:results <- $r8
	@DEBUG_VALUE: __end2 <- [DW_OP_plus_uconst 4] [$sp+0]
	@DEBUG_VALUE: __begin2 <- $r10
	@DEBUG_VALUE: GetAllResultsAndReset:this <- [$sp+0]
	@DEBUG_VALUE: __range2 <- [$sp+0]
	.loc	3 1601 9                        @ C:\Keil_v5\ARM\ARMCLANG\Bin\..\include\libcxx\vector:1601:9
	mov	r0, r9
	mov	r1, r4
	bl	_ZNSt3__26vectorIN3arm3app10StatisticsENS_9allocatorIS3_EEE24__emplace_back_slow_pathIJRS3_EEEvDpOT_
.Ltmp403:
	@DEBUG_VALUE: operator++:this <- undef
	.loc	18 100 9                        @ C:\Keil_v5\ARM\ARMCLANG\Bin\..\include\libcxx\__iterator/wrap_iter.h:100:9
	adds	r4, #64
.Ltmp404:
	@DEBUG_VALUE: operator==<arm::app::Statistics *>:__y <- undef
	@DEBUG_VALUE: operator==<arm::app::Statistics *>:__x <- undef
	@DEBUG_VALUE: operator!=<arm::app::Statistics *>:__y <- undef
	@DEBUG_VALUE: operator!=<arm::app::Statistics *>:__x <- undef
	@DEBUG_VALUE: __begin3 <- $r4
	.loc	1 111 35                        @ ../../../../ThirdParty/ml-embedded-evaluation-kit/source/profiler/Profiler.cc:111:35
	cmp	r4, r11
	beq	.LBB9_21
.Ltmp405:
.LBB9_13:                               @   Parent Loop BB9_4 Depth=1
                                        @ =>  This Inner Loop Header: Depth=2
	@DEBUG_VALUE: __end3 <- $r11
	@DEBUG_VALUE: __range3 <- [DW_OP_plus_uconst 36, DW_OP_stack_value] $sp
	@DEBUG_VALUE: GetAllResultsAndReset:results <- $r8
	@DEBUG_VALUE: __end2 <- [DW_OP_plus_uconst 4] [$sp+0]
	@DEBUG_VALUE: __begin2 <- $r10
	@DEBUG_VALUE: GetAllResultsAndReset:this <- [$sp+0]
	@DEBUG_VALUE: __range2 <- [$sp+0]
	@DEBUG_VALUE: __begin3 <- $r4
	@DEBUG_VALUE: stat <- $r4
	.loc	3 1596 15                       @ C:\Keil_v5\ARM\ARMCLANG\Bin\..\include\libcxx\vector:1596:15
	ldrd	r6, r0, [sp, #28]
.Ltmp406:
	.loc	1 112 42                        @ ../../../../ThirdParty/ml-embedded-evaluation-kit/source/profiler/Profiler.cc:112:42
	ldr	r1, [r4, #56]
	.loc	1 112 35 is_stmt 0              @ ../../../../ThirdParty/ml-embedded-evaluation-kit/source/profiler/Profiler.cc:112:35
	str	r1, [sp, #20]
.Ltmp407:
	@DEBUG_VALUE: emplace_back<arm::app::Statistics &>:__args <- $r4
	@DEBUG_VALUE: emplace_back<arm::app::Statistics &>:this <- $r9
	.loc	3 1596 9 is_stmt 1              @ C:\Keil_v5\ARM\ARMCLANG\Bin\..\include\libcxx\vector:1596:9
	cmp	r6, r0
	bhs	.LBB9_12
.Ltmp408:
@ %bb.14:                               @   in Loop: Header=BB9_13 Depth=2
	@DEBUG_VALUE: emplace_back<arm::app::Statistics &>:this <- $r9
	@DEBUG_VALUE: emplace_back<arm::app::Statistics &>:__args <- $r4
	@DEBUG_VALUE: stat <- $r4
	@DEBUG_VALUE: __end3 <- $r11
	@DEBUG_VALUE: __begin3 <- $r4
	@DEBUG_VALUE: __range3 <- [DW_OP_plus_uconst 36, DW_OP_stack_value] $sp
	@DEBUG_VALUE: GetAllResultsAndReset:results <- $r8
	@DEBUG_VALUE: __end2 <- [DW_OP_plus_uconst 4] [$sp+0]
	@DEBUG_VALUE: __begin2 <- $r10
	@DEBUG_VALUE: GetAllResultsAndReset:this <- [$sp+0]
	@DEBUG_VALUE: __range2 <- [$sp+0]
	@DEBUG_VALUE: __construct_one_at_end<arm::app::Statistics &>:this <- $r9
	@DEBUG_VALUE: __construct_one_at_end<arm::app::Statistics &>:__args <- $r4
	@DEBUG_VALUE: __construct_one_at_end<arm::app::Statistics &>:__tx <- [DW_OP_LLVM_fragment 0 32] $r9
	@DEBUG_VALUE: __construct_one_at_end<arm::app::Statistics &>:__tx <- [DW_OP_LLVM_fragment 32 32] $r6
	@DEBUG_VALUE: __construct_one_at_end<arm::app::Statistics &>:__tx <- [DW_OP_plus_uconst 64, DW_OP_stack_value, DW_OP_LLVM_fragment 64 32] $r6
	@DEBUG_VALUE: construct<arm::app::Statistics, arm::app::Statistics &, void>:__a <- [DW_OP_plus_uconst 8, DW_OP_stack_value] $r9
	@DEBUG_VALUE: construct<arm::app::Statistics, arm::app::Statistics &, void>:__p <- $r6
	@DEBUG_VALUE: construct<arm::app::Statistics, arm::app::Statistics &, void>:__args <- $r4
	@DEBUG_VALUE: construct<arm::app::Statistics, arm::app::Statistics &>:this <- [DW_OP_plus_uconst 8, DW_OP_stack_value] $r9
	@DEBUG_VALUE: construct<arm::app::Statistics, arm::app::Statistics &>:__p <- $r6
	@DEBUG_VALUE: construct<arm::app::Statistics, arm::app::Statistics &>:__args <- $r4
	@DEBUG_VALUE: Statistics:this <- $r6
	@DEBUG_VALUE: Statistics: <- $r4
	@DEBUG_VALUE: basic_string:this <- $r6
	@DEBUG_VALUE: basic_string:__str <- $r4
	@DEBUG_VALUE: __is_long:this <- $r4
	.loc	2 1509 33                       @ C:\Keil_v5\ARM\ARMCLANG\Bin\..\include\libcxx\string:1509:33
	ldrsb.w	r0, [r4, #11]
.Ltmp409:
	.loc	2 2017 9                        @ C:\Keil_v5\ARM\ARMCLANG\Bin\..\include\libcxx\string:2017:9
	cmp	r0, #0
	bmi	.LBB9_16
.Ltmp410:
@ %bb.15:                               @   in Loop: Header=BB9_13 Depth=2
	@DEBUG_VALUE: basic_string:__str <- $r4
	@DEBUG_VALUE: basic_string:this <- $r6
	@DEBUG_VALUE: Statistics: <- $r4
	@DEBUG_VALUE: Statistics:this <- $r6
	@DEBUG_VALUE: construct<arm::app::Statistics, arm::app::Statistics &>:__args <- $r4
	@DEBUG_VALUE: construct<arm::app::Statistics, arm::app::Statistics &>:__p <- $r6
	@DEBUG_VALUE: construct<arm::app::Statistics, arm::app::Statistics &>:this <- [DW_OP_plus_uconst 8, DW_OP_stack_value] $r9
	@DEBUG_VALUE: construct<arm::app::Statistics, arm::app::Statistics &, void>:__args <- $r4
	@DEBUG_VALUE: construct<arm::app::Statistics, arm::app::Statistics &, void>:__p <- $r6
	@DEBUG_VALUE: construct<arm::app::Statistics, arm::app::Statistics &, void>:__a <- [DW_OP_plus_uconst 8, DW_OP_stack_value] $r9
	@DEBUG_VALUE: __construct_one_at_end<arm::app::Statistics &>:__tx <- [DW_OP_plus_uconst 64, DW_OP_stack_value, DW_OP_LLVM_fragment 64 32] $r6
	@DEBUG_VALUE: __construct_one_at_end<arm::app::Statistics &>:__tx <- [DW_OP_LLVM_fragment 32 32] $r6
	@DEBUG_VALUE: __construct_one_at_end<arm::app::Statistics &>:__tx <- [DW_OP_LLVM_fragment 0 32] $r9
	@DEBUG_VALUE: __construct_one_at_end<arm::app::Statistics &>:__args <- $r4
	@DEBUG_VALUE: __construct_one_at_end<arm::app::Statistics &>:this <- $r9
	@DEBUG_VALUE: emplace_back<arm::app::Statistics &>:this <- $r9
	@DEBUG_VALUE: emplace_back<arm::app::Statistics &>:__args <- $r4
	@DEBUG_VALUE: stat <- $r4
	@DEBUG_VALUE: __end3 <- $r11
	@DEBUG_VALUE: __begin3 <- $r4
	@DEBUG_VALUE: __range3 <- [DW_OP_plus_uconst 36, DW_OP_stack_value] $sp
	@DEBUG_VALUE: GetAllResultsAndReset:results <- $r8
	@DEBUG_VALUE: __end2 <- [DW_OP_plus_uconst 4] [$sp+0]
	@DEBUG_VALUE: __begin2 <- $r10
	@DEBUG_VALUE: GetAllResultsAndReset:this <- [$sp+0]
	@DEBUG_VALUE: __range2 <- [$sp+0]
	.loc	2 2018 22                       @ C:\Keil_v5\ARM\ARMCLANG\Bin\..\include\libcxx\string:2018:22
	ldm.w	r4, {r0, r1, r2}
	stm.w	r6, {r0, r1, r2}
	b	.LBB9_17
.Ltmp411:
.LBB9_16:                               @   in Loop: Header=BB9_13 Depth=2
	@DEBUG_VALUE: basic_string:__str <- $r4
	@DEBUG_VALUE: basic_string:this <- $r6
	@DEBUG_VALUE: Statistics: <- $r4
	@DEBUG_VALUE: Statistics:this <- $r6
	@DEBUG_VALUE: construct<arm::app::Statistics, arm::app::Statistics &>:__args <- $r4
	@DEBUG_VALUE: construct<arm::app::Statistics, arm::app::Statistics &>:__p <- $r6
	@DEBUG_VALUE: construct<arm::app::Statistics, arm::app::Statistics &>:this <- [DW_OP_plus_uconst 8, DW_OP_stack_value] $r9
	@DEBUG_VALUE: construct<arm::app::Statistics, arm::app::Statistics &, void>:__args <- $r4
	@DEBUG_VALUE: construct<arm::app::Statistics, arm::app::Statistics &, void>:__p <- $r6
	@DEBUG_VALUE: construct<arm::app::Statistics, arm::app::Statistics &, void>:__a <- [DW_OP_plus_uconst 8, DW_OP_stack_value] $r9
	@DEBUG_VALUE: __construct_one_at_end<arm::app::Statistics &>:__tx <- [DW_OP_plus_uconst 64, DW_OP_stack_value, DW_OP_LLVM_fragment 64 32] $r6
	@DEBUG_VALUE: __construct_one_at_end<arm::app::Statistics &>:__tx <- [DW_OP_LLVM_fragment 32 32] $r6
	@DEBUG_VALUE: __construct_one_at_end<arm::app::Statistics &>:__tx <- [DW_OP_LLVM_fragment 0 32] $r9
	@DEBUG_VALUE: __construct_one_at_end<arm::app::Statistics &>:__args <- $r4
	@DEBUG_VALUE: __construct_one_at_end<arm::app::Statistics &>:this <- $r9
	@DEBUG_VALUE: emplace_back<arm::app::Statistics &>:this <- $r9
	@DEBUG_VALUE: emplace_back<arm::app::Statistics &>:__args <- $r4
	@DEBUG_VALUE: stat <- $r4
	@DEBUG_VALUE: __end3 <- $r11
	@DEBUG_VALUE: __begin3 <- $r4
	@DEBUG_VALUE: __range3 <- [DW_OP_plus_uconst 36, DW_OP_stack_value] $sp
	@DEBUG_VALUE: GetAllResultsAndReset:results <- $r8
	@DEBUG_VALUE: __end2 <- [DW_OP_plus_uconst 4] [$sp+0]
	@DEBUG_VALUE: __begin2 <- $r10
	@DEBUG_VALUE: GetAllResultsAndReset:this <- [$sp+0]
	@DEBUG_VALUE: __range2 <- [$sp+0]
	@DEBUG_VALUE: __get_long_pointer:this <- $r4
	@DEBUG_VALUE: __get_long_size:this <- $r4
	.loc	2 1618 34                       @ C:\Keil_v5\ARM\ARMCLANG\Bin\..\include\libcxx\string:1618:34
	ldrd	r1, r2, [r4]
.Ltmp412:
	.loc	2 2020 9                        @ C:\Keil_v5\ARM\ARMCLANG\Bin\..\include\libcxx\string:2020:9
	mov	r0, r6
	bl	_ZNSt3__212basic_stringIcNS_11char_traitsIcEENS_9allocatorIcEEE25__init_copy_ctor_externalEPKcj
.Ltmp413:
.LBB9_17:                               @   in Loop: Header=BB9_13 Depth=2
	@DEBUG_VALUE: Statistics: <- $r4
	@DEBUG_VALUE: Statistics:this <- $r6
	@DEBUG_VALUE: construct<arm::app::Statistics, arm::app::Statistics &>:__args <- $r4
	@DEBUG_VALUE: construct<arm::app::Statistics, arm::app::Statistics &>:__p <- $r6
	@DEBUG_VALUE: construct<arm::app::Statistics, arm::app::Statistics &>:this <- [DW_OP_plus_uconst 8, DW_OP_stack_value] $r9
	@DEBUG_VALUE: construct<arm::app::Statistics, arm::app::Statistics &, void>:__args <- $r4
	@DEBUG_VALUE: construct<arm::app::Statistics, arm::app::Statistics &, void>:__p <- $r6
	@DEBUG_VALUE: construct<arm::app::Statistics, arm::app::Statistics &, void>:__a <- [DW_OP_plus_uconst 8, DW_OP_stack_value] $r9
	@DEBUG_VALUE: __construct_one_at_end<arm::app::Statistics &>:__tx <- [DW_OP_plus_uconst 64, DW_OP_stack_value, DW_OP_LLVM_fragment 64 32] $r6
	@DEBUG_VALUE: __construct_one_at_end<arm::app::Statistics &>:__tx <- [DW_OP_LLVM_fragment 32 32] $r6
	@DEBUG_VALUE: __construct_one_at_end<arm::app::Statistics &>:__tx <- [DW_OP_LLVM_fragment 0 32] $r9
	@DEBUG_VALUE: __construct_one_at_end<arm::app::Statistics &>:__args <- $r4
	@DEBUG_VALUE: __construct_one_at_end<arm::app::Statistics &>:this <- $r9
	@DEBUG_VALUE: emplace_back<arm::app::Statistics &>:this <- $r9
	@DEBUG_VALUE: emplace_back<arm::app::Statistics &>:__args <- $r4
	@DEBUG_VALUE: stat <- $r4
	@DEBUG_VALUE: __end3 <- $r11
	@DEBUG_VALUE: __begin3 <- $r4
	@DEBUG_VALUE: __range3 <- [DW_OP_plus_uconst 36, DW_OP_stack_value] $sp
	@DEBUG_VALUE: GetAllResultsAndReset:results <- $r8
	@DEBUG_VALUE: __end2 <- [DW_OP_plus_uconst 4] [$sp+0]
	@DEBUG_VALUE: __begin2 <- $r10
	@DEBUG_VALUE: GetAllResultsAndReset:this <- [$sp+0]
	@DEBUG_VALUE: __range2 <- [$sp+0]
	.loc	2 1509 33                       @ C:\Keil_v5\ARM\ARMCLANG\Bin\..\include\libcxx\string:1509:33
	ldrsb.w	r0, [r4, #23]
.Ltmp414:
	.loc	2 2017 9                        @ C:\Keil_v5\ARM\ARMCLANG\Bin\..\include\libcxx\string:2017:9
	cmp	r0, #0
.Ltmp415:
	.loc	15 31 12                        @ ../../../../ThirdParty/ml-embedded-evaluation-kit/source/profiler/include\Profiler.hpp:31:12
	add.w	r0, r6, #12
	@DEBUG_VALUE: __is_long:this <- [DW_OP_plus_uconst 12, DW_OP_stack_value] $r4
.Ltmp416:
	@DEBUG_VALUE: basic_string:__str <- [DW_OP_plus_uconst 12, DW_OP_stack_value] $r4
	@DEBUG_VALUE: basic_string:this <- $r0
	.loc	2 2017 9                        @ C:\Keil_v5\ARM\ARMCLANG\Bin\..\include\libcxx\string:2017:9
	bmi	.LBB9_19
.Ltmp417:
@ %bb.18:                               @   in Loop: Header=BB9_13 Depth=2
	@DEBUG_VALUE: basic_string:this <- $r0
	@DEBUG_VALUE: basic_string:__str <- [DW_OP_plus_uconst 12, DW_OP_stack_value] $r4
	@DEBUG_VALUE: Statistics: <- $r4
	@DEBUG_VALUE: Statistics:this <- $r6
	@DEBUG_VALUE: construct<arm::app::Statistics, arm::app::Statistics &>:__args <- $r4
	@DEBUG_VALUE: construct<arm::app::Statistics, arm::app::Statistics &>:__p <- $r6
	@DEBUG_VALUE: construct<arm::app::Statistics, arm::app::Statistics &>:this <- [DW_OP_plus_uconst 8, DW_OP_stack_value] $r9
	@DEBUG_VALUE: construct<arm::app::Statistics, arm::app::Statistics &, void>:__args <- $r4
	@DEBUG_VALUE: construct<arm::app::Statistics, arm::app::Statistics &, void>:__p <- $r6
	@DEBUG_VALUE: construct<arm::app::Statistics, arm::app::Statistics &, void>:__a <- [DW_OP_plus_uconst 8, DW_OP_stack_value] $r9
	@DEBUG_VALUE: __construct_one_at_end<arm::app::Statistics &>:__tx <- [DW_OP_plus_uconst 64, DW_OP_stack_value, DW_OP_LLVM_fragment 64 32] $r6
	@DEBUG_VALUE: __construct_one_at_end<arm::app::Statistics &>:__tx <- [DW_OP_LLVM_fragment 32 32] $r6
	@DEBUG_VALUE: __construct_one_at_end<arm::app::Statistics &>:__tx <- [DW_OP_LLVM_fragment 0 32] $r9
	@DEBUG_VALUE: __construct_one_at_end<arm::app::Statistics &>:__args <- $r4
	@DEBUG_VALUE: __construct_one_at_end<arm::app::Statistics &>:this <- $r9
	@DEBUG_VALUE: emplace_back<arm::app::Statistics &>:this <- $r9
	@DEBUG_VALUE: emplace_back<arm::app::Statistics &>:__args <- $r4
	@DEBUG_VALUE: stat <- $r4
	@DEBUG_VALUE: __end3 <- $r11
	@DEBUG_VALUE: __begin3 <- $r4
	@DEBUG_VALUE: __range3 <- [DW_OP_plus_uconst 36, DW_OP_stack_value] $sp
	@DEBUG_VALUE: GetAllResultsAndReset:results <- $r8
	@DEBUG_VALUE: __end2 <- [DW_OP_plus_uconst 4] [$sp+0]
	@DEBUG_VALUE: __begin2 <- $r10
	@DEBUG_VALUE: GetAllResultsAndReset:this <- [$sp+0]
	@DEBUG_VALUE: __range2 <- [$sp+0]
	.loc	2 0 0 is_stmt 0                 @ C:\Keil_v5\ARM\ARMCLANG\Bin\..\include\libcxx\string:0:0
	add.w	r1, r4, #12
	.loc	2 2018 22 is_stmt 1             @ C:\Keil_v5\ARM\ARMCLANG\Bin\..\include\libcxx\string:2018:22
	ldrd	r2, r3, [r1]
	ldr	r1, [r1, #8]
	str	r1, [r0, #8]
	strd	r2, r3, [r0]
	b	.LBB9_20
.Ltmp418:
.LBB9_19:                               @   in Loop: Header=BB9_13 Depth=2
	@DEBUG_VALUE: basic_string:this <- $r0
	@DEBUG_VALUE: basic_string:__str <- [DW_OP_plus_uconst 12, DW_OP_stack_value] $r4
	@DEBUG_VALUE: Statistics: <- $r4
	@DEBUG_VALUE: Statistics:this <- $r6
	@DEBUG_VALUE: construct<arm::app::Statistics, arm::app::Statistics &>:__args <- $r4
	@DEBUG_VALUE: construct<arm::app::Statistics, arm::app::Statistics &>:__p <- $r6
	@DEBUG_VALUE: construct<arm::app::Statistics, arm::app::Statistics &>:this <- [DW_OP_plus_uconst 8, DW_OP_stack_value] $r9
	@DEBUG_VALUE: construct<arm::app::Statistics, arm::app::Statistics &, void>:__args <- $r4
	@DEBUG_VALUE: construct<arm::app::Statistics, arm::app::Statistics &, void>:__p <- $r6
	@DEBUG_VALUE: construct<arm::app::Statistics, arm::app::Statistics &, void>:__a <- [DW_OP_plus_uconst 8, DW_OP_stack_value] $r9
	@DEBUG_VALUE: __construct_one_at_end<arm::app::Statistics &>:__tx <- [DW_OP_plus_uconst 64, DW_OP_stack_value, DW_OP_LLVM_fragment 64 32] $r6
	@DEBUG_VALUE: __construct_one_at_end<arm::app::Statistics &>:__tx <- [DW_OP_LLVM_fragment 32 32] $r6
	@DEBUG_VALUE: __construct_one_at_end<arm::app::Statistics &>:__tx <- [DW_OP_LLVM_fragment 0 32] $r9
	@DEBUG_VALUE: __construct_one_at_end<arm::app::Statistics &>:__args <- $r4
	@DEBUG_VALUE: __construct_one_at_end<arm::app::Statistics &>:this <- $r9
	@DEBUG_VALUE: emplace_back<arm::app::Statistics &>:this <- $r9
	@DEBUG_VALUE: emplace_back<arm::app::Statistics &>:__args <- $r4
	@DEBUG_VALUE: stat <- $r4
	@DEBUG_VALUE: __end3 <- $r11
	@DEBUG_VALUE: __begin3 <- $r4
	@DEBUG_VALUE: __range3 <- [DW_OP_plus_uconst 36, DW_OP_stack_value] $sp
	@DEBUG_VALUE: GetAllResultsAndReset:results <- $r8
	@DEBUG_VALUE: __end2 <- [DW_OP_plus_uconst 4] [$sp+0]
	@DEBUG_VALUE: __begin2 <- $r10
	@DEBUG_VALUE: GetAllResultsAndReset:this <- [$sp+0]
	@DEBUG_VALUE: __range2 <- [$sp+0]
	@DEBUG_VALUE: __get_long_pointer:this <- [DW_OP_plus_uconst 12, DW_OP_stack_value] $r4
	@DEBUG_VALUE: __get_long_size:this <- [DW_OP_plus_uconst 12, DW_OP_stack_value] $r4
	.loc	2 1618 34                       @ C:\Keil_v5\ARM\ARMCLANG\Bin\..\include\libcxx\string:1618:34
	ldrd	r1, r2, [r4, #12]
.Ltmp419:
	.loc	2 2020 9                        @ C:\Keil_v5\ARM\ARMCLANG\Bin\..\include\libcxx\string:2020:9
	bl	_ZNSt3__212basic_stringIcNS_11char_traitsIcEENS_9allocatorIcEEE25__init_copy_ctor_externalEPKcj
.Ltmp420:
.LBB9_20:                               @   in Loop: Header=BB9_13 Depth=2
	@DEBUG_VALUE: Statistics: <- $r4
	@DEBUG_VALUE: Statistics:this <- $r6
	@DEBUG_VALUE: construct<arm::app::Statistics, arm::app::Statistics &>:__args <- $r4
	@DEBUG_VALUE: construct<arm::app::Statistics, arm::app::Statistics &>:__p <- $r6
	@DEBUG_VALUE: construct<arm::app::Statistics, arm::app::Statistics &>:this <- [DW_OP_plus_uconst 8, DW_OP_stack_value] $r9
	@DEBUG_VALUE: construct<arm::app::Statistics, arm::app::Statistics &, void>:__args <- $r4
	@DEBUG_VALUE: construct<arm::app::Statistics, arm::app::Statistics &, void>:__p <- $r6
	@DEBUG_VALUE: construct<arm::app::Statistics, arm::app::Statistics &, void>:__a <- [DW_OP_plus_uconst 8, DW_OP_stack_value] $r9
	@DEBUG_VALUE: __construct_one_at_end<arm::app::Statistics &>:__tx <- [DW_OP_plus_uconst 64, DW_OP_stack_value, DW_OP_LLVM_fragment 64 32] $r6
	@DEBUG_VALUE: __construct_one_at_end<arm::app::Statistics &>:__tx <- [DW_OP_LLVM_fragment 32 32] $r6
	@DEBUG_VALUE: __construct_one_at_end<arm::app::Statistics &>:__tx <- [DW_OP_LLVM_fragment 0 32] $r9
	@DEBUG_VALUE: __construct_one_at_end<arm::app::Statistics &>:__args <- $r4
	@DEBUG_VALUE: __construct_one_at_end<arm::app::Statistics &>:this <- $r9
	@DEBUG_VALUE: emplace_back<arm::app::Statistics &>:this <- $r9
	@DEBUG_VALUE: emplace_back<arm::app::Statistics &>:__args <- $r4
	@DEBUG_VALUE: stat <- $r4
	@DEBUG_VALUE: __end3 <- $r11
	@DEBUG_VALUE: __begin3 <- $r4
	@DEBUG_VALUE: __range3 <- [DW_OP_plus_uconst 36, DW_OP_stack_value] $sp
	@DEBUG_VALUE: GetAllResultsAndReset:results <- $r8
	@DEBUG_VALUE: __end2 <- [DW_OP_plus_uconst 4] [$sp+0]
	@DEBUG_VALUE: __begin2 <- $r10
	@DEBUG_VALUE: GetAllResultsAndReset:this <- [$sp+0]
	@DEBUG_VALUE: __range2 <- [$sp+0]
	.loc	15 31 12                        @ ../../../../ThirdParty/ml-embedded-evaluation-kit/source/profiler/include\Profiler.hpp:31:12
	add.w	r7, r4, #24
	ldr	r5, [r4, #44]
	ldm	r7, {r0, r1, r2, r3, r7}
	add.w	r12, r6, #24
	str	r5, [r6, #44]
	stm.w	r12, {r0, r1, r2, r3, r7}
	ldrd	r0, r2, [r4, #48]
	ldr	r1, [r4, #56]
.Ltmp421:
	.loc	18 100 9                        @ C:\Keil_v5\ARM\ARMCLANG\Bin\..\include\libcxx\__iterator/wrap_iter.h:100:9
	adds	r4, #64
.Ltmp422:
	@DEBUG_VALUE: operator==<arm::app::Statistics *>:__y <- undef
	@DEBUG_VALUE: operator==<arm::app::Statistics *>:__x <- undef
	@DEBUG_VALUE: operator!=<arm::app::Statistics *>:__y <- undef
	@DEBUG_VALUE: operator!=<arm::app::Statistics *>:__x <- undef
	@DEBUG_VALUE: __begin3 <- $r4
	.loc	15 31 12                        @ ../../../../ThirdParty/ml-embedded-evaluation-kit/source/profiler/include\Profiler.hpp:31:12
	str	r1, [r6, #56]
	strd	r0, r2, [r6, #48]
.Ltmp423:
	.loc	3 811 5                         @ C:\Keil_v5\ARM\ARMCLANG\Bin\..\include\libcxx\vector:811:5
	add.w	r0, r6, #64
.Ltmp424:
	@DEBUG_VALUE: ~_ConstructTransaction:this <- undef
	@DEBUG_VALUE: __construct_one_at_end<arm::app::Statistics &>:__tx <- [DW_OP_LLVM_fragment 32 32] $r0
	.loc	3 788 19                        @ C:\Keil_v5\ARM\ARMCLANG\Bin\..\include\libcxx\vector:788:19
	str	r0, [sp, #28]
.Ltmp425:
	@DEBUG_VALUE: operator++:this <- undef
	.loc	1 111 35                        @ ../../../../ThirdParty/ml-embedded-evaluation-kit/source/profiler/Profiler.cc:111:35
	cmp	r4, r11
	bne	.LBB9_13
.Ltmp426:
.LBB9_21:                               @   in Loop: Header=BB9_4 Depth=1
	@DEBUG_VALUE: GetAllResultsAndReset:results <- $r8
	@DEBUG_VALUE: __end2 <- [DW_OP_plus_uconst 4] [$sp+0]
	@DEBUG_VALUE: __begin2 <- $r10
	@DEBUG_VALUE: GetAllResultsAndReset:this <- [$sp+0]
	@DEBUG_VALUE: __range2 <- [$sp+0]
	@DEBUG_VALUE: emplace_back<arm::app::ProfileResult &>:this <- $r8
	@DEBUG_VALUE: emplace_back<arm::app::ProfileResult &>:__args <- [DW_OP_plus_uconst 8, DW_OP_stack_value] $sp
	.loc	3 1596 15                       @ C:\Keil_v5\ARM\ARMCLANG\Bin\..\include\libcxx\vector:1596:15
	ldrd	r4, r0, [r8, #4]
.Ltmp427:
	.loc	3 1596 9 is_stmt 0              @ C:\Keil_v5\ARM\ARMCLANG\Bin\..\include\libcxx\vector:1596:9
	cmp	r4, r0
	bhs	.LBB9_24
.Ltmp428:
@ %bb.22:                               @   in Loop: Header=BB9_4 Depth=1
	@DEBUG_VALUE: emplace_back<arm::app::ProfileResult &>:__args <- [DW_OP_plus_uconst 8, DW_OP_stack_value] $sp
	@DEBUG_VALUE: emplace_back<arm::app::ProfileResult &>:this <- $r8
	@DEBUG_VALUE: GetAllResultsAndReset:results <- $r8
	@DEBUG_VALUE: __end2 <- [DW_OP_plus_uconst 4] [$sp+0]
	@DEBUG_VALUE: __begin2 <- $r10
	@DEBUG_VALUE: GetAllResultsAndReset:this <- [$sp+0]
	@DEBUG_VALUE: __range2 <- [$sp+0]
	@DEBUG_VALUE: __construct_one_at_end<arm::app::ProfileResult &>:this <- $r8
	@DEBUG_VALUE: __construct_one_at_end<arm::app::ProfileResult &>:__args <- [DW_OP_plus_uconst 8, DW_OP_stack_value] $sp
	@DEBUG_VALUE: __construct_one_at_end<arm::app::ProfileResult &>:__tx <- [DW_OP_LLVM_fragment 0 32] $r8
	@DEBUG_VALUE: __construct_one_at_end<arm::app::ProfileResult &>:__tx <- [DW_OP_LLVM_fragment 32 32] $r4
	@DEBUG_VALUE: __construct_one_at_end<arm::app::ProfileResult &>:__tx <- [DW_OP_plus_uconst 28, DW_OP_stack_value, DW_OP_LLVM_fragment 64 32] $r4
	@DEBUG_VALUE: construct<arm::app::ProfileResult, arm::app::ProfileResult &, void>:__a <- [DW_OP_plus_uconst 8, DW_OP_stack_value] $r8
	@DEBUG_VALUE: construct<arm::app::ProfileResult, arm::app::ProfileResult &, void>:__p <- $r4
	@DEBUG_VALUE: construct<arm::app::ProfileResult, arm::app::ProfileResult &, void>:__args <- [DW_OP_plus_uconst 8, DW_OP_stack_value] $sp
	@DEBUG_VALUE: construct<arm::app::ProfileResult, arm::app::ProfileResult &>:this <- [DW_OP_plus_uconst 8, DW_OP_stack_value] $r8
	@DEBUG_VALUE: construct<arm::app::ProfileResult, arm::app::ProfileResult &>:__p <- $r4
	@DEBUG_VALUE: construct<arm::app::ProfileResult, arm::app::ProfileResult &>:__args <- [DW_OP_plus_uconst 8, DW_OP_stack_value] $sp
	@DEBUG_VALUE: ProfileResult:this <- $r4
	@DEBUG_VALUE: ProfileResult: <- [DW_OP_plus_uconst 8, DW_OP_stack_value] $sp
	@DEBUG_VALUE: basic_string:this <- $r4
	@DEBUG_VALUE: basic_string:__str <- [DW_OP_plus_uconst 8, DW_OP_stack_value] $sp
	@DEBUG_VALUE: __is_long:this <- [DW_OP_plus_uconst 8, DW_OP_stack_value] $sp
	.loc	2 1509 33 is_stmt 1             @ C:\Keil_v5\ARM\ARMCLANG\Bin\..\include\libcxx\string:1509:33
	ldrsb.w	r0, [sp, #19]
.Ltmp429:
	.loc	2 2017 9                        @ C:\Keil_v5\ARM\ARMCLANG\Bin\..\include\libcxx\string:2017:9
	cmp	r0, #0
	bmi	.LBB9_25
.Ltmp430:
@ %bb.23:                               @   in Loop: Header=BB9_4 Depth=1
	@DEBUG_VALUE: basic_string:__str <- [DW_OP_plus_uconst 8, DW_OP_stack_value] $sp
	@DEBUG_VALUE: basic_string:this <- $r4
	@DEBUG_VALUE: ProfileResult: <- [DW_OP_plus_uconst 8, DW_OP_stack_value] $sp
	@DEBUG_VALUE: ProfileResult:this <- $r4
	@DEBUG_VALUE: construct<arm::app::ProfileResult, arm::app::ProfileResult &>:__args <- [DW_OP_plus_uconst 8, DW_OP_stack_value] $sp
	@DEBUG_VALUE: construct<arm::app::ProfileResult, arm::app::ProfileResult &>:__p <- $r4
	@DEBUG_VALUE: construct<arm::app::ProfileResult, arm::app::ProfileResult &>:this <- [DW_OP_plus_uconst 8, DW_OP_stack_value] $r8
	@DEBUG_VALUE: construct<arm::app::ProfileResult, arm::app::ProfileResult &, void>:__args <- [DW_OP_plus_uconst 8, DW_OP_stack_value] $sp
	@DEBUG_VALUE: construct<arm::app::ProfileResult, arm::app::ProfileResult &, void>:__p <- $r4
	@DEBUG_VALUE: construct<arm::app::ProfileResult, arm::app::ProfileResult &, void>:__a <- [DW_OP_plus_uconst 8, DW_OP_stack_value] $r8
	@DEBUG_VALUE: __construct_one_at_end<arm::app::ProfileResult &>:__tx <- [DW_OP_plus_uconst 28, DW_OP_stack_value, DW_OP_LLVM_fragment 64 32] $r4
	@DEBUG_VALUE: __construct_one_at_end<arm::app::ProfileResult &>:__tx <- [DW_OP_LLVM_fragment 32 32] $r4
	@DEBUG_VALUE: __construct_one_at_end<arm::app::ProfileResult &>:__tx <- [DW_OP_LLVM_fragment 0 32] $r8
	@DEBUG_VALUE: __construct_one_at_end<arm::app::ProfileResult &>:__args <- [DW_OP_plus_uconst 8, DW_OP_stack_value] $sp
	@DEBUG_VALUE: __construct_one_at_end<arm::app::ProfileResult &>:this <- $r8
	@DEBUG_VALUE: emplace_back<arm::app::ProfileResult &>:__args <- [DW_OP_plus_uconst 8, DW_OP_stack_value] $sp
	@DEBUG_VALUE: emplace_back<arm::app::ProfileResult &>:this <- $r8
	@DEBUG_VALUE: GetAllResultsAndReset:results <- $r8
	@DEBUG_VALUE: __end2 <- [DW_OP_plus_uconst 4] [$sp+0]
	@DEBUG_VALUE: __begin2 <- $r10
	@DEBUG_VALUE: GetAllResultsAndReset:this <- [$sp+0]
	@DEBUG_VALUE: __range2 <- [$sp+0]
	.loc	2 2018 22                       @ C:\Keil_v5\ARM\ARMCLANG\Bin\..\include\libcxx\string:2018:22
	add	r2, sp, #8
	ldm	r2, {r0, r1, r2}
	stm.w	r4, {r0, r1, r2}
	b	.LBB9_26
.Ltmp431:
	.p2align	2
.LBB9_24:                               @   in Loop: Header=BB9_4 Depth=1
	@DEBUG_VALUE: emplace_back<arm::app::ProfileResult &>:__args <- [DW_OP_plus_uconst 8, DW_OP_stack_value] $sp
	@DEBUG_VALUE: emplace_back<arm::app::ProfileResult &>:this <- $r8
	@DEBUG_VALUE: GetAllResultsAndReset:results <- $r8
	@DEBUG_VALUE: __end2 <- [DW_OP_plus_uconst 4] [$sp+0]
	@DEBUG_VALUE: __begin2 <- $r10
	@DEBUG_VALUE: GetAllResultsAndReset:this <- [$sp+0]
	@DEBUG_VALUE: __range2 <- [$sp+0]
	.loc	3 1601 9                        @ C:\Keil_v5\ARM\ARMCLANG\Bin\..\include\libcxx\vector:1601:9
	mov	r0, r8
	add	r1, sp, #8
	bl	_ZNSt3__26vectorIN3arm3app13ProfileResultENS_9allocatorIS3_EEE24__emplace_back_slow_pathIJRS3_EEEvDpOT_
.Ltmp432:
	.loc	3 0 9 is_stmt 0                 @ C:\Keil_v5\ARM\ARMCLANG\Bin\..\include\libcxx\vector:0:9
	b	.LBB9_27
.Ltmp433:
.LBB9_25:                               @   in Loop: Header=BB9_4 Depth=1
	@DEBUG_VALUE: basic_string:__str <- [DW_OP_plus_uconst 8, DW_OP_stack_value] $sp
	@DEBUG_VALUE: basic_string:this <- $r4
	@DEBUG_VALUE: ProfileResult: <- [DW_OP_plus_uconst 8, DW_OP_stack_value] $sp
	@DEBUG_VALUE: ProfileResult:this <- $r4
	@DEBUG_VALUE: construct<arm::app::ProfileResult, arm::app::ProfileResult &>:__args <- [DW_OP_plus_uconst 8, DW_OP_stack_value] $sp
	@DEBUG_VALUE: construct<arm::app::ProfileResult, arm::app::ProfileResult &>:__p <- $r4
	@DEBUG_VALUE: construct<arm::app::ProfileResult, arm::app::ProfileResult &>:this <- [DW_OP_plus_uconst 8, DW_OP_stack_value] $r8
	@DEBUG_VALUE: construct<arm::app::ProfileResult, arm::app::ProfileResult &, void>:__args <- [DW_OP_plus_uconst 8, DW_OP_stack_value] $sp
	@DEBUG_VALUE: construct<arm::app::ProfileResult, arm::app::ProfileResult &, void>:__p <- $r4
	@DEBUG_VALUE: construct<arm::app::ProfileResult, arm::app::ProfileResult &, void>:__a <- [DW_OP_plus_uconst 8, DW_OP_stack_value] $r8
	@DEBUG_VALUE: __construct_one_at_end<arm::app::ProfileResult &>:__tx <- [DW_OP_plus_uconst 28, DW_OP_stack_value, DW_OP_LLVM_fragment 64 32] $r4
	@DEBUG_VALUE: __construct_one_at_end<arm::app::ProfileResult &>:__tx <- [DW_OP_LLVM_fragment 32 32] $r4
	@DEBUG_VALUE: __construct_one_at_end<arm::app::ProfileResult &>:__tx <- [DW_OP_LLVM_fragment 0 32] $r8
	@DEBUG_VALUE: __construct_one_at_end<arm::app::ProfileResult &>:__args <- [DW_OP_plus_uconst 8, DW_OP_stack_value] $sp
	@DEBUG_VALUE: __construct_one_at_end<arm::app::ProfileResult &>:this <- $r8
	@DEBUG_VALUE: emplace_back<arm::app::ProfileResult &>:__args <- [DW_OP_plus_uconst 8, DW_OP_stack_value] $sp
	@DEBUG_VALUE: emplace_back<arm::app::ProfileResult &>:this <- $r8
	@DEBUG_VALUE: GetAllResultsAndReset:results <- $r8
	@DEBUG_VALUE: __end2 <- [DW_OP_plus_uconst 4] [$sp+0]
	@DEBUG_VALUE: __begin2 <- $r10
	@DEBUG_VALUE: GetAllResultsAndReset:this <- [$sp+0]
	@DEBUG_VALUE: __range2 <- [$sp+0]
	@DEBUG_VALUE: __get_long_pointer:this <- [DW_OP_plus_uconst 8, DW_OP_stack_value] $sp
	@DEBUG_VALUE: __get_long_size:this <- [DW_OP_plus_uconst 8, DW_OP_stack_value] $sp
	.loc	2 1618 34 is_stmt 1             @ C:\Keil_v5\ARM\ARMCLANG\Bin\..\include\libcxx\string:1618:34
	ldrd	r1, r2, [sp, #8]
.Ltmp434:
	.loc	2 2020 9                        @ C:\Keil_v5\ARM\ARMCLANG\Bin\..\include\libcxx\string:2020:9
	mov	r0, r4
	bl	_ZNSt3__212basic_stringIcNS_11char_traitsIcEENS_9allocatorIcEEE25__init_copy_ctor_externalEPKcj
.Ltmp435:
.LBB9_26:                               @   in Loop: Header=BB9_4 Depth=1
	@DEBUG_VALUE: ProfileResult: <- [DW_OP_plus_uconst 8, DW_OP_stack_value] $sp
	@DEBUG_VALUE: ProfileResult:this <- $r4
	@DEBUG_VALUE: construct<arm::app::ProfileResult, arm::app::ProfileResult &>:__args <- [DW_OP_plus_uconst 8, DW_OP_stack_value] $sp
	@DEBUG_VALUE: construct<arm::app::ProfileResult, arm::app::ProfileResult &>:__p <- $r4
	@DEBUG_VALUE: construct<arm::app::ProfileResult, arm::app::ProfileResult &>:this <- [DW_OP_plus_uconst 8, DW_OP_stack_value] $r8
	@DEBUG_VALUE: construct<arm::app::ProfileResult, arm::app::ProfileResult &, void>:__args <- [DW_OP_plus_uconst 8, DW_OP_stack_value] $sp
	@DEBUG_VALUE: construct<arm::app::ProfileResult, arm::app::ProfileResult &, void>:__p <- $r4
	@DEBUG_VALUE: construct<arm::app::ProfileResult, arm::app::ProfileResult &, void>:__a <- [DW_OP_plus_uconst 8, DW_OP_stack_value] $r8
	@DEBUG_VALUE: __construct_one_at_end<arm::app::ProfileResult &>:__tx <- [DW_OP_plus_uconst 28, DW_OP_stack_value, DW_OP_LLVM_fragment 64 32] $r4
	@DEBUG_VALUE: __construct_one_at_end<arm::app::ProfileResult &>:__tx <- [DW_OP_LLVM_fragment 32 32] $r4
	@DEBUG_VALUE: __construct_one_at_end<arm::app::ProfileResult &>:__tx <- [DW_OP_LLVM_fragment 0 32] $r8
	@DEBUG_VALUE: __construct_one_at_end<arm::app::ProfileResult &>:__args <- [DW_OP_plus_uconst 8, DW_OP_stack_value] $sp
	@DEBUG_VALUE: __construct_one_at_end<arm::app::ProfileResult &>:this <- $r8
	@DEBUG_VALUE: emplace_back<arm::app::ProfileResult &>:__args <- [DW_OP_plus_uconst 8, DW_OP_stack_value] $sp
	@DEBUG_VALUE: emplace_back<arm::app::ProfileResult &>:this <- $r8
	@DEBUG_VALUE: GetAllResultsAndReset:results <- $r8
	@DEBUG_VALUE: __end2 <- [DW_OP_plus_uconst 4] [$sp+0]
	@DEBUG_VALUE: __begin2 <- $r10
	@DEBUG_VALUE: GetAllResultsAndReset:this <- [$sp+0]
	@DEBUG_VALUE: __range2 <- [$sp+0]
	.loc	15 42 12                        @ ../../../../ThirdParty/ml-embedded-evaluation-kit/source/profiler/include\Profiler.hpp:42:12
	ldr	r0, [sp, #20]
	mov	r1, r9
	str	r0, [r4, #12]
	add.w	r0, r4, #16
	bl	_ZNSt3__26vectorIN3arm3app10StatisticsENS_9allocatorIS3_EEEC2ERKS6_
.Ltmp436:
	.loc	3 811 5                         @ C:\Keil_v5\ARM\ARMCLANG\Bin\..\include\libcxx\vector:811:5
	add.w	r0, r4, #28
.Ltmp437:
	@DEBUG_VALUE: ~_ConstructTransaction:this <- undef
	@DEBUG_VALUE: __construct_one_at_end<arm::app::ProfileResult &>:__tx <- [DW_OP_LLVM_fragment 32 32] $r0
	.loc	3 788 19                        @ C:\Keil_v5\ARM\ARMCLANG\Bin\..\include\libcxx\vector:788:19
	str.w	r0, [r8, #4]
.Ltmp438:
.LBB9_27:                               @   in Loop: Header=BB9_4 Depth=1
	@DEBUG_VALUE: GetAllResultsAndReset:results <- $r8
	@DEBUG_VALUE: __end2 <- [DW_OP_plus_uconst 4] [$sp+0]
	@DEBUG_VALUE: __begin2 <- $r10
	@DEBUG_VALUE: GetAllResultsAndReset:this <- [$sp+0]
	@DEBUG_VALUE: __range2 <- [$sp+0]
	@DEBUG_VALUE: ~ProfileResult:this <- [DW_OP_plus_uconst 8, DW_OP_stack_value] $sp
	@DEBUG_VALUE: ~vector:this <- $r9
	.loc	3 431 17                        @ C:\Keil_v5\ARM\ARMCLANG\Bin\..\include\libcxx\vector:431:17
	ldr	r4, [sp, #24]
.Ltmp439:
	.loc	3 431 11 is_stmt 0              @ C:\Keil_v5\ARM\ARMCLANG\Bin\..\include\libcxx\vector:431:11
	cbz	r4, .LBB9_36
.Ltmp440:
@ %bb.28:                               @   in Loop: Header=BB9_4 Depth=1
	@DEBUG_VALUE: ~vector:this <- $r9
	@DEBUG_VALUE: ~ProfileResult:this <- [DW_OP_plus_uconst 8, DW_OP_stack_value] $sp
	@DEBUG_VALUE: GetAllResultsAndReset:results <- $r8
	@DEBUG_VALUE: __end2 <- [DW_OP_plus_uconst 4] [$sp+0]
	@DEBUG_VALUE: __begin2 <- $r10
	@DEBUG_VALUE: GetAllResultsAndReset:this <- [$sp+0]
	@DEBUG_VALUE: __range2 <- [$sp+0]
	@DEBUG_VALUE: __clear:this <- $r9
	@DEBUG_VALUE: __base_destruct_at_end:this <- $r9
	@DEBUG_VALUE: __base_destruct_at_end:__new_last <- $r4
	.loc	3 832 38 is_stmt 1              @ C:\Keil_v5\ARM\ARMCLANG\Bin\..\include\libcxx\vector:832:38
	ldr	r6, [sp, #28]
.Ltmp441:
	@DEBUG_VALUE: __base_destruct_at_end:__soon_to_be_end <- $r6
	.loc	3 0 38 is_stmt 0                @ C:\Keil_v5\ARM\ARMCLANG\Bin\..\include\libcxx\vector:0:38
	mov	r0, r4
	.loc	3 833 5 is_stmt 1               @ C:\Keil_v5\ARM\ARMCLANG\Bin\..\include\libcxx\vector:833:5
	cmp	r6, r4
	bne	.LBB9_30
	b	.LBB9_35
.Ltmp442:
	.p2align	2
.LBB9_29:                               @   in Loop: Header=BB9_30 Depth=2
	@DEBUG_VALUE: __base_destruct_at_end:__new_last <- $r4
	@DEBUG_VALUE: __base_destruct_at_end:this <- $r9
	@DEBUG_VALUE: __clear:this <- $r9
	@DEBUG_VALUE: ~vector:this <- $r9
	@DEBUG_VALUE: ~ProfileResult:this <- [DW_OP_plus_uconst 8, DW_OP_stack_value] $sp
	@DEBUG_VALUE: GetAllResultsAndReset:results <- $r8
	@DEBUG_VALUE: __end2 <- [DW_OP_plus_uconst 4] [$sp+0]
	@DEBUG_VALUE: __begin2 <- $r10
	@DEBUG_VALUE: GetAllResultsAndReset:this <- [$sp+0]
	@DEBUG_VALUE: __range2 <- [$sp+0]
	.loc	3 0 0 is_stmt 0                 @ C:\Keil_v5\ARM\ARMCLANG\Bin\..\include\libcxx\vector:0:0
	subs	r6, #64
	@DEBUG_VALUE: __is_long:this <- $r6
	@DEBUG_VALUE: ~basic_string:this <- $r6
	@DEBUG_VALUE: __is_long:this <- [DW_OP_plus_uconst 12, DW_OP_stack_value] $r6
	@DEBUG_VALUE: ~basic_string:this <- [DW_OP_plus_uconst 12, DW_OP_stack_value] $r6
	@DEBUG_VALUE: ~Statistics:this <- $r6
	@DEBUG_VALUE: destroy:__p <- $r6
	@DEBUG_VALUE: destroy<arm::app::Statistics, void>:__p <- $r6
.Ltmp443:
	@DEBUG_VALUE: __base_destruct_at_end:__soon_to_be_end <- $r6
	.loc	3 833 5                         @ C:\Keil_v5\ARM\ARMCLANG\Bin\..\include\libcxx\vector:833:5
	cmp	r6, r4
	beq	.LBB9_34
.Ltmp444:
.LBB9_30:                               @   Parent Loop BB9_4 Depth=1
                                        @ =>  This Inner Loop Header: Depth=2
	@DEBUG_VALUE: __base_destruct_at_end:__soon_to_be_end <- $r6
	@DEBUG_VALUE: __base_destruct_at_end:__new_last <- $r4
	@DEBUG_VALUE: __base_destruct_at_end:this <- $r9
	@DEBUG_VALUE: __clear:this <- $r9
	@DEBUG_VALUE: ~vector:this <- $r9
	@DEBUG_VALUE: ~ProfileResult:this <- [DW_OP_plus_uconst 8, DW_OP_stack_value] $sp
	@DEBUG_VALUE: GetAllResultsAndReset:results <- $r8
	@DEBUG_VALUE: __end2 <- [DW_OP_plus_uconst 4] [$sp+0]
	@DEBUG_VALUE: __begin2 <- $r10
	@DEBUG_VALUE: GetAllResultsAndReset:this <- [$sp+0]
	@DEBUG_VALUE: __range2 <- [$sp+0]
	@DEBUG_VALUE: __base_destruct_at_end:__soon_to_be_end <- undef
	@DEBUG_VALUE: destroy<arm::app::Statistics, void>:__p <- undef
	@DEBUG_VALUE: destroy:__p <- undef
	@DEBUG_VALUE: ~Statistics:this <- undef
	@DEBUG_VALUE: ~basic_string:this <- [DW_OP_plus_uconst 12, DW_OP_stack_value] undef
	@DEBUG_VALUE: __is_long:this <- [DW_OP_plus_uconst 12, DW_OP_stack_value] undef
	@DEBUG_VALUE: destroy<arm::app::Statistics, void>:__a <- [DW_OP_plus_uconst 8, DW_OP_stack_value] $r9
	@DEBUG_VALUE: destroy:this <- [DW_OP_plus_uconst 8, DW_OP_stack_value] $r9
	.loc	2 1509 33 is_stmt 1             @ C:\Keil_v5\ARM\ARMCLANG\Bin\..\include\libcxx\string:1509:33
	ldrsb	r0, [r6, #-41]
.Ltmp445:
	.loc	2 2337 9                        @ C:\Keil_v5\ARM\ARMCLANG\Bin\..\include\libcxx\string:2337:9
	cmp.w	r0, #-1
	bgt	.LBB9_32
.Ltmp446:
@ %bb.31:                               @   in Loop: Header=BB9_30 Depth=2
	@DEBUG_VALUE: destroy:this <- [DW_OP_plus_uconst 8, DW_OP_stack_value] $r9
	@DEBUG_VALUE: destroy<arm::app::Statistics, void>:__a <- [DW_OP_plus_uconst 8, DW_OP_stack_value] $r9
	@DEBUG_VALUE: __base_destruct_at_end:__new_last <- $r4
	@DEBUG_VALUE: __base_destruct_at_end:this <- $r9
	@DEBUG_VALUE: __clear:this <- $r9
	@DEBUG_VALUE: ~vector:this <- $r9
	@DEBUG_VALUE: ~ProfileResult:this <- [DW_OP_plus_uconst 8, DW_OP_stack_value] $sp
	@DEBUG_VALUE: GetAllResultsAndReset:results <- $r8
	@DEBUG_VALUE: __end2 <- [DW_OP_plus_uconst 4] [$sp+0]
	@DEBUG_VALUE: __begin2 <- $r10
	@DEBUG_VALUE: GetAllResultsAndReset:this <- [$sp+0]
	@DEBUG_VALUE: __range2 <- [$sp+0]
	@DEBUG_VALUE: ~basic_string:this <- [DW_OP_constu 52, DW_OP_minus, DW_OP_stack_value] $r6
	@DEBUG_VALUE: __is_long:this <- [DW_OP_constu 52, DW_OP_minus, DW_OP_stack_value] $r6
	@DEBUG_VALUE: __get_long_pointer:this <- [DW_OP_plus_uconst 12, DW_OP_stack_value] $r6
	.loc	2 1615 34                       @ C:\Keil_v5\ARM\ARMCLANG\Bin\..\include\libcxx\string:1615:34
	ldr	r0, [r6, #-52]
.Ltmp447:
	@DEBUG_VALUE: __do_deallocate_handle_size<>:__size <- [DW_OP_constu 2147483647, DW_OP_and, DW_OP_stack_value] undef
	@DEBUG_VALUE: __libcpp_deallocate:__align <- 1
	@DEBUG_VALUE: __libcpp_deallocate:__size <- [DW_OP_constu 2147483647, DW_OP_and, DW_OP_stack_value] undef
	@DEBUG_VALUE: deallocate:__n <- [DW_OP_constu 2147483647, DW_OP_and, DW_OP_stack_value] undef
	@DEBUG_VALUE: deallocate:this <- [DW_OP_plus_uconst 12, DW_OP_stack_value] $r6
	@DEBUG_VALUE: deallocate:__n <- [DW_OP_constu 2147483647, DW_OP_and, DW_OP_stack_value] undef
	@DEBUG_VALUE: deallocate:__a <- [DW_OP_plus_uconst 12, DW_OP_stack_value] $r6
	@DEBUG_VALUE: __libcpp_operator_delete<void *>:__args <- $r0
	@DEBUG_VALUE: __do_deallocate_handle_size<>:__ptr <- $r0
	@DEBUG_VALUE: __libcpp_deallocate:__ptr <- $r0
	@DEBUG_VALUE: deallocate:__p <- $r0
	@DEBUG_VALUE: deallocate:__p <- $r0
	.loc	63 280 3                        @ C:\Keil_v5\ARM\ARMCLANG\Bin\..\include\libcxx\new:280:3
	bl	_ZdlPv
.Ltmp448:
.LBB9_32:                               @   in Loop: Header=BB9_30 Depth=2
	@DEBUG_VALUE: destroy:this <- [DW_OP_plus_uconst 8, DW_OP_stack_value] $r9
	@DEBUG_VALUE: destroy<arm::app::Statistics, void>:__a <- [DW_OP_plus_uconst 8, DW_OP_stack_value] $r9
	@DEBUG_VALUE: __base_destruct_at_end:__new_last <- $r4
	@DEBUG_VALUE: __base_destruct_at_end:this <- $r9
	@DEBUG_VALUE: __clear:this <- $r9
	@DEBUG_VALUE: ~vector:this <- $r9
	@DEBUG_VALUE: ~ProfileResult:this <- [DW_OP_plus_uconst 8, DW_OP_stack_value] $sp
	@DEBUG_VALUE: GetAllResultsAndReset:results <- $r8
	@DEBUG_VALUE: __end2 <- [DW_OP_plus_uconst 4] [$sp+0]
	@DEBUG_VALUE: __begin2 <- $r10
	@DEBUG_VALUE: GetAllResultsAndReset:this <- [$sp+0]
	@DEBUG_VALUE: __range2 <- [$sp+0]
	@DEBUG_VALUE: __base_destruct_at_end:__soon_to_be_end <- undef
	@DEBUG_VALUE: destroy<arm::app::Statistics, void>:__p <- undef
	@DEBUG_VALUE: destroy:__p <- undef
	@DEBUG_VALUE: ~Statistics:this <- undef
	@DEBUG_VALUE: ~basic_string:this <- [DW_OP_plus_uconst 12, DW_OP_stack_value] undef
	@DEBUG_VALUE: __is_long:this <- [DW_OP_plus_uconst 12, DW_OP_stack_value] undef
	@DEBUG_VALUE: ~basic_string:this <- $r6
	@DEBUG_VALUE: __is_long:this <- $r6
	.loc	2 1509 33                       @ C:\Keil_v5\ARM\ARMCLANG\Bin\..\include\libcxx\string:1509:33
	ldrsb	r0, [r6, #-53]
.Ltmp449:
	.loc	2 2337 9                        @ C:\Keil_v5\ARM\ARMCLANG\Bin\..\include\libcxx\string:2337:9
	cmp.w	r0, #-1
	bgt	.LBB9_29
.Ltmp450:
@ %bb.33:                               @   in Loop: Header=BB9_30 Depth=2
	@DEBUG_VALUE: ~basic_string:this <- $r6
	@DEBUG_VALUE: destroy:this <- [DW_OP_plus_uconst 8, DW_OP_stack_value] $r9
	@DEBUG_VALUE: destroy<arm::app::Statistics, void>:__a <- [DW_OP_plus_uconst 8, DW_OP_stack_value] $r9
	@DEBUG_VALUE: __base_destruct_at_end:__new_last <- $r4
	@DEBUG_VALUE: __base_destruct_at_end:this <- $r9
	@DEBUG_VALUE: __clear:this <- $r9
	@DEBUG_VALUE: ~vector:this <- $r9
	@DEBUG_VALUE: ~ProfileResult:this <- [DW_OP_plus_uconst 8, DW_OP_stack_value] $sp
	@DEBUG_VALUE: GetAllResultsAndReset:results <- $r8
	@DEBUG_VALUE: __end2 <- [DW_OP_plus_uconst 4] [$sp+0]
	@DEBUG_VALUE: __begin2 <- $r10
	@DEBUG_VALUE: GetAllResultsAndReset:this <- [$sp+0]
	@DEBUG_VALUE: __range2 <- [$sp+0]
	@DEBUG_VALUE: __get_long_pointer:this <- $r6
	.loc	2 1615 34                       @ C:\Keil_v5\ARM\ARMCLANG\Bin\..\include\libcxx\string:1615:34
	ldr	r0, [r6, #-64]
.Ltmp451:
	@DEBUG_VALUE: __do_deallocate_handle_size<>:__size <- [DW_OP_constu 2147483647, DW_OP_and, DW_OP_stack_value] undef
	@DEBUG_VALUE: __libcpp_deallocate:__align <- 1
	@DEBUG_VALUE: __libcpp_deallocate:__size <- [DW_OP_constu 2147483647, DW_OP_and, DW_OP_stack_value] undef
	@DEBUG_VALUE: deallocate:__n <- [DW_OP_constu 2147483647, DW_OP_and, DW_OP_stack_value] undef
	@DEBUG_VALUE: deallocate:this <- $r6
	@DEBUG_VALUE: deallocate:__n <- [DW_OP_constu 2147483647, DW_OP_and, DW_OP_stack_value] undef
	@DEBUG_VALUE: deallocate:__a <- $r6
	@DEBUG_VALUE: __libcpp_operator_delete<void *>:__args <- $r0
	@DEBUG_VALUE: __do_deallocate_handle_size<>:__ptr <- $r0
	@DEBUG_VALUE: __libcpp_deallocate:__ptr <- $r0
	@DEBUG_VALUE: deallocate:__p <- $r0
	@DEBUG_VALUE: deallocate:__p <- $r0
	.loc	63 280 3                        @ C:\Keil_v5\ARM\ARMCLANG\Bin\..\include\libcxx\new:280:3
	bl	_ZdlPv
.Ltmp452:
	.loc	63 0 3 is_stmt 0                @ C:\Keil_v5\ARM\ARMCLANG\Bin\..\include\libcxx\new:0:3
	b	.LBB9_29
.Ltmp453:
	.p2align	2
.LBB9_34:                               @   in Loop: Header=BB9_4 Depth=1
	@DEBUG_VALUE: ~vector:this <- $r9
	@DEBUG_VALUE: ~ProfileResult:this <- [DW_OP_plus_uconst 8, DW_OP_stack_value] $sp
	@DEBUG_VALUE: GetAllResultsAndReset:results <- $r8
	@DEBUG_VALUE: __end2 <- [DW_OP_plus_uconst 4] [$sp+0]
	@DEBUG_VALUE: __begin2 <- $r10
	@DEBUG_VALUE: GetAllResultsAndReset:this <- [$sp+0]
	@DEBUG_VALUE: __range2 <- [$sp+0]
	.loc	3 434 53 is_stmt 1              @ C:\Keil_v5\ARM\ARMCLANG\Bin\..\include\libcxx\vector:434:53
	ldr	r0, [sp, #24]
.Ltmp454:
.LBB9_35:                               @   in Loop: Header=BB9_4 Depth=1
	@DEBUG_VALUE: ~vector:this <- $r9
	@DEBUG_VALUE: ~ProfileResult:this <- [DW_OP_plus_uconst 8, DW_OP_stack_value] $sp
	@DEBUG_VALUE: GetAllResultsAndReset:results <- $r8
	@DEBUG_VALUE: __end2 <- [DW_OP_plus_uconst 4] [$sp+0]
	@DEBUG_VALUE: __begin2 <- $r10
	@DEBUG_VALUE: GetAllResultsAndReset:this <- [$sp+0]
	@DEBUG_VALUE: __range2 <- [$sp+0]
	.loc	3 835 18                        @ C:\Keil_v5\ARM\ARMCLANG\Bin\..\include\libcxx\vector:835:18
	str	r4, [sp, #28]
.Ltmp455:
	@DEBUG_VALUE: __libcpp_operator_delete<void *>:__args <- $r0
	@DEBUG_VALUE: __do_deallocate_handle_size<>:__size <- [DW_OP_LLVM_arg 0, DW_OP_LLVM_arg 1, DW_OP_minus, DW_OP_constu 6, DW_OP_shra, DW_OP_constu 6, DW_OP_shl, DW_OP_stack_value] undef, undef
	@DEBUG_VALUE: __do_deallocate_handle_size<>:__ptr <- $r0
	@DEBUG_VALUE: __libcpp_deallocate:__align <- 8
	@DEBUG_VALUE: __libcpp_deallocate:__size <- [DW_OP_LLVM_arg 0, DW_OP_LLVM_arg 1, DW_OP_minus, DW_OP_constu 6, DW_OP_shra, DW_OP_constu 6, DW_OP_shl, DW_OP_stack_value] undef, undef
	@DEBUG_VALUE: __libcpp_deallocate:__ptr <- $r0
	@DEBUG_VALUE: deallocate:__n <- [DW_OP_LLVM_arg 0, DW_OP_LLVM_arg 1, DW_OP_minus, DW_OP_constu 6, DW_OP_shra, DW_OP_stack_value] undef, undef
	@DEBUG_VALUE: deallocate:__p <- $r0
	@DEBUG_VALUE: deallocate:this <- [DW_OP_plus_uconst 8, DW_OP_stack_value] $r9
	@DEBUG_VALUE: deallocate:__n <- [DW_OP_LLVM_arg 0, DW_OP_LLVM_arg 1, DW_OP_minus, DW_OP_constu 6, DW_OP_shra, DW_OP_stack_value] undef, undef
	@DEBUG_VALUE: deallocate:__p <- $r0
	@DEBUG_VALUE: deallocate:__a <- [DW_OP_plus_uconst 8, DW_OP_stack_value] $r9
	.loc	63 280 3                        @ C:\Keil_v5\ARM\ARMCLANG\Bin\..\include\libcxx\new:280:3
	bl	_ZdlPv
.Ltmp456:
.LBB9_36:                               @   in Loop: Header=BB9_4 Depth=1
	@DEBUG_VALUE: ~ProfileResult:this <- [DW_OP_plus_uconst 8, DW_OP_stack_value] $sp
	@DEBUG_VALUE: GetAllResultsAndReset:results <- $r8
	@DEBUG_VALUE: __end2 <- [DW_OP_plus_uconst 4] [$sp+0]
	@DEBUG_VALUE: __begin2 <- $r10
	@DEBUG_VALUE: GetAllResultsAndReset:this <- [$sp+0]
	@DEBUG_VALUE: __range2 <- [$sp+0]
	@DEBUG_VALUE: ~basic_string:this <- [DW_OP_plus_uconst 8, DW_OP_stack_value] $sp
	@DEBUG_VALUE: __is_long:this <- [DW_OP_plus_uconst 8, DW_OP_stack_value] $sp
	.loc	2 1509 33                       @ C:\Keil_v5\ARM\ARMCLANG\Bin\..\include\libcxx\string:1509:33
	ldrsb.w	r0, [sp, #19]
.Ltmp457:
	.loc	2 2337 9                        @ C:\Keil_v5\ARM\ARMCLANG\Bin\..\include\libcxx\string:2337:9
	cmp.w	r0, #-1
	bgt	.LBB9_38
.Ltmp458:
@ %bb.37:                               @   in Loop: Header=BB9_4 Depth=1
	@DEBUG_VALUE: ~basic_string:this <- [DW_OP_plus_uconst 8, DW_OP_stack_value] $sp
	@DEBUG_VALUE: ~ProfileResult:this <- [DW_OP_plus_uconst 8, DW_OP_stack_value] $sp
	@DEBUG_VALUE: GetAllResultsAndReset:results <- $r8
	@DEBUG_VALUE: __end2 <- [DW_OP_plus_uconst 4] [$sp+0]
	@DEBUG_VALUE: __begin2 <- $r10
	@DEBUG_VALUE: GetAllResultsAndReset:this <- [$sp+0]
	@DEBUG_VALUE: __range2 <- [$sp+0]
	@DEBUG_VALUE: __get_long_pointer:this <- [DW_OP_plus_uconst 8, DW_OP_stack_value] $sp
	.loc	2 1615 34                       @ C:\Keil_v5\ARM\ARMCLANG\Bin\..\include\libcxx\string:1615:34
	ldr	r0, [sp, #8]
.Ltmp459:
	@DEBUG_VALUE: __do_deallocate_handle_size<>:__size <- [DW_OP_constu 2147483647, DW_OP_and, DW_OP_stack_value] undef
	@DEBUG_VALUE: __libcpp_deallocate:__align <- 1
	@DEBUG_VALUE: __libcpp_deallocate:__size <- [DW_OP_constu 2147483647, DW_OP_and, DW_OP_stack_value] undef
	@DEBUG_VALUE: deallocate:__n <- [DW_OP_constu 2147483647, DW_OP_and, DW_OP_stack_value] undef
	@DEBUG_VALUE: deallocate:this <- [DW_OP_plus_uconst 8, DW_OP_stack_value] $sp
	@DEBUG_VALUE: deallocate:__n <- [DW_OP_constu 2147483647, DW_OP_and, DW_OP_stack_value] undef
	@DEBUG_VALUE: deallocate:__a <- [DW_OP_plus_uconst 8, DW_OP_stack_value] $sp
	@DEBUG_VALUE: __libcpp_operator_delete<void *>:__args <- $r0
	@DEBUG_VALUE: __do_deallocate_handle_size<>:__ptr <- $r0
	@DEBUG_VALUE: __libcpp_deallocate:__ptr <- $r0
	@DEBUG_VALUE: deallocate:__p <- $r0
	@DEBUG_VALUE: deallocate:__p <- $r0
	.loc	63 280 3                        @ C:\Keil_v5\ARM\ARMCLANG\Bin\..\include\libcxx\new:280:3
	bl	_ZdlPv
.Ltmp460:
.LBB9_38:                               @   in Loop: Header=BB9_4 Depth=1
	@DEBUG_VALUE: GetAllResultsAndReset:results <- $r8
	@DEBUG_VALUE: __end2 <- [DW_OP_plus_uconst 4] [$sp+0]
	@DEBUG_VALUE: __begin2 <- $r10
	@DEBUG_VALUE: GetAllResultsAndReset:this <- [$sp+0]
	@DEBUG_VALUE: __range2 <- [$sp+0]
	@DEBUG_VALUE: ~vector:this <- [DW_OP_plus_uconst 36, DW_OP_stack_value] $sp
	.loc	3 431 17                        @ C:\Keil_v5\ARM\ARMCLANG\Bin\..\include\libcxx\vector:431:17
	ldr	r4, [sp, #36]
.Ltmp461:
	.loc	3 431 11 is_stmt 0              @ C:\Keil_v5\ARM\ARMCLANG\Bin\..\include\libcxx\vector:431:11
	cbz	r4, .LBB9_47
.Ltmp462:
@ %bb.39:                               @   in Loop: Header=BB9_4 Depth=1
	@DEBUG_VALUE: ~vector:this <- [DW_OP_plus_uconst 36, DW_OP_stack_value] $sp
	@DEBUG_VALUE: GetAllResultsAndReset:results <- $r8
	@DEBUG_VALUE: __end2 <- [DW_OP_plus_uconst 4] [$sp+0]
	@DEBUG_VALUE: __begin2 <- $r10
	@DEBUG_VALUE: GetAllResultsAndReset:this <- [$sp+0]
	@DEBUG_VALUE: __range2 <- [$sp+0]
	@DEBUG_VALUE: __clear:this <- [DW_OP_plus_uconst 36, DW_OP_stack_value] $sp
	@DEBUG_VALUE: __base_destruct_at_end:this <- [DW_OP_plus_uconst 36, DW_OP_stack_value] $sp
	@DEBUG_VALUE: __base_destruct_at_end:__new_last <- $r4
	.loc	3 832 38 is_stmt 1              @ C:\Keil_v5\ARM\ARMCLANG\Bin\..\include\libcxx\vector:832:38
	ldr	r6, [sp, #40]
.Ltmp463:
	@DEBUG_VALUE: __base_destruct_at_end:__soon_to_be_end <- $r6
	.loc	3 0 38 is_stmt 0                @ C:\Keil_v5\ARM\ARMCLANG\Bin\..\include\libcxx\vector:0:38
	mov	r0, r4
	.loc	3 833 5 is_stmt 1               @ C:\Keil_v5\ARM\ARMCLANG\Bin\..\include\libcxx\vector:833:5
	cmp	r6, r4
	bne	.LBB9_41
	b	.LBB9_46
.Ltmp464:
	.p2align	2
.LBB9_40:                               @   in Loop: Header=BB9_41 Depth=2
	@DEBUG_VALUE: __base_destruct_at_end:__new_last <- $r4
	@DEBUG_VALUE: __base_destruct_at_end:this <- [DW_OP_plus_uconst 36, DW_OP_stack_value] $sp
	@DEBUG_VALUE: __clear:this <- [DW_OP_plus_uconst 36, DW_OP_stack_value] $sp
	@DEBUG_VALUE: ~vector:this <- [DW_OP_plus_uconst 36, DW_OP_stack_value] $sp
	@DEBUG_VALUE: GetAllResultsAndReset:results <- $r8
	@DEBUG_VALUE: __end2 <- [DW_OP_plus_uconst 4] [$sp+0]
	@DEBUG_VALUE: __begin2 <- $r10
	@DEBUG_VALUE: GetAllResultsAndReset:this <- [$sp+0]
	@DEBUG_VALUE: __range2 <- [$sp+0]
	.loc	3 0 0 is_stmt 0                 @ C:\Keil_v5\ARM\ARMCLANG\Bin\..\include\libcxx\vector:0:0
	subs	r6, #64
	@DEBUG_VALUE: __is_long:this <- $r6
	@DEBUG_VALUE: ~basic_string:this <- $r6
	@DEBUG_VALUE: __is_long:this <- [DW_OP_plus_uconst 12, DW_OP_stack_value] $r6
	@DEBUG_VALUE: ~basic_string:this <- [DW_OP_plus_uconst 12, DW_OP_stack_value] $r6
	@DEBUG_VALUE: ~Statistics:this <- $r6
	@DEBUG_VALUE: destroy:__p <- $r6
	@DEBUG_VALUE: destroy<arm::app::Statistics, void>:__p <- $r6
.Ltmp465:
	@DEBUG_VALUE: __base_destruct_at_end:__soon_to_be_end <- $r6
	.loc	3 833 5                         @ C:\Keil_v5\ARM\ARMCLANG\Bin\..\include\libcxx\vector:833:5
	cmp	r6, r4
	beq	.LBB9_45
.Ltmp466:
.LBB9_41:                               @   Parent Loop BB9_4 Depth=1
                                        @ =>  This Inner Loop Header: Depth=2
	@DEBUG_VALUE: __base_destruct_at_end:__soon_to_be_end <- $r6
	@DEBUG_VALUE: __base_destruct_at_end:__new_last <- $r4
	@DEBUG_VALUE: __base_destruct_at_end:this <- [DW_OP_plus_uconst 36, DW_OP_stack_value] $sp
	@DEBUG_VALUE: __clear:this <- [DW_OP_plus_uconst 36, DW_OP_stack_value] $sp
	@DEBUG_VALUE: ~vector:this <- [DW_OP_plus_uconst 36, DW_OP_stack_value] $sp
	@DEBUG_VALUE: GetAllResultsAndReset:results <- $r8
	@DEBUG_VALUE: __end2 <- [DW_OP_plus_uconst 4] [$sp+0]
	@DEBUG_VALUE: __begin2 <- $r10
	@DEBUG_VALUE: GetAllResultsAndReset:this <- [$sp+0]
	@DEBUG_VALUE: __range2 <- [$sp+0]
	@DEBUG_VALUE: __base_destruct_at_end:__soon_to_be_end <- undef
	@DEBUG_VALUE: destroy<arm::app::Statistics, void>:__p <- undef
	@DEBUG_VALUE: destroy:__p <- undef
	@DEBUG_VALUE: ~Statistics:this <- undef
	@DEBUG_VALUE: ~basic_string:this <- [DW_OP_plus_uconst 12, DW_OP_stack_value] undef
	@DEBUG_VALUE: __is_long:this <- [DW_OP_plus_uconst 12, DW_OP_stack_value] undef
	@DEBUG_VALUE: destroy<arm::app::Statistics, void>:__a <- [DW_OP_plus_uconst 36, DW_OP_plus_uconst 8, DW_OP_stack_value] $sp
	@DEBUG_VALUE: destroy:this <- [DW_OP_plus_uconst 36, DW_OP_plus_uconst 8, DW_OP_stack_value] $sp
	.loc	2 1509 33 is_stmt 1             @ C:\Keil_v5\ARM\ARMCLANG\Bin\..\include\libcxx\string:1509:33
	ldrsb	r0, [r6, #-41]
.Ltmp467:
	.loc	2 2337 9                        @ C:\Keil_v5\ARM\ARMCLANG\Bin\..\include\libcxx\string:2337:9
	cmp.w	r0, #-1
	bgt	.LBB9_43
.Ltmp468:
@ %bb.42:                               @   in Loop: Header=BB9_41 Depth=2
	@DEBUG_VALUE: destroy:this <- [DW_OP_plus_uconst 36, DW_OP_plus_uconst 8, DW_OP_stack_value] $sp
	@DEBUG_VALUE: destroy<arm::app::Statistics, void>:__a <- [DW_OP_plus_uconst 36, DW_OP_plus_uconst 8, DW_OP_stack_value] $sp
	@DEBUG_VALUE: __base_destruct_at_end:__new_last <- $r4
	@DEBUG_VALUE: __base_destruct_at_end:this <- [DW_OP_plus_uconst 36, DW_OP_stack_value] $sp
	@DEBUG_VALUE: __clear:this <- [DW_OP_plus_uconst 36, DW_OP_stack_value] $sp
	@DEBUG_VALUE: ~vector:this <- [DW_OP_plus_uconst 36, DW_OP_stack_value] $sp
	@DEBUG_VALUE: GetAllResultsAndReset:results <- $r8
	@DEBUG_VALUE: __end2 <- [DW_OP_plus_uconst 4] [$sp+0]
	@DEBUG_VALUE: __begin2 <- $r10
	@DEBUG_VALUE: GetAllResultsAndReset:this <- [$sp+0]
	@DEBUG_VALUE: __range2 <- [$sp+0]
	@DEBUG_VALUE: ~basic_string:this <- [DW_OP_constu 52, DW_OP_minus, DW_OP_stack_value] $r6
	@DEBUG_VALUE: __is_long:this <- [DW_OP_constu 52, DW_OP_minus, DW_OP_stack_value] $r6
	@DEBUG_VALUE: __get_long_pointer:this <- [DW_OP_plus_uconst 12, DW_OP_stack_value] $r6
	.loc	2 1615 34                       @ C:\Keil_v5\ARM\ARMCLANG\Bin\..\include\libcxx\string:1615:34
	ldr	r0, [r6, #-52]
.Ltmp469:
	@DEBUG_VALUE: __do_deallocate_handle_size<>:__size <- [DW_OP_constu 2147483647, DW_OP_and, DW_OP_stack_value] undef
	@DEBUG_VALUE: __libcpp_deallocate:__align <- 1
	@DEBUG_VALUE: __libcpp_deallocate:__size <- [DW_OP_constu 2147483647, DW_OP_and, DW_OP_stack_value] undef
	@DEBUG_VALUE: deallocate:__n <- [DW_OP_constu 2147483647, DW_OP_and, DW_OP_stack_value] undef
	@DEBUG_VALUE: deallocate:this <- [DW_OP_plus_uconst 12, DW_OP_stack_value] $r6
	@DEBUG_VALUE: deallocate:__n <- [DW_OP_constu 2147483647, DW_OP_and, DW_OP_stack_value] undef
	@DEBUG_VALUE: deallocate:__a <- [DW_OP_plus_uconst 12, DW_OP_stack_value] $r6
	@DEBUG_VALUE: __libcpp_operator_delete<void *>:__args <- $r0
	@DEBUG_VALUE: __do_deallocate_handle_size<>:__ptr <- $r0
	@DEBUG_VALUE: __libcpp_deallocate:__ptr <- $r0
	@DEBUG_VALUE: deallocate:__p <- $r0
	@DEBUG_VALUE: deallocate:__p <- $r0
	.loc	63 280 3                        @ C:\Keil_v5\ARM\ARMCLANG\Bin\..\include\libcxx\new:280:3
	bl	_ZdlPv
.Ltmp470:
.LBB9_43:                               @   in Loop: Header=BB9_41 Depth=2
	@DEBUG_VALUE: destroy:this <- [DW_OP_plus_uconst 36, DW_OP_plus_uconst 8, DW_OP_stack_value] $sp
	@DEBUG_VALUE: destroy<arm::app::Statistics, void>:__a <- [DW_OP_plus_uconst 36, DW_OP_plus_uconst 8, DW_OP_stack_value] $sp
	@DEBUG_VALUE: __base_destruct_at_end:__new_last <- $r4
	@DEBUG_VALUE: __base_destruct_at_end:this <- [DW_OP_plus_uconst 36, DW_OP_stack_value] $sp
	@DEBUG_VALUE: __clear:this <- [DW_OP_plus_uconst 36, DW_OP_stack_value] $sp
	@DEBUG_VALUE: ~vector:this <- [DW_OP_plus_uconst 36, DW_OP_stack_value] $sp
	@DEBUG_VALUE: GetAllResultsAndReset:results <- $r8
	@DEBUG_VALUE: __end2 <- [DW_OP_plus_uconst 4] [$sp+0]
	@DEBUG_VALUE: __begin2 <- $r10
	@DEBUG_VALUE: GetAllResultsAndReset:this <- [$sp+0]
	@DEBUG_VALUE: __range2 <- [$sp+0]
	@DEBUG_VALUE: __base_destruct_at_end:__soon_to_be_end <- undef
	@DEBUG_VALUE: destroy<arm::app::Statistics, void>:__p <- undef
	@DEBUG_VALUE: destroy:__p <- undef
	@DEBUG_VALUE: ~Statistics:this <- undef
	@DEBUG_VALUE: ~basic_string:this <- [DW_OP_plus_uconst 12, DW_OP_stack_value] undef
	@DEBUG_VALUE: __is_long:this <- [DW_OP_plus_uconst 12, DW_OP_stack_value] undef
	@DEBUG_VALUE: ~basic_string:this <- $r6
	@DEBUG_VALUE: __is_long:this <- $r6
	.loc	2 1509 33                       @ C:\Keil_v5\ARM\ARMCLANG\Bin\..\include\libcxx\string:1509:33
	ldrsb	r0, [r6, #-53]
.Ltmp471:
	.loc	2 2337 9                        @ C:\Keil_v5\ARM\ARMCLANG\Bin\..\include\libcxx\string:2337:9
	cmp.w	r0, #-1
	bgt	.LBB9_40
.Ltmp472:
@ %bb.44:                               @   in Loop: Header=BB9_41 Depth=2
	@DEBUG_VALUE: ~basic_string:this <- $r6
	@DEBUG_VALUE: destroy:this <- [DW_OP_plus_uconst 36, DW_OP_plus_uconst 8, DW_OP_stack_value] $sp
	@DEBUG_VALUE: destroy<arm::app::Statistics, void>:__a <- [DW_OP_plus_uconst 36, DW_OP_plus_uconst 8, DW_OP_stack_value] $sp
	@DEBUG_VALUE: __base_destruct_at_end:__new_last <- $r4
	@DEBUG_VALUE: __base_destruct_at_end:this <- [DW_OP_plus_uconst 36, DW_OP_stack_value] $sp
	@DEBUG_VALUE: __clear:this <- [DW_OP_plus_uconst 36, DW_OP_stack_value] $sp
	@DEBUG_VALUE: ~vector:this <- [DW_OP_plus_uconst 36, DW_OP_stack_value] $sp
	@DEBUG_VALUE: GetAllResultsAndReset:results <- $r8
	@DEBUG_VALUE: __end2 <- [DW_OP_plus_uconst 4] [$sp+0]
	@DEBUG_VALUE: __begin2 <- $r10
	@DEBUG_VALUE: GetAllResultsAndReset:this <- [$sp+0]
	@DEBUG_VALUE: __range2 <- [$sp+0]
	@DEBUG_VALUE: __get_long_pointer:this <- $r6
	.loc	2 1615 34                       @ C:\Keil_v5\ARM\ARMCLANG\Bin\..\include\libcxx\string:1615:34
	ldr	r0, [r6, #-64]
.Ltmp473:
	@DEBUG_VALUE: __do_deallocate_handle_size<>:__size <- [DW_OP_constu 2147483647, DW_OP_and, DW_OP_stack_value] undef
	@DEBUG_VALUE: __libcpp_deallocate:__align <- 1
	@DEBUG_VALUE: __libcpp_deallocate:__size <- [DW_OP_constu 2147483647, DW_OP_and, DW_OP_stack_value] undef
	@DEBUG_VALUE: deallocate:__n <- [DW_OP_constu 2147483647, DW_OP_and, DW_OP_stack_value] undef
	@DEBUG_VALUE: deallocate:this <- $r6
	@DEBUG_VALUE: deallocate:__n <- [DW_OP_constu 2147483647, DW_OP_and, DW_OP_stack_value] undef
	@DEBUG_VALUE: deallocate:__a <- $r6
	@DEBUG_VALUE: __libcpp_operator_delete<void *>:__args <- $r0
	@DEBUG_VALUE: __do_deallocate_handle_size<>:__ptr <- $r0
	@DEBUG_VALUE: __libcpp_deallocate:__ptr <- $r0
	@DEBUG_VALUE: deallocate:__p <- $r0
	@DEBUG_VALUE: deallocate:__p <- $r0
	.loc	63 280 3                        @ C:\Keil_v5\ARM\ARMCLANG\Bin\..\include\libcxx\new:280:3
	bl	_ZdlPv
.Ltmp474:
	.loc	63 0 3 is_stmt 0                @ C:\Keil_v5\ARM\ARMCLANG\Bin\..\include\libcxx\new:0:3
	b	.LBB9_40
.Ltmp475:
	.p2align	2
.LBB9_45:                               @   in Loop: Header=BB9_4 Depth=1
	@DEBUG_VALUE: ~vector:this <- [DW_OP_plus_uconst 36, DW_OP_stack_value] $sp
	@DEBUG_VALUE: GetAllResultsAndReset:results <- $r8
	@DEBUG_VALUE: __end2 <- [DW_OP_plus_uconst 4] [$sp+0]
	@DEBUG_VALUE: __begin2 <- $r10
	@DEBUG_VALUE: GetAllResultsAndReset:this <- [$sp+0]
	@DEBUG_VALUE: __range2 <- [$sp+0]
	.loc	3 434 53 is_stmt 1              @ C:\Keil_v5\ARM\ARMCLANG\Bin\..\include\libcxx\vector:434:53
	ldr	r0, [sp, #36]
.Ltmp476:
.LBB9_46:                               @   in Loop: Header=BB9_4 Depth=1
	@DEBUG_VALUE: ~vector:this <- [DW_OP_plus_uconst 36, DW_OP_stack_value] $sp
	@DEBUG_VALUE: GetAllResultsAndReset:results <- $r8
	@DEBUG_VALUE: __end2 <- [DW_OP_plus_uconst 4] [$sp+0]
	@DEBUG_VALUE: __begin2 <- $r10
	@DEBUG_VALUE: GetAllResultsAndReset:this <- [$sp+0]
	@DEBUG_VALUE: __range2 <- [$sp+0]
	.loc	3 835 18                        @ C:\Keil_v5\ARM\ARMCLANG\Bin\..\include\libcxx\vector:835:18
	str	r4, [sp, #40]
.Ltmp477:
	@DEBUG_VALUE: __libcpp_operator_delete<void *>:__args <- $r0
	@DEBUG_VALUE: __do_deallocate_handle_size<>:__size <- [DW_OP_LLVM_arg 0, DW_OP_LLVM_arg 1, DW_OP_minus, DW_OP_constu 6, DW_OP_shra, DW_OP_constu 6, DW_OP_shl, DW_OP_stack_value] undef, undef
	@DEBUG_VALUE: __do_deallocate_handle_size<>:__ptr <- $r0
	@DEBUG_VALUE: __libcpp_deallocate:__align <- 8
	@DEBUG_VALUE: __libcpp_deallocate:__size <- [DW_OP_LLVM_arg 0, DW_OP_LLVM_arg 1, DW_OP_minus, DW_OP_constu 6, DW_OP_shra, DW_OP_constu 6, DW_OP_shl, DW_OP_stack_value] undef, undef
	@DEBUG_VALUE: __libcpp_deallocate:__ptr <- $r0
	@DEBUG_VALUE: deallocate:__n <- [DW_OP_LLVM_arg 0, DW_OP_LLVM_arg 1, DW_OP_minus, DW_OP_constu 6, DW_OP_shra, DW_OP_stack_value] undef, undef
	@DEBUG_VALUE: deallocate:__p <- $r0
	@DEBUG_VALUE: deallocate:this <- [DW_OP_plus_uconst 36, DW_OP_plus_uconst 8, DW_OP_stack_value] $sp
	@DEBUG_VALUE: deallocate:__n <- [DW_OP_LLVM_arg 0, DW_OP_LLVM_arg 1, DW_OP_minus, DW_OP_constu 6, DW_OP_shra, DW_OP_stack_value] undef, undef
	@DEBUG_VALUE: deallocate:__p <- $r0
	@DEBUG_VALUE: deallocate:__a <- [DW_OP_plus_uconst 36, DW_OP_plus_uconst 8, DW_OP_stack_value] $sp
	.loc	63 280 3                        @ C:\Keil_v5\ARM\ARMCLANG\Bin\..\include\libcxx\new:280:3
	bl	_ZdlPv
.Ltmp478:
.LBB9_47:                               @   in Loop: Header=BB9_4 Depth=1
	@DEBUG_VALUE: GetAllResultsAndReset:results <- $r8
	@DEBUG_VALUE: __end2 <- [DW_OP_plus_uconst 4] [$sp+0]
	@DEBUG_VALUE: __begin2 <- $r10
	@DEBUG_VALUE: GetAllResultsAndReset:this <- [$sp+0]
	@DEBUG_VALUE: __range2 <- [$sp+0]
	@DEBUG_VALUE: ~basic_string:this <- [DW_OP_plus_uconst 48, DW_OP_stack_value] $sp
	@DEBUG_VALUE: __is_long:this <- [DW_OP_plus_uconst 48, DW_OP_stack_value] $sp
	.loc	2 1509 33                       @ C:\Keil_v5\ARM\ARMCLANG\Bin\..\include\libcxx\string:1509:33
	ldrsb.w	r0, [sp, #59]
.Ltmp479:
	.loc	2 2337 9                        @ C:\Keil_v5\ARM\ARMCLANG\Bin\..\include\libcxx\string:2337:9
	cmp.w	r0, #-1
	bgt	.LBB9_49
.Ltmp480:
@ %bb.48:                               @   in Loop: Header=BB9_4 Depth=1
	@DEBUG_VALUE: ~basic_string:this <- [DW_OP_plus_uconst 48, DW_OP_stack_value] $sp
	@DEBUG_VALUE: GetAllResultsAndReset:results <- $r8
	@DEBUG_VALUE: __end2 <- [DW_OP_plus_uconst 4] [$sp+0]
	@DEBUG_VALUE: __begin2 <- $r10
