	.text
	.syntax unified
	.eabi_attribute	67, "2.09"	@ Tag_conformance
	.cpu	cortex-m55
	.eabi_attribute	6, 21	@ Tag_CPU_arch
	.eabi_attribute	7, 77	@ Tag_CPU_arch_profile
	.eabi_attribute	8, 0	@ Tag_ARM_ISA_use
	.eabi_attribute	9, 3	@ Tag_THUMB_ISA_use
	.fpu	fpv5-d16
	.arch_extension	mve.fp
	.eabi_attribute	36, 1	@ Tag_FP_HP_extension
	.eabi_attribute	48, 2	@ Tag_MVE_arch
	.eabi_attribute	46, 1	@ Tag_DSP_extension
	.eabi_attribute	34, 1	@ Tag_CPU_unaligned_access
	.eabi_attribute	17, 1	@ Tag_ABI_PCS_GOT_use
	.eabi_attribute	20, 2	@ Tag_ABI_FP_denormal
	.eabi_attribute	21, 0	@ Tag_ABI_FP_exceptions
	.eabi_attribute	23, 1	@ Tag_ABI_FP_number_model
	.eabi_attribute	24, 1	@ Tag_ABI_align_needed
	.eabi_attribute	25, 1	@ Tag_ABI_align_preserved
	.eabi_attribute	28, 1	@ Tag_ABI_VFP_args
	.eabi_attribute	38, 1	@ Tag_ABI_FP_16bit_format
	.eabi_attribute	18, 2	@ Tag_ABI_PCS_wchar_t
	.eabi_attribute	26, 1	@ Tag_ABI_enum_size
	.eabi_attribute	14, 0	@ Tag_ABI_PCS_R9_use
	.file	"system_M55M1.c"
	.file	1 "C:\\Keil_v5\\ARM\\ARMCLANG\\bin\\..\\include" "stdint.h"
	.file	2 "D:\\M55M1_NuEdgeWise\\ML_M55M1_SampleCode\\M55M1BSP-3.00.001\\SampleCode\\NuEdgeWise\\ObjectDetection_FreeRTOS_yoloxn\\KEIL" "../../../../Library/Device/Nuvoton/M55M1/Source/system_M55M1.c"
	.file	3 "D:\\M55M1_NuEdgeWise\\ML_M55M1_SampleCode\\M55M1BSP-3.00.001\\SampleCode\\NuEdgeWise\\ObjectDetection_FreeRTOS_yoloxn\\KEIL" "..\\mpu_config_M55M1.h"
	.file	4 "D:\\M55M1_NuEdgeWise\\ML_M55M1_SampleCode\\M55M1BSP-3.00.001\\SampleCode\\NuEdgeWise\\ObjectDetection_FreeRTOS_yoloxn\\KEIL" "../../../../Library/Device/Nuvoton/M55M1/Include\\sys_reg.h"
	.file	5 "D:\\M55M1_NuEdgeWise\\ML_M55M1_SampleCode\\M55M1BSP-3.00.001\\SampleCode\\NuEdgeWise\\ObjectDetection_FreeRTOS_yoloxn\\KEIL" "../../../../Library/Device/Nuvoton/M55M1/Include\\uart_reg.h"
	.file	6 "D:\\M55M1_NuEdgeWise\\ML_M55M1_SampleCode\\M55M1BSP-3.00.001\\SampleCode\\NuEdgeWise\\ObjectDetection_FreeRTOS_yoloxn\\KEIL" "../../../../Library/CMSIS/Core/Include\\core_cm55.h"
	.file	7 "D:\\M55M1_NuEdgeWise\\ML_M55M1_SampleCode\\M55M1BSP-3.00.001\\SampleCode\\NuEdgeWise\\ObjectDetection_FreeRTOS_yoloxn\\KEIL" "../../../../Library/Device/Nuvoton/M55M1/Include\\ccap_reg.h"
	.section	.text.SystemCoreClockUpdate,"ax",%progbits
	.hidden	SystemCoreClockUpdate           @ -- Begin function SystemCoreClockUpdate
	.globl	SystemCoreClockUpdate
	.p2align	2
	.type	SystemCoreClockUpdate,%function
	.code	16                              @ @SystemCoreClockUpdate
	.thumb_func
SystemCoreClockUpdate:
.Lfunc_begin0:
	.loc	2 62 0                          @ ../../../../Library/Device/Nuvoton/M55M1/Source/system_M55M1.c:62:0
	.fnstart
	.cfi_sections .debug_frame
	.cfi_startproc
@ %bb.0:
	.save	{r7, lr}
	push	{r7, lr}
	.cfi_def_cfa_offset 8
	.cfi_offset lr, -4
	.cfi_offset r7, -8
.Ltmp0:
	.loc	2 65 15 prologue_end            @ ../../../../Library/Device/Nuvoton/M55M1/Source/system_M55M1.c:65:15
	bl	CLK_SystemClockUpdate
.Ltmp1:
	@DEBUG_VALUE: SystemCoreClockUpdate:u32Freq <- $r0
	.loc	2 70 36                         @ ../../../../Library/Device/Nuvoton/M55M1/Source/system_M55M1.c:70:36
	add.w	r1, r0, #499712
	movw	r2, #56963
	add.w	r1, r1, #288
	movt	r2, #17179
	.loc	2 70 48 is_stmt 0               @ ../../../../Library/Device/Nuvoton/M55M1/Source/system_M55M1.c:70:48
	umull	r1, r2, r1, r2
	.loc	2 68 21 is_stmt 1               @ ../../../../Library/Device/Nuvoton/M55M1/Source/system_M55M1.c:68:21
	movw	r1, :lower16:SystemCoreClock
	movt	r1, :upper16:SystemCoreClock
	str	r0, [r1]
	.loc	2 70 17                         @ ../../../../Library/Device/Nuvoton/M55M1/Source/system_M55M1.c:70:17
	movw	r1, :lower16:CyclesPerUs
	.loc	2 70 48 is_stmt 0               @ ../../../../Library/Device/Nuvoton/M55M1/Source/system_M55M1.c:70:48
	lsrs	r0, r2, #18
.Ltmp2:
	.loc	2 70 17                         @ ../../../../Library/Device/Nuvoton/M55M1/Source/system_M55M1.c:70:17
	movt	r1, :upper16:CyclesPerUs
	str	r0, [r1]
	.loc	2 71 1 epilogue_begin is_stmt 1 @ ../../../../Library/Device/Nuvoton/M55M1/Source/system_M55M1.c:71:1
	pop	{r7, pc}
.Ltmp3:
.Lfunc_end0:
	.size	SystemCoreClockUpdate, .Lfunc_end0-SystemCoreClockUpdate
	.cfi_endproc
	.cantunwind
	.fnend
                                        @ -- End function
	.section	.text.SetDebugUartMFP,"ax",%progbits
	.hidden	SetDebugUartMFP                 @ -- Begin function SetDebugUartMFP
	.weak	SetDebugUartMFP
	.p2align	2
	.type	SetDebugUartMFP,%function
	.code	16                              @ @SetDebugUartMFP
	.thumb_func
SetDebugUartMFP:
.Lfunc_begin1:
	.loc	2 82 0                          @ ../../../../Library/Device/Nuvoton/M55M1/Source/system_M55M1.c:82:0
	.fnstart
	.cfi_startproc
@ %bb.0:
	movw	r0, #884
	movs	r2, #5
	movt	r0, #16384
.Ltmp4:
	.loc	2 90 5 prologue_end             @ ../../../../Library/Device/Nuvoton/M55M1/Source/system_M55M1.c:90:5
	ldr	r1, [r0]
	bfi	r1, r2, #8, #5
	str	r1, [r0]
	.loc	2 91 5                          @ ../../../../Library/Device/Nuvoton/M55M1/Source/system_M55M1.c:91:5
	ldr	r1, [r0]
	bfi	r1, r2, #0, #5
	str	r1, [r0]
	.loc	2 94 1                          @ ../../../../Library/Device/Nuvoton/M55M1/Source/system_M55M1.c:94:1
	bx	lr
.Ltmp5:
.Lfunc_end1:
	.size	SetDebugUartMFP, .Lfunc_end1-SetDebugUartMFP
	.cfi_endproc
	.cantunwind
	.fnend
                                        @ -- End function
	.section	.text.SetDebugUartCLK,"ax",%progbits
	.hidden	SetDebugUartCLK                 @ -- Begin function SetDebugUartCLK
	.weak	SetDebugUartCLK
	.p2align	2
	.type	SetDebugUartCLK,%function
	.code	16                              @ @SetDebugUartCLK
	.thumb_func
SetDebugUartCLK:
.Lfunc_begin2:
	.loc	2 104 0                         @ ../../../../Library/Device/Nuvoton/M55M1/Source/system_M55M1.c:104:0
	.fnstart
	.cfi_startproc
@ %bb.0:
	.save	{r4, r5, r7, lr}
	push	{r4, r5, r7, lr}
	.cfi_def_cfa_offset 16
	.cfi_offset lr, -4
	.cfi_offset r7, -8
	.cfi_offset r5, -12
	.cfi_offset r4, -16
.Ltmp6:
	.loc	2 107 5 prologue_end            @ ../../../../Library/Device/Nuvoton/M55M1/Source/system_M55M1.c:107:5
	movs	r0, #16
	bl	CLK_EnableXtalRC
.Ltmp7:
	.loc	2 110 5                         @ ../../../../Library/Device/Nuvoton/M55M1/Source/system_M55M1.c:110:5
	movs	r0, #16
	bl	CLK_WaitClockReady
.Ltmp8:
	.loc	2 0 5 is_stmt 0                 @ ../../../../Library/Device/Nuvoton/M55M1/Source/system_M55M1.c:0:5
	movw	r4, #39704
	movw	r5, #3079
	movt	r4, #33671
	.loc	2 116 5 is_stmt 1               @ ../../../../Library/Device/Nuvoton/M55M1/Source/system_M55M1.c:116:5
	movs	r2, #0
	movt	r5, #28
	mov	r0, r4
	mov	r1, r5
	movs	r3, #0
	bl	CLK_SetModuleClock
.Ltmp9:
	.loc	2 119 5                         @ ../../../../Library/Device/Nuvoton/M55M1/Source/system_M55M1.c:119:5
	mov	r0, r4
	mov	r1, r5
	bl	CLK_EnableModuleClock
.Ltmp10:
	.loc	2 0 5 is_stmt 0                 @ ../../../../Library/Device/Nuvoton/M55M1/Source/system_M55M1.c:0:5
	movs	r0, #6
	movt	r0, #11456
	.loc	2 122 5 epilogue_begin is_stmt 1 @ ../../../../Library/Device/Nuvoton/M55M1/Source/system_M55M1.c:122:5
	pop.w	{r4, r5, r7, lr}
.Ltmp11:
	b	SYS_ResetModule
.Ltmp12:
.Lfunc_end2:
	.size	SetDebugUartCLK, .Lfunc_end2-SetDebugUartCLK
	.cfi_endproc
	.file	8 "D:\\M55M1_NuEdgeWise\\ML_M55M1_SampleCode\\M55M1BSP-3.00.001\\SampleCode\\NuEdgeWise\\ObjectDetection_FreeRTOS_yoloxn\\KEIL" "../../../../Library/StdDriver/inc\\sys.h"
	.cantunwind
	.fnend
                                        @ -- End function
	.section	.text.InitDebugUart,"ax",%progbits
	.hidden	InitDebugUart                   @ -- Begin function InitDebugUart
	.weak	InitDebugUart
	.p2align	2
	.type	InitDebugUart,%function
	.code	16                              @ @InitDebugUart
	.thumb_func
InitDebugUart:
.Lfunc_begin3:
	.loc	2 134 0                         @ ../../../../Library/Device/Nuvoton/M55M1/Source/system_M55M1.c:134:0
	.fnstart
	.cfi_startproc
@ %bb.0:
	movs	r0, #0
.Ltmp13:
	.loc	2 137 5 prologue_end            @ ../../../../Library/Device/Nuvoton/M55M1/Source/system_M55M1.c:137:5
	mov.w	r1, #115200
	movt	r0, #16421
.Ltmp14:
	b	UART_Open
.Ltmp15:
.Lfunc_end3:
	.size	InitDebugUart, .Lfunc_end3-InitDebugUart
	.cfi_endproc
	.file	9 "D:\\M55M1_NuEdgeWise\\ML_M55M1_SampleCode\\M55M1BSP-3.00.001\\SampleCode\\NuEdgeWise\\ObjectDetection_FreeRTOS_yoloxn\\KEIL" "../../../../Library/StdDriver/inc\\uart.h"
	.cantunwind
	.fnend
                                        @ -- End function
	.section	.text.InitPreDefMPURegion,"ax",%progbits
	.hidden	InitPreDefMPURegion             @ -- Begin function InitPreDefMPURegion
	.weak	InitPreDefMPURegion
	.p2align	2
	.type	InitPreDefMPURegion,%function
	.code	16                              @ @InitPreDefMPURegion
	.thumb_func
InitPreDefMPURegion:
.Lfunc_begin4:
	.loc	2 153 0                         @ ../../../../Library/Device/Nuvoton/M55M1/Source/system_M55M1.c:153:0
	.fnstart
	.cfi_startproc
@ %bb.0:
	@DEBUG_VALUE: InitPreDefMPURegion:psMPURegion <- $r0
	@DEBUG_VALUE: InitPreDefMPURegion:u32RegionCnt <- $r1
	.save	{r4, r5, r6, r7, r8, r9, r10, r11, lr}
	push.w	{r4, r5, r6, r7, r8, r9, r10, r11, lr}
	.cfi_def_cfa_offset 36
	.cfi_offset lr, -4
	.cfi_offset r11, -8
	.cfi_offset r10, -12
	.cfi_offset r9, -16
	.cfi_offset r8, -20
	.cfi_offset r7, -24
	.cfi_offset r6, -28
	.cfi_offset r5, -32
	.cfi_offset r4, -36
	.pad	#12
	sub	sp, #12
	.cfi_def_cfa_offset 48
	movw	r6, #61280
	movw	r2, #65120
	movt	r6, #57344
	mov	r9, r1
.Ltmp16:
	@DEBUG_VALUE: InitPreDefMPURegion:u32RegionCnt <- $r9
	@DEBUG_VALUE: InitPreDefMPURegion:u32RegionCnt <- $r9
	movt	r2, #65535
.Ltmp17:
	@DEBUG_VALUE: ARM_MPU_SetMemAttrEx:mask <- 255
	@DEBUG_VALUE: ARM_MPU_SetMemAttrEx:pos <- 0
	@DEBUG_VALUE: ARM_MPU_SetMemAttrEx:reg <- 0
	@DEBUG_VALUE: ARM_MPU_SetMemAttrEx:attr <- 0
	@DEBUG_VALUE: ARM_MPU_SetMemAttrEx:idx <- 0
	@DEBUG_VALUE: ARM_MPU_SetMemAttrEx:mpu <- -536810096
	@DEBUG_VALUE: ARM_MPU_SetMemAttr:attr <- 0
	@DEBUG_VALUE: ARM_MPU_SetMemAttr:idx <- 0
	@DEBUG_VALUE: InitPreDefMPURegion:WBWARA <- 15
	@DEBUG_VALUE: InitPreDefMPURegion:WTRA <- 10
	@DEBUG_VALUE: InitPreDefMPURegion:i32RegionIdx <- 0
	@DEBUG_VALUE: InitPreDefMPURegion:i32RetCode <- 0
	mov	r10, r0
.Ltmp18:
	@DEBUG_VALUE: InitPreDefMPURegion:psMPURegion <- $r10
	@DEBUG_VALUE: InitPreDefMPURegion:psMPURegion <- $r10
	.file	10 "D:\\M55M1_NuEdgeWise\\ML_M55M1_SampleCode\\M55M1BSP-3.00.001\\SampleCode\\NuEdgeWise\\ObjectDetection_FreeRTOS_yoloxn\\KEIL" "../../../../Library/CMSIS/Core/Include\\mpu_armv8.h"
	.loc	10 198 22 prologue_end          @ ../../../../Library/CMSIS/Core/Include\mpu_armv8.h:198:22
	ldr	r3, [r6, r2]
	movw	r4, #65084
	movt	r4, #65535
	movw	r5, #65088
	.loc	10 198 37 is_stmt 0             @ ../../../../Library/CMSIS/Core/Include\mpu_armv8.h:198:37
	bic	r1, r3, #255
	movs	r3, #16
	.loc	10 198 18                       @ ../../../../Library/CMSIS/Core/Include\mpu_armv8.h:198:18
	str	r1, [r6, r2]
.Ltmp19:
	@DEBUG_VALUE: ARM_MPU_SetMemAttrEx:mask <- 65280
	@DEBUG_VALUE: ARM_MPU_SetMemAttrEx:pos <- 8
	@DEBUG_VALUE: ARM_MPU_SetMemAttrEx:reg <- 0
	@DEBUG_VALUE: ARM_MPU_SetMemAttrEx:attr <- 16
	@DEBUG_VALUE: ARM_MPU_SetMemAttrEx:idx <- 1
	@DEBUG_VALUE: ARM_MPU_SetMemAttrEx:mpu <- -536810096
	@DEBUG_VALUE: ARM_MPU_SetMemAttr:attr <- 16
	@DEBUG_VALUE: ARM_MPU_SetMemAttr:idx <- 1
	.loc	10 198 22                       @ ../../../../Library/CMSIS/Core/Include\mpu_armv8.h:198:22
	ldr	r1, [r6, r2]
	movt	r5, #65535
	.loc	10 198 46                       @ ../../../../Library/CMSIS/Core/Include\mpu_armv8.h:198:46
	bfi	r1, r3, #8, #8
	.loc	10 198 18                       @ ../../../../Library/CMSIS/Core/Include\mpu_armv8.h:198:18
	str	r1, [r6, r2]
.Ltmp20:
	@DEBUG_VALUE: ARM_MPU_SetMemAttrEx:mask <- 16711680
	@DEBUG_VALUE: ARM_MPU_SetMemAttrEx:pos <- 16
	@DEBUG_VALUE: ARM_MPU_SetMemAttrEx:reg <- 0
	@DEBUG_VALUE: ARM_MPU_SetMemAttrEx:attr <- 34
	@DEBUG_VALUE: ARM_MPU_SetMemAttrEx:idx <- 2
	@DEBUG_VALUE: ARM_MPU_SetMemAttrEx:mpu <- -536810096
	@DEBUG_VALUE: ARM_MPU_SetMemAttr:attr <- 34
	@DEBUG_VALUE: ARM_MPU_SetMemAttr:idx <- 2
	.loc	10 0 18                         @ ../../../../Library/CMSIS/Core/Include\mpu_armv8.h:0:18
	movs	r3, #34
.Ltmp21:
	.loc	10 198 22                       @ ../../../../Library/CMSIS/Core/Include\mpu_armv8.h:198:22
	ldr	r1, [r6, r2]
.Ltmp22:
	.loc	2 246 9 is_stmt 1               @ ../../../../Library/Device/Nuvoton/M55M1/Source/system_M55M1.c:246:9
	cmp.w	r10, #0
.Ltmp23:
	.loc	10 198 46                       @ ../../../../Library/CMSIS/Core/Include\mpu_armv8.h:198:46
	bfi	r1, r3, #16, #8
	.loc	10 198 18 is_stmt 0             @ ../../../../Library/CMSIS/Core/Include\mpu_armv8.h:198:18
	str	r1, [r6, r2]
.Ltmp24:
	@DEBUG_VALUE: ARM_MPU_SetMemAttrEx:mask <- -16777216
	@DEBUG_VALUE: ARM_MPU_SetMemAttrEx:pos <- 24
	@DEBUG_VALUE: ARM_MPU_SetMemAttrEx:reg <- 0
	@DEBUG_VALUE: ARM_MPU_SetMemAttrEx:attr <- 51
	@DEBUG_VALUE: ARM_MPU_SetMemAttrEx:idx <- 3
	@DEBUG_VALUE: ARM_MPU_SetMemAttrEx:mpu <- -536810096
	@DEBUG_VALUE: ARM_MPU_SetMemAttr:attr <- 51
	@DEBUG_VALUE: ARM_MPU_SetMemAttr:idx <- 3
	.loc	10 0 18                         @ ../../../../Library/CMSIS/Core/Include\mpu_armv8.h:0:18
	mov.w	r3, #51
.Ltmp25:
	.loc	10 198 22                       @ ../../../../Library/CMSIS/Core/Include\mpu_armv8.h:198:22
	ldr	r1, [r6, r2]
	.loc	10 198 46                       @ ../../../../Library/CMSIS/Core/Include\mpu_armv8.h:198:46
	bfi	r1, r3, #24, #8
	movw	r3, #65124
	.loc	10 198 18                       @ ../../../../Library/CMSIS/Core/Include\mpu_armv8.h:198:18
	str	r1, [r6, r2]
	movt	r3, #65535
.Ltmp26:
	@DEBUG_VALUE: ARM_MPU_SetMemAttrEx:mask <- 255
	@DEBUG_VALUE: ARM_MPU_SetMemAttrEx:pos <- 0
	@DEBUG_VALUE: ARM_MPU_SetMemAttrEx:reg <- 1
	@DEBUG_VALUE: ARM_MPU_SetMemAttrEx:attr <- 68
	@DEBUG_VALUE: ARM_MPU_SetMemAttrEx:idx <- 4
	@DEBUG_VALUE: ARM_MPU_SetMemAttrEx:mpu <- -536810096
	@DEBUG_VALUE: ARM_MPU_SetMemAttr:attr <- 68
	@DEBUG_VALUE: ARM_MPU_SetMemAttr:idx <- 4
	.loc	10 0 18                         @ ../../../../Library/CMSIS/Core/Include\mpu_armv8.h:0:18
	mov.w	r2, #68
.Ltmp27:
	.loc	10 198 22                       @ ../../../../Library/CMSIS/Core/Include\mpu_armv8.h:198:22
	ldr	r1, [r6, r3]
	.loc	10 198 46                       @ ../../../../Library/CMSIS/Core/Include\mpu_armv8.h:198:46
	bfi	r1, r2, #0, #8
	.loc	10 198 18                       @ ../../../../Library/CMSIS/Core/Include\mpu_armv8.h:198:18
	str	r1, [r6, r3]
.Ltmp28:
	@DEBUG_VALUE: ARM_MPU_SetMemAttrEx:mask <- 65280
	@DEBUG_VALUE: ARM_MPU_SetMemAttrEx:pos <- 8
	@DEBUG_VALUE: ARM_MPU_SetMemAttrEx:reg <- 1
	@DEBUG_VALUE: ARM_MPU_SetMemAttrEx:attr <- -86
	@DEBUG_VALUE: ARM_MPU_SetMemAttrEx:idx <- 5
	@DEBUG_VALUE: ARM_MPU_SetMemAttrEx:mpu <- -536810096
	@DEBUG_VALUE: ARM_MPU_SetMemAttr:attr <- -86
	@DEBUG_VALUE: ARM_MPU_SetMemAttr:idx <- 5
	.loc	10 0 18                         @ ../../../../Library/CMSIS/Core/Include\mpu_armv8.h:0:18
	mov.w	r2, #170
.Ltmp29:
	.loc	10 198 22                       @ ../../../../Library/CMSIS/Core/Include\mpu_armv8.h:198:22
	ldr	r1, [r6, r3]
	.loc	10 198 46                       @ ../../../../Library/CMSIS/Core/Include\mpu_armv8.h:198:46
	bfi	r1, r2, #8, #8
	.loc	10 198 18                       @ ../../../../Library/CMSIS/Core/Include\mpu_armv8.h:198:18
	str	r1, [r6, r3]
.Ltmp30:
	@DEBUG_VALUE: ARM_MPU_SetMemAttrEx:mask <- 16711680
	@DEBUG_VALUE: ARM_MPU_SetMemAttrEx:pos <- 16
	@DEBUG_VALUE: ARM_MPU_SetMemAttrEx:reg <- 1
	@DEBUG_VALUE: ARM_MPU_SetMemAttrEx:attr <- -1
	@DEBUG_VALUE: ARM_MPU_SetMemAttrEx:idx <- 6
	@DEBUG_VALUE: ARM_MPU_SetMemAttrEx:mpu <- -536810096
	@DEBUG_VALUE: ARM_MPU_SetMemAttr:attr <- -1
	@DEBUG_VALUE: ARM_MPU_SetMemAttr:idx <- 6
	.loc	10 198 22                       @ ../../../../Library/CMSIS/Core/Include\mpu_armv8.h:198:22
	ldr	r1, [r6, r3]
	.loc	10 198 46                       @ ../../../../Library/CMSIS/Core/Include\mpu_armv8.h:198:46
	orr	r0, r1, #16711680
	movw	r1, #65080
	.loc	10 198 18                       @ ../../../../Library/CMSIS/Core/Include\mpu_armv8.h:198:18
	str	r0, [r6, r3]
	mov.w	r0, #0
.Ltmp31:
	@DEBUG_VALUE: ARM_MPU_SetRegionEx:rlar <- 1611661281
	@DEBUG_VALUE: ARM_MPU_SetRegionEx:rbar <- 1610612739
	@DEBUG_VALUE: ARM_MPU_SetRegionEx:rnr <- 0
	@DEBUG_VALUE: ARM_MPU_SetRegionEx:mpu <- -536810096
	@DEBUG_VALUE: ARM_MPU_SetRegion:rlar <- 1611661281
	@DEBUG_VALUE: ARM_MPU_SetRegion:rbar <- 1610612739
	@DEBUG_VALUE: ARM_MPU_SetRegion:rnr <- 0
	.loc	10 0 18                         @ ../../../../Library/CMSIS/Core/Include\mpu_armv8.h:0:18
	movt	r1, #65535
.Ltmp32:
	.loc	10 257 12 is_stmt 1             @ ../../../../Library/CMSIS/Core/Include\mpu_armv8.h:257:12
	str	r0, [r6, r1]
	movw	r0, #3
	movt	r0, #24576
	.loc	10 258 13                       @ ../../../../Library/CMSIS/Core/Include\mpu_armv8.h:258:13
	str	r0, [r6, r4]
	movw	r0, #65505
	movt	r0, #24591
	.loc	10 259 13                       @ ../../../../Library/CMSIS/Core/Include\mpu_armv8.h:259:13
	str	r0, [r6, r5]
.Ltmp33:
	@DEBUG_VALUE: ARM_MPU_SetRegionEx:rlar <- 1611661281
	@DEBUG_VALUE: ARM_MPU_SetRegionEx:rbar <- 1610612739
	@DEBUG_VALUE: ARM_MPU_SetRegionEx:rnr <- 0
	@DEBUG_VALUE: ARM_MPU_SetRegionEx:mpu <- -536810096
	@DEBUG_VALUE: ARM_MPU_SetRegion:rlar <- 1611661281
	@DEBUG_VALUE: ARM_MPU_SetRegion:rbar <- 1610612739
	@DEBUG_VALUE: ARM_MPU_SetRegion:rnr <- 0
	@DEBUG_VALUE: InitPreDefMPURegion:i32RegionIdx <- 1
	.loc	2 246 9                         @ ../../../../Library/Device/Nuvoton/M55M1/Source/system_M55M1.c:246:9
	beq.w	.LBB4_17
.Ltmp34:
@ %bb.1:
	@DEBUG_VALUE: InitPreDefMPURegion:i32RegionIdx <- 1
	@DEBUG_VALUE: InitPreDefMPURegion:psMPURegion <- $r10
	@DEBUG_VALUE: InitPreDefMPURegion:i32RetCode <- 0
	@DEBUG_VALUE: InitPreDefMPURegion:WTRA <- 10
	@DEBUG_VALUE: InitPreDefMPURegion:WBWARA <- 15
	@DEBUG_VALUE: InitPreDefMPURegion:u32RegionCnt <- $r9
	.loc	2 248 9                         @ ../../../../Library/Device/Nuvoton/M55M1/Source/system_M55M1.c:248:9
	adr.w	r0, .LCPI4_0
	mov	r1, r9
	movs	r2, #7
	bl	__2printf
.Ltmp35:
	.loc	2 250 13                        @ ../../../../Library/Device/Nuvoton/M55M1/Source/system_M55M1.c:250:13
	cmp.w	r9, #5
	ittt	hi
	movhi.w	r0, #-1
.Ltmp36:
	.loc	2 316 1 epilogue_begin          @ ../../../../Library/Device/Nuvoton/M55M1/Source/system_M55M1.c:316:1
	addhi	sp, #12
	pophi.w	{r4, r5, r6, r7, r8, r9, r10, r11, pc}
.Ltmp37:
.LBB4_2:
	@DEBUG_VALUE: InitPreDefMPURegion:i32RegionIdx <- 1
	@DEBUG_VALUE: InitPreDefMPURegion:i32RetCode <- 0
	@DEBUG_VALUE: InitPreDefMPURegion:WTRA <- 10
	@DEBUG_VALUE: InitPreDefMPURegion:WBWARA <- 15
	@DEBUG_VALUE: ARM_MPU_Load:rnr <- 1
	@DEBUG_VALUE: ARM_MPU_Load:table <- $r10
	@DEBUG_VALUE: ARM_MPU_Load:cnt <- $r9
	@DEBUG_VALUE: ARM_MPU_LoadEx:mpu <- -536810096
	@DEBUG_VALUE: ARM_MPU_LoadEx:rnr <- 1
	@DEBUG_VALUE: ARM_MPU_LoadEx:table <- $r10
	@DEBUG_VALUE: ARM_MPU_LoadEx:cnt <- $r9
	@DEBUG_VALUE: ARM_MPU_LoadEx:rowWordSize <- 2
	.loc	10 307 7                        @ ../../../../Library/CMSIS/Core/Include\mpu_armv8.h:307:7
	cmp.w	r9, #1
	bne	.LBB4_4
.Ltmp38:
@ %bb.3:
	@DEBUG_VALUE: ARM_MPU_LoadEx:rowWordSize <- 2
	@DEBUG_VALUE: ARM_MPU_LoadEx:cnt <- $r9
	@DEBUG_VALUE: ARM_MPU_LoadEx:table <- $r10
	@DEBUG_VALUE: ARM_MPU_LoadEx:rnr <- 1
	@DEBUG_VALUE: ARM_MPU_LoadEx:mpu <- -536810096
	@DEBUG_VALUE: ARM_MPU_Load:cnt <- $r9
	@DEBUG_VALUE: ARM_MPU_Load:table <- $r10
	@DEBUG_VALUE: ARM_MPU_Load:rnr <- 1
	@DEBUG_VALUE: InitPreDefMPURegion:i32RegionIdx <- 1
	@DEBUG_VALUE: InitPreDefMPURegion:i32RetCode <- 0
	@DEBUG_VALUE: InitPreDefMPURegion:WTRA <- 10
	@DEBUG_VALUE: InitPreDefMPURegion:WBWARA <- 15
	.loc	10 308 14                       @ ../../../../Library/CMSIS/Core/Include\mpu_armv8.h:308:14
	movw	r1, #65080
	movs	r0, #1
	movt	r1, #65535
	str	r0, [r6, r1]
.Ltmp39:
	@DEBUG_VALUE: ARM_MPU_OrderedMemcpy:i <- 1
	@DEBUG_VALUE: ARM_MPU_OrderedMemcpy:len <- 2
	@DEBUG_VALUE: ARM_MPU_OrderedMemcpy:src <- $r10
	@DEBUG_VALUE: ARM_MPU_OrderedMemcpy:dst <- -536810084
	.loc	10 294 14                       @ ../../../../Library/CMSIS/Core/Include\mpu_armv8.h:294:14
	ldrd	r0, r1, [r10]
	.loc	10 294 12 is_stmt 0             @ ../../../../Library/CMSIS/Core/Include\mpu_armv8.h:294:12
	str	r0, [r6, r4]
	str	r1, [r6, r5]
.Ltmp40:
	@DEBUG_VALUE: ARM_MPU_OrderedMemcpy:i <- 2
	.loc	10 0 12                         @ ../../../../Library/CMSIS/Core/Include\mpu_armv8.h:0:12
	b	.LBB4_17
.Ltmp41:
.LBB4_4:
	@DEBUG_VALUE: ARM_MPU_LoadEx:rowWordSize <- 2
	@DEBUG_VALUE: ARM_MPU_LoadEx:cnt <- $r9
	@DEBUG_VALUE: ARM_MPU_LoadEx:table <- $r10
	@DEBUG_VALUE: ARM_MPU_LoadEx:rnr <- 1
	@DEBUG_VALUE: ARM_MPU_LoadEx:mpu <- -536810096
	@DEBUG_VALUE: ARM_MPU_Load:cnt <- $r9
	@DEBUG_VALUE: ARM_MPU_Load:table <- $r10
	@DEBUG_VALUE: ARM_MPU_Load:rnr <- 1
	@DEBUG_VALUE: InitPreDefMPURegion:i32RegionIdx <- 1
	@DEBUG_VALUE: InitPreDefMPURegion:i32RetCode <- 0
	@DEBUG_VALUE: InitPreDefMPURegion:WTRA <- 10
	@DEBUG_VALUE: InitPreDefMPURegion:WBWARA <- 15
	@DEBUG_VALUE: rnrBase <- 0
	@DEBUG_VALUE: rnrOffset <- 1
	.loc	10 315 30 is_stmt 1             @ ../../../../Library/CMSIS/Core/Include\mpu_armv8.h:315:30
	sub.w	r0, r9, #4
	movs	r1, #0
	.loc	10 315 5 is_stmt 0              @ ../../../../Library/CMSIS/Core/Include\mpu_armv8.h:315:5
	cmn.w	r0, #6
	.loc	10 314 14 is_stmt 1             @ ../../../../Library/CMSIS/Core/Include\mpu_armv8.h:314:14
	movw	r0, #65080
	movt	r0, #65535
	str	r1, [r6, r0]
	@DEBUG_VALUE: ARM_MPU_LoadEx:cnt <- $r9
	@DEBUG_VALUE: ARM_MPU_LoadEx:table <- $r10
	.loc	10 315 5                        @ ../../../../Library/CMSIS/Core/Include\mpu_armv8.h:315:5
	bhi	.LBB4_10
.Ltmp42:
@ %bb.5:
	@DEBUG_VALUE: rnrOffset <- 1
	@DEBUG_VALUE: rnrBase <- 0
	@DEBUG_VALUE: ARM_MPU_LoadEx:rowWordSize <- 2
	@DEBUG_VALUE: ARM_MPU_LoadEx:cnt <- $r9
	@DEBUG_VALUE: ARM_MPU_LoadEx:table <- $r10
	@DEBUG_VALUE: ARM_MPU_LoadEx:rnr <- 1
	@DEBUG_VALUE: ARM_MPU_LoadEx:mpu <- -536810096
	@DEBUG_VALUE: ARM_MPU_Load:cnt <- $r9
	@DEBUG_VALUE: ARM_MPU_Load:table <- $r10
	@DEBUG_VALUE: ARM_MPU_Load:rnr <- 1
	@DEBUG_VALUE: InitPreDefMPURegion:i32RegionIdx <- 1
	@DEBUG_VALUE: InitPreDefMPURegion:i32RetCode <- 0
	@DEBUG_VALUE: InitPreDefMPURegion:WTRA <- 10
	@DEBUG_VALUE: InitPreDefMPURegion:WBWARA <- 15
	.loc	10 0 5 is_stmt 0                @ ../../../../Library/CMSIS/Core/Include\mpu_armv8.h:0:5
	mov.w	r11, #0
	mov.w	r12, #1
	mov.w	r8, #12
	movs	r7, #1
.Ltmp43:
	.p2align	2
.LBB4_6:                                @ =>This Loop Header: Depth=1
                                        @     Child Loop BB4_7 Depth 2
	@DEBUG_VALUE: ARM_MPU_LoadEx:rowWordSize <- 2
	@DEBUG_VALUE: ARM_MPU_LoadEx:cnt <- $r9
	@DEBUG_VALUE: ARM_MPU_LoadEx:table <- $r10
	@DEBUG_VALUE: ARM_MPU_LoadEx:rnr <- 1
	@DEBUG_VALUE: ARM_MPU_LoadEx:mpu <- -536810096
	@DEBUG_VALUE: ARM_MPU_Load:rnr <- 1
	@DEBUG_VALUE: InitPreDefMPURegion:i32RegionIdx <- 1
	@DEBUG_VALUE: InitPreDefMPURegion:i32RetCode <- 0
	@DEBUG_VALUE: InitPreDefMPURegion:WTRA <- 10
	@DEBUG_VALUE: InitPreDefMPURegion:WBWARA <- 15
	@DEBUG_VALUE: ARM_MPU_LoadEx:table <- $r10
	@DEBUG_VALUE: ARM_MPU_LoadEx:cnt <- $r9
	@DEBUG_VALUE: rnrBase <- $r11
	@DEBUG_VALUE: rnrOffset <- $r7
	.loc	10 316 38 is_stmt 1             @ ../../../../Library/CMSIS/Core/Include\mpu_armv8.h:316:38
	rsb.w	r3, r7, #4
.Ltmp44:
	@DEBUG_VALUE: c <- $r3
	.loc	10 0 38 is_stmt 0               @ ../../../../Library/CMSIS/Core/Include\mpu_armv8.h:0:38
	and.w	r5, r8, r3, lsl #1
	.loc	10 317 41 is_stmt 1             @ ../../../../Library/CMSIS/Core/Include\mpu_armv8.h:317:41
	add.w	r7, r6, r7, lsl #3
.Ltmp45:
	.loc	10 0 41 is_stmt 0               @ ../../../../Library/CMSIS/Core/Include\mpu_armv8.h:0:41
	subs	r5, #4
	add.w	lr, r12, r5, lsr #2
	.loc	10 317 41                       @ ../../../../Library/CMSIS/Core/Include\mpu_armv8.h:317:41
	sub.w	r7, r7, #452
	@DEBUG_VALUE: ARM_MPU_OrderedMemcpy:dst <- undef
	@DEBUG_VALUE: ARM_MPU_OrderedMemcpy:i <- 0
	@DEBUG_VALUE: ARM_MPU_OrderedMemcpy:len <- undef
	@DEBUG_VALUE: ARM_MPU_OrderedMemcpy:src <- $r10
	mov	r5, r10
.Ltmp46:
	.p2align	2
.LBB4_7:                                @   Parent Loop BB4_6 Depth=1
                                        @ =>  This Inner Loop Header: Depth=2
	@DEBUG_VALUE: ARM_MPU_OrderedMemcpy:src <- $r10
	@DEBUG_VALUE: c <- $r3
	@DEBUG_VALUE: rnrBase <- $r11
	@DEBUG_VALUE: ARM_MPU_LoadEx:rowWordSize <- 2
	@DEBUG_VALUE: ARM_MPU_LoadEx:cnt <- $r9
	@DEBUG_VALUE: ARM_MPU_LoadEx:table <- $r10
	@DEBUG_VALUE: ARM_MPU_LoadEx:rnr <- 1
	@DEBUG_VALUE: ARM_MPU_LoadEx:mpu <- -536810096
	@DEBUG_VALUE: ARM_MPU_Load:rnr <- 1
	@DEBUG_VALUE: InitPreDefMPURegion:i32RegionIdx <- 1
	@DEBUG_VALUE: InitPreDefMPURegion:i32RetCode <- 0
	@DEBUG_VALUE: InitPreDefMPURegion:WTRA <- 10
	@DEBUG_VALUE: InitPreDefMPURegion:WBWARA <- 15
	@DEBUG_VALUE: ARM_MPU_OrderedMemcpy:i <- [DW_OP_LLVM_arg 0, DW_OP_LLVM_arg 1, DW_OP_minus, DW_OP_consts 16, DW_OP_div, DW_OP_consts 4, DW_OP_mul, DW_OP_consts 3, DW_OP_plus, DW_OP_stack_value] $r5, $r10
	.loc	10 294 14 is_stmt 1             @ ../../../../Library/CMSIS/Core/Include\mpu_armv8.h:294:14
	ldm.w	r5, {r1, r2, r4}
	ldr	r0, [r5, #12]
.Ltmp47:
	.loc	10 292 3                        @ ../../../../Library/CMSIS/Core/Include\mpu_armv8.h:292:3
	adds	r5, #16
.Ltmp48:
	.loc	10 294 12                       @ ../../../../Library/CMSIS/Core/Include\mpu_armv8.h:294:12
	str	r1, [r7]
	str	r2, [r7, #4]
	str	r4, [r7, #8]
	str	r0, [r7, #12]
.Ltmp49:
	@DEBUG_VALUE: ARM_MPU_OrderedMemcpy:i <- [DW_OP_LLVM_arg 0, DW_OP_LLVM_arg 1, DW_OP_minus, DW_OP_consts 16, DW_OP_div, DW_OP_consts 4, DW_OP_mul, DW_OP_consts 4, DW_OP_plus, DW_OP_stack_value] $r5, $r10
	.loc	10 292 3                        @ ../../../../Library/CMSIS/Core/Include\mpu_armv8.h:292:3
	adds	r7, #16
	le	lr, .LBB4_7
.Ltmp50:
@ %bb.8:                                @   in Loop: Header=BB4_6 Depth=1
	@DEBUG_VALUE: ARM_MPU_OrderedMemcpy:i <- [DW_OP_LLVM_arg 0, DW_OP_LLVM_arg 1, DW_OP_minus, DW_OP_consts 16, DW_OP_div, DW_OP_consts 4, DW_OP_mul, DW_OP_consts 4, DW_OP_plus, DW_OP_stack_value] $r5, $r10
	@DEBUG_VALUE: ARM_MPU_OrderedMemcpy:src <- $r10
	@DEBUG_VALUE: c <- $r3
	@DEBUG_VALUE: rnrBase <- $r11
	@DEBUG_VALUE: ARM_MPU_LoadEx:rowWordSize <- 2
	@DEBUG_VALUE: ARM_MPU_LoadEx:cnt <- $r9
	@DEBUG_VALUE: ARM_MPU_LoadEx:table <- $r10
	@DEBUG_VALUE: ARM_MPU_LoadEx:rnr <- 1
	@DEBUG_VALUE: ARM_MPU_LoadEx:mpu <- -536810096
	@DEBUG_VALUE: ARM_MPU_Load:rnr <- 1
	@DEBUG_VALUE: InitPreDefMPURegion:i32RegionIdx <- 1
	@DEBUG_VALUE: InitPreDefMPURegion:i32RetCode <- 0
	@DEBUG_VALUE: InitPreDefMPURegion:WTRA <- 10
	@DEBUG_VALUE: InitPreDefMPURegion:WBWARA <- 15
	lsls	r0, r3, #31
.Ltmp51:
	@DEBUG_VALUE: ARM_MPU_OrderedMemcpy:i <- undef
	.loc	10 294 14                       @ ../../../../Library/CMSIS/Core/Include\mpu_armv8.h:294:14
	ittt	ne
	ldrdne	r0, r1, [r5]
	.loc	10 294 12 is_stmt 0             @ ../../../../Library/CMSIS/Core/Include\mpu_armv8.h:294:12
	strne	r0, [r7]
	strne	r1, [r7, #4]
.Ltmp52:
	.loc	10 318 13 is_stmt 1             @ ../../../../Library/CMSIS/Core/Include\mpu_armv8.h:318:13
	add.w	r10, r10, r3, lsl #3
.Ltmp53:
	@DEBUG_VALUE: ARM_MPU_LoadEx:table <- $r10
	.loc	10 319 11                       @ ../../../../Library/CMSIS/Core/Include\mpu_armv8.h:319:11
	sub.w	r9, r9, r3
.Ltmp54:
	@DEBUG_VALUE: rnrOffset <- 0
	@DEBUG_VALUE: ARM_MPU_LoadEx:cnt <- $r9
	.loc	10 322 16                       @ ../../../../Library/CMSIS/Core/Include\mpu_armv8.h:322:16
	movw	r0, #65080
	.loc	10 321 15                       @ ../../../../Library/CMSIS/Core/Include\mpu_armv8.h:321:15
	add.w	r11, r11, #4
.Ltmp55:
	@DEBUG_VALUE: rnrBase <- $r11
	.loc	10 315 5                        @ ../../../../Library/CMSIS/Core/Include\mpu_armv8.h:315:5
	cmp.w	r9, #4
.Ltmp56:
	.loc	10 322 16                       @ ../../../../Library/CMSIS/Core/Include\mpu_armv8.h:322:16
	movt	r0, #65535
	mov.w	r7, #0
	str.w	r11, [r6, r0]
.Ltmp57:
	.loc	10 315 5                        @ ../../../../Library/CMSIS/Core/Include\mpu_armv8.h:315:5
	bhi	.LBB4_6
.Ltmp58:
@ %bb.9:
	@DEBUG_VALUE: rnrOffset <- 0
	@DEBUG_VALUE: rnrBase <- $r11
	@DEBUG_VALUE: ARM_MPU_LoadEx:rowWordSize <- 2
	@DEBUG_VALUE: ARM_MPU_LoadEx:cnt <- $r9
	@DEBUG_VALUE: ARM_MPU_LoadEx:table <- $r10
	@DEBUG_VALUE: ARM_MPU_LoadEx:rnr <- 1
	@DEBUG_VALUE: ARM_MPU_LoadEx:mpu <- -536810096
	@DEBUG_VALUE: ARM_MPU_Load:rnr <- 1
	@DEBUG_VALUE: InitPreDefMPURegion:i32RegionIdx <- 1
	@DEBUG_VALUE: InitPreDefMPURegion:i32RetCode <- 0
	@DEBUG_VALUE: InitPreDefMPURegion:WTRA <- 10
	@DEBUG_VALUE: InitPreDefMPURegion:WBWARA <- 15
	@DEBUG_VALUE: ARM_MPU_OrderedMemcpy:src <- $r10
	@DEBUG_VALUE: ARM_MPU_OrderedMemcpy:len <- [DW_OP_constu 1, DW_OP_shl, DW_OP_stack_value] $r9
	@DEBUG_VALUE: ARM_MPU_OrderedMemcpy:i <- 0
	@DEBUG_VALUE: ARM_MPU_OrderedMemcpy:dst <- undef
	.loc	10 292 3                        @ ../../../../Library/CMSIS/Core/Include\mpu_armv8.h:292:3
	cmp.w	r9, #0
	bne	.LBB4_11
	b	.LBB4_17
.Ltmp59:
.LBB4_10:
	@DEBUG_VALUE: rnrOffset <- 1
	@DEBUG_VALUE: rnrBase <- 0
	@DEBUG_VALUE: ARM_MPU_LoadEx:rowWordSize <- 2
	@DEBUG_VALUE: ARM_MPU_LoadEx:cnt <- $r9
	@DEBUG_VALUE: ARM_MPU_LoadEx:table <- $r10
	@DEBUG_VALUE: ARM_MPU_LoadEx:rnr <- 1
	@DEBUG_VALUE: ARM_MPU_LoadEx:mpu <- -536810096
	@DEBUG_VALUE: ARM_MPU_Load:cnt <- $r9
	@DEBUG_VALUE: ARM_MPU_Load:table <- $r10
	@DEBUG_VALUE: ARM_MPU_Load:rnr <- 1
	@DEBUG_VALUE: InitPreDefMPURegion:i32RegionIdx <- 1
	@DEBUG_VALUE: InitPreDefMPURegion:i32RetCode <- 0
	@DEBUG_VALUE: InitPreDefMPURegion:WTRA <- 10
	@DEBUG_VALUE: InitPreDefMPURegion:WBWARA <- 15
	.loc	10 0 3 is_stmt 0                @ ../../../../Library/CMSIS/Core/Include\mpu_armv8.h:0:3
	movs	r7, #2
.Ltmp60:
	@DEBUG_VALUE: ARM_MPU_OrderedMemcpy:src <- $r10
	@DEBUG_VALUE: ARM_MPU_OrderedMemcpy:len <- [DW_OP_constu 1, DW_OP_shl, DW_OP_stack_value] $r9
	@DEBUG_VALUE: ARM_MPU_OrderedMemcpy:i <- 0
	@DEBUG_VALUE: ARM_MPU_OrderedMemcpy:dst <- undef
	.loc	10 292 3                        @ ../../../../Library/CMSIS/Core/Include\mpu_armv8.h:292:3
	cmp.w	r9, #0
	beq	.LBB4_17
.Ltmp61:
.LBB4_11:
	@DEBUG_VALUE: ARM_MPU_OrderedMemcpy:i <- 0
	@DEBUG_VALUE: ARM_MPU_OrderedMemcpy:len <- [DW_OP_constu 1, DW_OP_shl, DW_OP_stack_value] $r9
	@DEBUG_VALUE: ARM_MPU_OrderedMemcpy:src <- $r10
	@DEBUG_VALUE: ARM_MPU_LoadEx:rowWordSize <- 2
	@DEBUG_VALUE: ARM_MPU_LoadEx:cnt <- $r9
	@DEBUG_VALUE: ARM_MPU_LoadEx:table <- $r10
	@DEBUG_VALUE: ARM_MPU_LoadEx:rnr <- 1
	@DEBUG_VALUE: ARM_MPU_LoadEx:mpu <- -536810096
	@DEBUG_VALUE: ARM_MPU_Load:rnr <- 1
	@DEBUG_VALUE: InitPreDefMPURegion:i32RegionIdx <- 1
	@DEBUG_VALUE: InitPreDefMPURegion:i32RetCode <- 0
	@DEBUG_VALUE: InitPreDefMPURegion:WTRA <- 10
	@DEBUG_VALUE: InitPreDefMPURegion:WBWARA <- 15
	.loc	10 325 0 is_stmt 1              @ ../../../../Library/CMSIS/Core/Include\mpu_armv8.h:325:0
	add.w	r0, r6, r7, lsl #2
.Ltmp62:
	@DEBUG_VALUE: ARM_MPU_OrderedMemcpy:dst <- undef
	@DEBUG_VALUE: ARM_MPU_OrderedMemcpy:len <- [DW_OP_constu 1, DW_OP_shl, DW_OP_stack_value] $r9
	.loc	10 292 3                        @ ../../../../Library/CMSIS/Core/Include\mpu_armv8.h:292:3
	cmp.w	r9, #2
	bhs	.LBB4_13
.Ltmp63:
@ %bb.12:
	@DEBUG_VALUE: ARM_MPU_OrderedMemcpy:i <- 0
	@DEBUG_VALUE: ARM_MPU_OrderedMemcpy:len <- [DW_OP_constu 1, DW_OP_shl, DW_OP_stack_value] $r9
	@DEBUG_VALUE: ARM_MPU_OrderedMemcpy:src <- $r10
	@DEBUG_VALUE: ARM_MPU_LoadEx:rowWordSize <- 2
	@DEBUG_VALUE: ARM_MPU_LoadEx:cnt <- $r9
	@DEBUG_VALUE: ARM_MPU_LoadEx:table <- $r10
	@DEBUG_VALUE: ARM_MPU_LoadEx:rnr <- 1
	@DEBUG_VALUE: ARM_MPU_LoadEx:mpu <- -536810096
	@DEBUG_VALUE: ARM_MPU_Load:rnr <- 1
	@DEBUG_VALUE: InitPreDefMPURegion:i32RegionIdx <- 1
	@DEBUG_VALUE: InitPreDefMPURegion:i32RetCode <- 0
	@DEBUG_VALUE: InitPreDefMPURegion:WTRA <- 10
	@DEBUG_VALUE: InitPreDefMPURegion:WBWARA <- 15
	.loc	10 0 3 is_stmt 0                @ ../../../../Library/CMSIS/Core/Include\mpu_armv8.h:0:3
	movs	r1, #0
	b	.LBB4_15
.Ltmp64:
.LBB4_13:
	@DEBUG_VALUE: ARM_MPU_OrderedMemcpy:i <- 0
	@DEBUG_VALUE: ARM_MPU_OrderedMemcpy:len <- [DW_OP_constu 1, DW_OP_shl, DW_OP_stack_value] $r9
	@DEBUG_VALUE: ARM_MPU_OrderedMemcpy:src <- $r10
	@DEBUG_VALUE: ARM_MPU_LoadEx:rowWordSize <- 2
	@DEBUG_VALUE: ARM_MPU_LoadEx:cnt <- $r9
	@DEBUG_VALUE: ARM_MPU_LoadEx:table <- $r10
	@DEBUG_VALUE: ARM_MPU_LoadEx:rnr <- 1
	@DEBUG_VALUE: ARM_MPU_LoadEx:mpu <- -536810096
	@DEBUG_VALUE: ARM_MPU_Load:rnr <- 1
	@DEBUG_VALUE: InitPreDefMPURegion:i32RegionIdx <- 1
	@DEBUG_VALUE: InitPreDefMPURegion:i32RetCode <- 0
	@DEBUG_VALUE: InitPreDefMPURegion:WTRA <- 10
	@DEBUG_VALUE: InitPreDefMPURegion:WBWARA <- 15
	movs	r1, #12
	movs	r3, #1
	and.w	r1, r1, r9, lsl #1
	subs	r2, r1, #4
	add.w	lr, r3, r2, lsr #2
.Ltmp65:
	@DEBUG_VALUE: ARM_MPU_OrderedMemcpy:len <- undef
	.loc	10 292 3                        @ ../../../../Library/CMSIS/Core/Include\mpu_armv8.h:292:3
	add.w	r2, r10, #8
	sub.w	r3, r0, #444
.Ltmp66:
	.p2align	2
.LBB4_14:                               @ =>This Inner Loop Header: Depth=1
	@DEBUG_VALUE: ARM_MPU_OrderedMemcpy:src <- $r10
	@DEBUG_VALUE: ARM_MPU_LoadEx:rowWordSize <- 2
	@DEBUG_VALUE: ARM_MPU_LoadEx:cnt <- $r9
	@DEBUG_VALUE: ARM_MPU_LoadEx:table <- $r10
	@DEBUG_VALUE: ARM_MPU_LoadEx:rnr <- 1
	@DEBUG_VALUE: ARM_MPU_LoadEx:mpu <- -536810096
	@DEBUG_VALUE: ARM_MPU_Load:rnr <- 1
	@DEBUG_VALUE: InitPreDefMPURegion:i32RegionIdx <- 1
	@DEBUG_VALUE: InitPreDefMPURegion:i32RetCode <- 0
	@DEBUG_VALUE: InitPreDefMPURegion:WTRA <- 10
	@DEBUG_VALUE: InitPreDefMPURegion:WBWARA <- 15
	@DEBUG_VALUE: ARM_MPU_OrderedMemcpy:i <- undef
	.loc	10 294 14 is_stmt 1             @ ../../../../Library/CMSIS/Core/Include\mpu_armv8.h:294:14
	ldrd	r7, r5, [r2, #-8]
	.loc	10 294 12 is_stmt 0             @ ../../../../Library/CMSIS/Core/Include\mpu_armv8.h:294:12
	str	r7, [r3, #-8]
	str	r5, [r3, #-4]
	.loc	10 294 14                       @ ../../../../Library/CMSIS/Core/Include\mpu_armv8.h:294:14
	ldr	r7, [r2]
	.loc	10 294 12                       @ ../../../../Library/CMSIS/Core/Include\mpu_armv8.h:294:12
	str	r7, [r3]
	.loc	10 294 14                       @ ../../../../Library/CMSIS/Core/Include\mpu_armv8.h:294:14
	ldr	r7, [r2, #4]
.Ltmp67:
	.loc	10 292 3 is_stmt 1              @ ../../../../Library/CMSIS/Core/Include\mpu_armv8.h:292:3
	adds	r2, #16
.Ltmp68:
	.loc	10 294 12                       @ ../../../../Library/CMSIS/Core/Include\mpu_armv8.h:294:12
	str	r7, [r3, #4]
.Ltmp69:
	.loc	10 292 3                        @ ../../../../Library/CMSIS/Core/Include\mpu_armv8.h:292:3
	adds	r3, #16
	le	lr, .LBB4_14
.Ltmp70:
.LBB4_15:
	@DEBUG_VALUE: ARM_MPU_OrderedMemcpy:src <- $r10
	@DEBUG_VALUE: ARM_MPU_LoadEx:rowWordSize <- 2
	@DEBUG_VALUE: ARM_MPU_LoadEx:cnt <- $r9
	@DEBUG_VALUE: ARM_MPU_LoadEx:table <- $r10
	@DEBUG_VALUE: ARM_MPU_LoadEx:rnr <- 1
	@DEBUG_VALUE: ARM_MPU_LoadEx:mpu <- -536810096
	@DEBUG_VALUE: ARM_MPU_Load:rnr <- 1
	@DEBUG_VALUE: InitPreDefMPURegion:i32RegionIdx <- 1
	@DEBUG_VALUE: InitPreDefMPURegion:i32RetCode <- 0
	@DEBUG_VALUE: InitPreDefMPURegion:WTRA <- 10
	@DEBUG_VALUE: InitPreDefMPURegion:WBWARA <- 15
	@DEBUG_VALUE: ARM_MPU_OrderedMemcpy:dst <- undef
	lsls.w	r2, r9, #31
	beq	.LBB4_17
.Ltmp71:
@ %bb.16:
	@DEBUG_VALUE: ARM_MPU_OrderedMemcpy:src <- $r10
	@DEBUG_VALUE: ARM_MPU_LoadEx:rowWordSize <- 2
	@DEBUG_VALUE: ARM_MPU_LoadEx:cnt <- $r9
	@DEBUG_VALUE: ARM_MPU_LoadEx:table <- $r10
	@DEBUG_VALUE: ARM_MPU_LoadEx:rnr <- 1
	@DEBUG_VALUE: ARM_MPU_LoadEx:mpu <- -536810096
	@DEBUG_VALUE: ARM_MPU_Load:rnr <- 1
	@DEBUG_VALUE: InitPreDefMPURegion:i32RegionIdx <- 1
	@DEBUG_VALUE: InitPreDefMPURegion:i32RetCode <- 0
	@DEBUG_VALUE: InitPreDefMPURegion:WTRA <- 10
	@DEBUG_VALUE: InitPreDefMPURegion:WBWARA <- 15
	.loc	10 294 14                       @ ../../../../Library/CMSIS/Core/Include\mpu_armv8.h:294:14
	ldr.w	r2, [r10, r1, lsl #2]
.Ltmp72:
	.loc	10 325 0                        @ ../../../../Library/CMSIS/Core/Include\mpu_armv8.h:325:0
	sub.w	r0, r0, #452
.Ltmp73:
	@DEBUG_VALUE: ARM_MPU_OrderedMemcpy:dst <- $r0
	@DEBUG_VALUE: ARM_MPU_OrderedMemcpy:i <- $r1
	.loc	10 294 12                       @ ../../../../Library/CMSIS/Core/Include\mpu_armv8.h:294:12
	str.w	r2, [r0, r1, lsl #2]
.Ltmp74:
	@DEBUG_VALUE: ARM_MPU_OrderedMemcpy:i <- undef
	.loc	10 294 14 is_stmt 0             @ ../../../../Library/CMSIS/Core/Include\mpu_armv8.h:294:14
	adds	r1, #1
	ldr.w	r2, [r10, r1, lsl #2]
	.loc	10 294 12                       @ ../../../../Library/CMSIS/Core/Include\mpu_armv8.h:294:12
	str.w	r2, [r0, r1, lsl #2]
.Ltmp75:
	@DEBUG_VALUE: ARM_MPU_OrderedMemcpy:i <- [DW_OP_plus_uconst 2, DW_OP_stack_value] undef
.LBB4_17:
	@DEBUG_VALUE: InitPreDefMPURegion:i32RegionIdx <- 1
	@DEBUG_VALUE: InitPreDefMPURegion:i32RetCode <- 0
	@DEBUG_VALUE: InitPreDefMPURegion:WTRA <- 10
	@DEBUG_VALUE: InitPreDefMPURegion:WBWARA <- 15
	@DEBUG_VALUE: ARM_MPU_Enable:MPU_Control <- 4
	.loc	10 0 12                         @ ../../../../Library/CMSIS/Core/Include\mpu_armv8.h:0:12
	movw	r1, #65076
	movs	r0, #5
	movt	r1, #65535
	movw	r2, :lower16:g_u32NonCacheableLimit
.Ltmp76:
	.loc	10 132 3 is_stmt 1              @ ../../../../Library/CMSIS/Core/Include\mpu_armv8.h:132:3
	dmb	sy
	.loc	10 133 13                       @ ../../../../Library/CMSIS/Core/Include\mpu_armv8.h:133:13
	str	r0, [r6, r1]
	movw	r1, #64964
	movt	r1, #65535
	movw	r3, :lower16:g_u32NonCacheableBase
	.loc	10 135 14                       @ ../../../../Library/CMSIS/Core/Include\mpu_armv8.h:135:14
	ldr	r0, [r6, r1]
	movt	r2, :upper16:g_u32NonCacheableLimit
	orr	r0, r0, #65536
	str	r0, [r6, r1]
.Ltmp77:
	.loc	2 273 53                        @ ../../../../Library/Device/Nuvoton/M55M1/Source/system_M55M1.c:273:53
	movw	r0, :lower16:Image$$SRAM_NONCACHEABLE$$Base
.Ltmp78:
	.loc	10 137 3                        @ ../../../../Library/CMSIS/Core/Include\mpu_armv8.h:137:3
	dsb	sy
.Ltmp79:
	.loc	2 273 53                        @ ../../../../Library/Device/Nuvoton/M55M1/Source/system_M55M1.c:273:53
	movt	r0, :upper16:Image$$SRAM_NONCACHEABLE$$Base
.Ltmp80:
	.loc	10 138 3                        @ ../../../../Library/CMSIS/Core/Include\mpu_armv8.h:138:3
	isb	sy
	movt	r3, :upper16:g_u32NonCacheableBase
	cbz	r0, .LBB4_20
.Ltmp81:
@ %bb.18:
	@DEBUG_VALUE: InitPreDefMPURegion:i32RegionIdx <- 1
	@DEBUG_VALUE: InitPreDefMPURegion:i32RetCode <- 0
	@DEBUG_VALUE: InitPreDefMPURegion:WTRA <- 10
	@DEBUG_VALUE: InitPreDefMPURegion:WBWARA <- 15
	.loc	10 0 3 is_stmt 0                @ ../../../../Library/CMSIS/Core/Include\mpu_armv8.h:0:3
	movw	r1, :lower16:Image$$SRAM_NONCACHEABLE_END$$Base
	movt	r1, :upper16:Image$$SRAM_NONCACHEABLE_END$$Base
	cbz	r1, .LBB4_20
.Ltmp82:
@ %bb.19:
	@DEBUG_VALUE: InitPreDefMPURegion:i32RegionIdx <- 1
	@DEBUG_VALUE: InitPreDefMPURegion:i32RetCode <- 0
	@DEBUG_VALUE: InitPreDefMPURegion:WTRA <- 10
	@DEBUG_VALUE: InitPreDefMPURegion:WBWARA <- 15
	.loc	2 276 34 is_stmt 1              @ ../../../../Library/Device/Nuvoton/M55M1/Source/system_M55M1.c:276:34
	adds	r1, #31
	.loc	2 275 32                        @ ../../../../Library/Device/Nuvoton/M55M1/Source/system_M55M1.c:275:32
	str	r0, [r3]
	.loc	2 276 34                        @ ../../../../Library/Device/Nuvoton/M55M1/Source/system_M55M1.c:276:34
	bic	r1, r1, #31
	.loc	2 276 104 is_stmt 0             @ ../../../../Library/Device/Nuvoton/M55M1/Source/system_M55M1.c:276:104
	subs	r1, #1
	.loc	2 276 32                        @ ../../../../Library/Device/Nuvoton/M55M1/Source/system_M55M1.c:276:32
	str	r1, [r2]
	b	.LBB4_21
.Ltmp83:
.LBB4_20:
	@DEBUG_VALUE: InitPreDefMPURegion:i32RegionIdx <- 1
	@DEBUG_VALUE: InitPreDefMPURegion:i32RetCode <- 0
	@DEBUG_VALUE: InitPreDefMPURegion:WTRA <- 10
	@DEBUG_VALUE: InitPreDefMPURegion:WBWARA <- 15
	.loc	2 290 9 is_stmt 1               @ ../../../../Library/Device/Nuvoton/M55M1/Source/system_M55M1.c:290:9
	ldr	r1, [r2]
	.loc	2 290 34 is_stmt 0              @ ../../../../Library/Device/Nuvoton/M55M1/Source/system_M55M1.c:290:34
	ldr	r0, [r3]
.Ltmp84:
.LBB4_21:
	@DEBUG_VALUE: InitPreDefMPURegion:i32RegionIdx <- 1
	@DEBUG_VALUE: InitPreDefMPURegion:i32RetCode <- 0
	@DEBUG_VALUE: InitPreDefMPURegion:WTRA <- 10
	@DEBUG_VALUE: InitPreDefMPURegion:WBWARA <- 15
	.loc	2 290 9                         @ ../../../../Library/Device/Nuvoton/M55M1/Source/system_M55M1.c:290:9
	cmp	r1, r0
	mov.w	r0, #0
	bls.w	.LBB4_74
.Ltmp85:
@ %bb.22:
	@DEBUG_VALUE: InitPreDefMPURegion:i32RegionIdx <- 1
	@DEBUG_VALUE: InitPreDefMPURegion:i32RetCode <- 0
	@DEBUG_VALUE: InitPreDefMPURegion:WTRA <- 10
	@DEBUG_VALUE: InitPreDefMPURegion:WBWARA <- 15
	.loc	2 0 9                           @ ../../../../Library/Device/Nuvoton/M55M1/Source/system_M55M1.c:0:9
	movw	r1, #65060
	movt	r1, #65535
.Ltmp86:
	.file	11 "D:\\M55M1_NuEdgeWise\\ML_M55M1_SampleCode\\M55M1BSP-3.00.001\\SampleCode\\NuEdgeWise\\ObjectDetection_FreeRTOS_yoloxn\\KEIL" "../../../../Library/CMSIS/Core/Include\\cachel1_armv7.h"
	.loc	11 188 17 is_stmt 1             @ ../../../../Library/CMSIS/Core/Include\cachel1_armv7.h:188:17
	str	r0, [r6, r1]
	movw	r1, #64948
	.loc	11 189 5                        @ ../../../../Library/CMSIS/Core/Include\cachel1_armv7.h:189:5
	dsb	sy
	movt	r1, #65535
	.loc	11 191 14                       @ ../../../../Library/CMSIS/Core/Include\cachel1_armv7.h:191:14
	ldr	r0, [r6, r1]
	bic	r0, r0, #65536
	str	r0, [r6, r1]
	movw	r0, #65056
	.loc	11 192 5                        @ ../../../../Library/CMSIS/Core/Include\cachel1_armv7.h:192:5
	dsb	sy
	movt	r0, #65535
	.loc	11 194 19                       @ ../../../../Library/CMSIS/Core/Include\cachel1_armv7.h:194:19
	ldr	r0, [r6, r0]
.Ltmp87:
	@DEBUG_VALUE: SCB_DisableDCache:ccsidr <- $r0
	.loc	11 0 19 is_stmt 0               @ ../../../../Library/CMSIS/Core/Include\cachel1_armv7.h:0:19
	ubfx	r8, r0, #3, #10
	.loc	11 197 23 is_stmt 1             @ ../../../../Library/CMSIS/Core/Include\cachel1_armv7.h:197:23
	ubfx	r2, r0, #13, #15
.Ltmp88:
	@DEBUG_VALUE: SCB_DisableDCache:sets <- [DW_OP_constu 32767, DW_OP_and, DW_OP_stack_value] undef
	.loc	11 198 5                        @ ../../../../Library/CMSIS/Core/Include\cachel1_armv7.h:198:5
	add.w	r1, r8, #1
	lsr.w	lr, r0, #3
	lsls	r3, r0, #18
	mov	r12, r2
	and	r1, r1, #3
	bmi	.LBB4_30
.Ltmp89:
@ %bb.23:
	@DEBUG_VALUE: SCB_DisableDCache:ccsidr <- $r0
	@DEBUG_VALUE: InitPreDefMPURegion:i32RegionIdx <- 1
	@DEBUG_VALUE: InitPreDefMPURegion:i32RetCode <- 0
	@DEBUG_VALUE: InitPreDefMPURegion:WTRA <- 10
	@DEBUG_VALUE: InitPreDefMPURegion:WBWARA <- 15
	.loc	11 0 0 is_stmt 0                @ ../../../../Library/CMSIS/Core/Include\cachel1_armv7.h:0:0
	lsrs	r0, r0, #13
.Ltmp90:
	@DEBUG_VALUE: SCB_DisableDCache:ways <- [DW_OP_constu 1023, DW_OP_and, DW_OP_stack_value] $lr
	@DEBUG_VALUE: SCB_DisableDCache:sets <- [DW_OP_constu 32767, DW_OP_and, DW_OP_stack_value] $r0
	mov.w	r3, #16320
	and.w	r3, r3, r0, lsl #5
	mov	r7, r8
.Ltmp91:
	.loc	11 200 7 is_stmt 1              @ ../../../../Library/CMSIS/Core/Include\cachel1_armv7.h:200:7
	cbz	r1, .LBB4_26
.Ltmp92:
@ %bb.24:
	@DEBUG_VALUE: SCB_DisableDCache:sets <- [DW_OP_constu 32767, DW_OP_and, DW_OP_stack_value] $r0
	@DEBUG_VALUE: SCB_DisableDCache:ways <- [DW_OP_constu 1023, DW_OP_and, DW_OP_stack_value] $lr
	@DEBUG_VALUE: InitPreDefMPURegion:i32RegionIdx <- 1
	@DEBUG_VALUE: InitPreDefMPURegion:i32RetCode <- 0
	@DEBUG_VALUE: InitPreDefMPURegion:WTRA <- 10
	@DEBUG_VALUE: InitPreDefMPURegion:WBWARA <- 15
	@DEBUG_VALUE: SCB_DisableDCache:ways <- [DW_OP_constu 1023, DW_OP_and, DW_OP_stack_value] $lr
	.loc	11 201 76                       @ ../../../../Library/CMSIS/Core/Include\cachel1_armv7.h:201:76
	orr.w	r0, r3, lr, lsl #30
.Ltmp93:
	.loc	11 206 7                        @ ../../../../Library/CMSIS/Core/Include\cachel1_armv7.h:206:7
	cmp	r1, #1
.Ltmp94:
	.loc	11 206 20 is_stmt 0             @ ../../../../Library/CMSIS/Core/Include\cachel1_armv7.h:206:20
	sub.w	r7, r8, #1
.Ltmp95:
	@DEBUG_VALUE: SCB_DisableDCache:ways <- $r7
	.loc	11 201 21 is_stmt 1             @ ../../../../Library/CMSIS/Core/Include\cachel1_armv7.h:201:21
	str	r0, [r6, #20]
	.loc	11 206 7                        @ ../../../../Library/CMSIS/Core/Include\cachel1_armv7.h:206:7
	beq	.LBB4_26
.Ltmp96:
@ %bb.25:
	@DEBUG_VALUE: SCB_DisableDCache:ways <- $r7
	@DEBUG_VALUE: InitPreDefMPURegion:i32RegionIdx <- 1
	@DEBUG_VALUE: InitPreDefMPURegion:i32RetCode <- 0
	@DEBUG_VALUE: InitPreDefMPURegion:WTRA <- 10
	@DEBUG_VALUE: InitPreDefMPURegion:WBWARA <- 15
	@DEBUG_VALUE: SCB_DisableDCache:ways <- undef
	.loc	11 201 76                       @ ../../../../Library/CMSIS/Core/Include\cachel1_armv7.h:201:76
	orr.w	r0, r3, r7, lsl #30
.Ltmp97:
	.loc	11 206 20                       @ ../../../../Library/CMSIS/Core/Include\cachel1_armv7.h:206:20
	sub.w	r7, r8, #2
.Ltmp98:
	@DEBUG_VALUE: SCB_DisableDCache:ways <- $r7
	@DEBUG_VALUE: SCB_DisableDCache:ways <- undef
	.loc	11 206 7 is_stmt 0              @ ../../../../Library/CMSIS/Core/Include\cachel1_armv7.h:206:7
	cmp	r1, #2
	.loc	11 201 21 is_stmt 1             @ ../../../../Library/CMSIS/Core/Include\cachel1_armv7.h:201:21
	str	r0, [r6, #20]
	.loc	11 201 76 is_stmt 0             @ ../../../../Library/CMSIS/Core/Include\cachel1_armv7.h:201:76
	ittt	ne
	orrne.w	r0, r3, r7, lsl #30
	.loc	11 201 21                       @ ../../../../Library/CMSIS/Core/Include\cachel1_armv7.h:201:21
	strne	r0, [r6, #20]
.Ltmp99:
	.loc	11 206 20 is_stmt 1             @ ../../../../Library/CMSIS/Core/Include\cachel1_armv7.h:206:20
	subne.w	r7, r8, #3
.Ltmp100:
	@DEBUG_VALUE: SCB_DisableDCache:ways <- $r7
.LBB4_26:
	@DEBUG_VALUE: InitPreDefMPURegion:i32RegionIdx <- 1
	@DEBUG_VALUE: InitPreDefMPURegion:i32RetCode <- 0
	@DEBUG_VALUE: InitPreDefMPURegion:WTRA <- 10
	@DEBUG_VALUE: InitPreDefMPURegion:WBWARA <- 15
	.loc	11 200 7                        @ ../../../../Library/CMSIS/Core/Include\cachel1_armv7.h:200:7
	cmp.w	r8, #3
	blo	.LBB4_29
.Ltmp101:
@ %bb.27:
	@DEBUG_VALUE: InitPreDefMPURegion:i32RegionIdx <- 1
	@DEBUG_VALUE: InitPreDefMPURegion:i32RetCode <- 0
	@DEBUG_VALUE: InitPreDefMPURegion:WTRA <- 10
	@DEBUG_VALUE: InitPreDefMPURegion:WBWARA <- 15
	orr.w	r0, r3, r7, lsl #30
	adds	r7, #1
	add.w	r3, r0, #-1073741824
	eor	r4, r0, #-2147483648
	add.w	r5, r0, #1073741824
.Ltmp102:
	.p2align	2
.LBB4_28:                               @ =>This Inner Loop Header: Depth=1
	@DEBUG_VALUE: InitPreDefMPURegion:i32RegionIdx <- 1
	@DEBUG_VALUE: InitPreDefMPURegion:i32RetCode <- 0
	@DEBUG_VALUE: InitPreDefMPURegion:WTRA <- 10
	@DEBUG_VALUE: InitPreDefMPURegion:WBWARA <- 15
	@DEBUG_VALUE: SCB_DisableDCache:ways <- [DW_OP_constu 1, DW_OP_minus, DW_OP_stack_value] $r7
	.loc	11 206 23                       @ ../../../../Library/CMSIS/Core/Include\cachel1_armv7.h:206:23
	subs	r7, #4
.Ltmp103:
	.loc	11 201 21                       @ ../../../../Library/CMSIS/Core/Include\cachel1_armv7.h:201:21
	str	r0, [r6, #20]
	str	r3, [r6, #20]
.Ltmp104:
	@DEBUG_VALUE: SCB_DisableDCache:ways <- [DW_OP_constu 2, DW_OP_minus, DW_OP_stack_value] $r7
	str	r4, [r6, #20]
.Ltmp105:
	@DEBUG_VALUE: SCB_DisableDCache:ways <- [DW_OP_constu 3, DW_OP_minus, DW_OP_stack_value] $r7
	str	r5, [r6, #20]
.Ltmp106:
	@DEBUG_VALUE: SCB_DisableDCache:ways <- [DW_OP_constu 5, DW_OP_minus, DW_OP_stack_value] $r7
	.loc	11 206 7                        @ ../../../../Library/CMSIS/Core/Include\cachel1_armv7.h:206:7
	bne	.LBB4_28
.Ltmp107:
.LBB4_29:
	@DEBUG_VALUE: InitPreDefMPURegion:i32RegionIdx <- 1
	@DEBUG_VALUE: InitPreDefMPURegion:i32RetCode <- 0
	@DEBUG_VALUE: InitPreDefMPURegion:WTRA <- 10
	@DEBUG_VALUE: InitPreDefMPURegion:WBWARA <- 15
	.loc	11 207 17                       @ ../../../../Library/CMSIS/Core/Include\cachel1_armv7.h:207:17
	sub.w	r12, r2, #1
.Ltmp108:
	@DEBUG_VALUE: SCB_DisableDCache:sets <- $r12
.LBB4_30:
	@DEBUG_VALUE: InitPreDefMPURegion:i32RegionIdx <- 1
	@DEBUG_VALUE: InitPreDefMPURegion:i32RetCode <- 0
	@DEBUG_VALUE: InitPreDefMPURegion:WTRA <- 10
	@DEBUG_VALUE: InitPreDefMPURegion:WBWARA <- 15
	.loc	11 198 5                        @ ../../../../Library/CMSIS/Core/Include\cachel1_armv7.h:198:5
	cmp	r2, #0
	beq	.LBB4_47
.Ltmp109:
@ %bb.31:
	@DEBUG_VALUE: InitPreDefMPURegion:i32RegionIdx <- 1
	@DEBUG_VALUE: InitPreDefMPURegion:i32RetCode <- 0
	@DEBUG_VALUE: InitPreDefMPURegion:WTRA <- 10
	@DEBUG_VALUE: InitPreDefMPURegion:WBWARA <- 15
	.loc	11 0 5 is_stmt 0                @ ../../../../Library/CMSIS/Core/Include\cachel1_armv7.h:0:5
	sub.w	r11, r8, #1
	sub.w	r10, r8, #2
	lsl.w	r0, r11, #30
	movw	r4, #16352
	str	r0, [sp, #8]                    @ 4-byte Spill
	lsl.w	r0, r10, #30
	lsl.w	lr, lr, #30
	str	r0, [sp, #4]                    @ 4-byte Spill
	sub.w	r0, r8, #3
	str	r0, [sp]                        @ 4-byte Spill
	b	.LBB4_33
.Ltmp110:
	.p2align	2
.LBB4_32:                               @   in Loop: Header=BB4_33 Depth=1
	@DEBUG_VALUE: SCB_DisableDCache:sets <- $r3
	@DEBUG_VALUE: InitPreDefMPURegion:i32RegionIdx <- 1
	@DEBUG_VALUE: InitPreDefMPURegion:i32RetCode <- 0
	@DEBUG_VALUE: InitPreDefMPURegion:WTRA <- 10
	@DEBUG_VALUE: InitPreDefMPURegion:WBWARA <- 15
	.loc	11 207 5 is_stmt 1              @ ../../../../Library/CMSIS/Core/Include\cachel1_armv7.h:207:5
	cmp	r3, #0
.Ltmp111:
	.loc	11 207 17 is_stmt 0             @ ../../../../Library/CMSIS/Core/Include\cachel1_armv7.h:207:17
	sub.w	r12, r12, #2
.Ltmp112:
	@DEBUG_VALUE: SCB_DisableDCache:sets <- $r12
	.loc	11 207 5                        @ ../../../../Library/CMSIS/Core/Include\cachel1_armv7.h:207:5
	beq	.LBB4_47
.Ltmp113:
.LBB4_33:                               @ =>This Loop Header: Depth=1
                                        @     Child Loop BB4_39 Depth 2
                                        @     Child Loop BB4_46 Depth 2
	@DEBUG_VALUE: InitPreDefMPURegion:i32RegionIdx <- 1
	@DEBUG_VALUE: InitPreDefMPURegion:i32RetCode <- 0
	@DEBUG_VALUE: InitPreDefMPURegion:WTRA <- 10
	@DEBUG_VALUE: InitPreDefMPURegion:WBWARA <- 15
	@DEBUG_VALUE: SCB_DisableDCache:sets <- $r12
	@DEBUG_VALUE: SCB_DisableDCache:ways <- [DW_OP_constu 1023, DW_OP_and, DW_OP_stack_value] undef
	.loc	11 0 5                          @ ../../../../Library/CMSIS/Core/Include\cachel1_armv7.h:0:5
	and.w	r3, r4, r12, lsl #5
	mov	r7, r8
	.loc	11 200 7 is_stmt 1              @ ../../../../Library/CMSIS/Core/Include\cachel1_armv7.h:200:7
	cbz	r1, .LBB4_37
.Ltmp114:
@ %bb.34:                               @   in Loop: Header=BB4_33 Depth=1
	@DEBUG_VALUE: SCB_DisableDCache:sets <- $r12
	@DEBUG_VALUE: InitPreDefMPURegion:i32RegionIdx <- 1
	@DEBUG_VALUE: InitPreDefMPURegion:i32RetCode <- 0
	@DEBUG_VALUE: InitPreDefMPURegion:WTRA <- 10
	@DEBUG_VALUE: InitPreDefMPURegion:WBWARA <- 15
	@DEBUG_VALUE: SCB_DisableDCache:ways <- [DW_OP_constu 1023, DW_OP_and, DW_OP_stack_value] undef
	.loc	11 201 76                       @ ../../../../Library/CMSIS/Core/Include\cachel1_armv7.h:201:76
	orr.w	r0, lr, r3
	mov	r7, r11
	.loc	11 206 7                        @ ../../../../Library/CMSIS/Core/Include\cachel1_armv7.h:206:7
	cmp	r1, #1
	.loc	11 201 21                       @ ../../../../Library/CMSIS/Core/Include\cachel1_armv7.h:201:21
	str	r0, [r6, #20]
.Ltmp115:
	@DEBUG_VALUE: SCB_DisableDCache:ways <- $r11
	.loc	11 206 7                        @ ../../../../Library/CMSIS/Core/Include\cachel1_armv7.h:206:7
	beq	.LBB4_37
.Ltmp116:
@ %bb.35:                               @   in Loop: Header=BB4_33 Depth=1
	@DEBUG_VALUE: SCB_DisableDCache:ways <- $r11
	@DEBUG_VALUE: SCB_DisableDCache:sets <- $r12
	@DEBUG_VALUE: InitPreDefMPURegion:i32RegionIdx <- 1
	@DEBUG_VALUE: InitPreDefMPURegion:i32RetCode <- 0
	@DEBUG_VALUE: InitPreDefMPURegion:WTRA <- 10
	@DEBUG_VALUE: InitPreDefMPURegion:WBWARA <- 15
	@DEBUG_VALUE: SCB_DisableDCache:ways <- $r11
	.loc	11 201 76                       @ ../../../../Library/CMSIS/Core/Include\cachel1_armv7.h:201:76
	ldr	r0, [sp, #8]                    @ 4-byte Reload
	mov	r7, r10
	.loc	11 206 7                        @ ../../../../Library/CMSIS/Core/Include\cachel1_armv7.h:206:7
	cmp	r1, #2
	.loc	11 201 76                       @ ../../../../Library/CMSIS/Core/Include\cachel1_armv7.h:201:76
	orr.w	r0, r0, r3
	.loc	11 201 21 is_stmt 0             @ ../../../../Library/CMSIS/Core/Include\cachel1_armv7.h:201:21
	str	r0, [r6, #20]
.Ltmp117:
	@DEBUG_VALUE: SCB_DisableDCache:ways <- $r10
	.loc	11 206 7 is_stmt 1              @ ../../../../Library/CMSIS/Core/Include\cachel1_armv7.h:206:7
	beq	.LBB4_37
.Ltmp118:
@ %bb.36:                               @   in Loop: Header=BB4_33 Depth=1
	@DEBUG_VALUE: SCB_DisableDCache:ways <- $r10
	@DEBUG_VALUE: SCB_DisableDCache:sets <- $r12
	@DEBUG_VALUE: InitPreDefMPURegion:i32RegionIdx <- 1
	@DEBUG_VALUE: InitPreDefMPURegion:i32RetCode <- 0
	@DEBUG_VALUE: InitPreDefMPURegion:WTRA <- 10
	@DEBUG_VALUE: InitPreDefMPURegion:WBWARA <- 15
	@DEBUG_VALUE: SCB_DisableDCache:ways <- $r10
	.loc	11 201 76                       @ ../../../../Library/CMSIS/Core/Include\cachel1_armv7.h:201:76
	ldr	r0, [sp, #4]                    @ 4-byte Reload
	orrs	r0, r3
	.loc	11 201 21 is_stmt 0             @ ../../../../Library/CMSIS/Core/Include\cachel1_armv7.h:201:21
	str	r0, [r6, #20]
.Ltmp119:
	@DEBUG_VALUE: SCB_DisableDCache:ways <- [$sp+0]
	.loc	11 0 21                         @ ../../../../Library/CMSIS/Core/Include\cachel1_armv7.h:0:21
	ldr	r7, [sp]                        @ 4-byte Reload
.Ltmp120:
	.p2align	2
.LBB4_37:                               @   in Loop: Header=BB4_33 Depth=1
	@DEBUG_VALUE: SCB_DisableDCache:sets <- $r12
	@DEBUG_VALUE: InitPreDefMPURegion:i32RegionIdx <- 1
	@DEBUG_VALUE: InitPreDefMPURegion:i32RetCode <- 0
	@DEBUG_VALUE: InitPreDefMPURegion:WTRA <- 10
	@DEBUG_VALUE: InitPreDefMPURegion:WBWARA <- 15
	.loc	11 200 7 is_stmt 1              @ ../../../../Library/CMSIS/Core/Include\cachel1_armv7.h:200:7
	cmp.w	r8, #3
	blo	.LBB4_40
.Ltmp121:
@ %bb.38:                               @   in Loop: Header=BB4_33 Depth=1
	@DEBUG_VALUE: SCB_DisableDCache:sets <- $r12
	@DEBUG_VALUE: InitPreDefMPURegion:i32RegionIdx <- 1
	@DEBUG_VALUE: InitPreDefMPURegion:i32RetCode <- 0
	@DEBUG_VALUE: InitPreDefMPURegion:WTRA <- 10
	@DEBUG_VALUE: InitPreDefMPURegion:WBWARA <- 15
	orr.w	r0, r3, r7, lsl #30
	adds	r7, #1
	add.w	r3, r0, #-1073741824
	eor	r2, r0, #-2147483648
	add.w	r5, r0, #1073741824
.Ltmp122:
	.p2align	2
.LBB4_39:                               @   Parent Loop BB4_33 Depth=1
                                        @ =>  This Inner Loop Header: Depth=2
	@DEBUG_VALUE: SCB_DisableDCache:sets <- $r12
	@DEBUG_VALUE: InitPreDefMPURegion:i32RegionIdx <- 1
	@DEBUG_VALUE: InitPreDefMPURegion:i32RetCode <- 0
	@DEBUG_VALUE: InitPreDefMPURegion:WTRA <- 10
	@DEBUG_VALUE: InitPreDefMPURegion:WBWARA <- 15
	@DEBUG_VALUE: SCB_DisableDCache:ways <- [DW_OP_constu 1, DW_OP_minus, DW_OP_stack_value] $r7
	.loc	11 206 23                       @ ../../../../Library/CMSIS/Core/Include\cachel1_armv7.h:206:23
	subs	r7, #4
.Ltmp123:
	.loc	11 201 21                       @ ../../../../Library/CMSIS/Core/Include\cachel1_armv7.h:201:21
	str	r0, [r6, #20]
	str	r3, [r6, #20]
.Ltmp124:
	@DEBUG_VALUE: SCB_DisableDCache:ways <- [DW_OP_constu 2, DW_OP_minus, DW_OP_stack_value] $r7
	str	r2, [r6, #20]
.Ltmp125:
	@DEBUG_VALUE: SCB_DisableDCache:ways <- [DW_OP_constu 3, DW_OP_minus, DW_OP_stack_value] $r7
	str	r5, [r6, #20]
.Ltmp126:
	@DEBUG_VALUE: SCB_DisableDCache:ways <- [DW_OP_constu 5, DW_OP_minus, DW_OP_stack_value] $r7
	.loc	11 206 7                        @ ../../../../Library/CMSIS/Core/Include\cachel1_armv7.h:206:7
	bne	.LBB4_39
.Ltmp127:
.LBB4_40:                               @   in Loop: Header=BB4_33 Depth=1
	@DEBUG_VALUE: SCB_DisableDCache:sets <- $r12
	@DEBUG_VALUE: InitPreDefMPURegion:i32RegionIdx <- 1
	@DEBUG_VALUE: InitPreDefMPURegion:i32RetCode <- 0
	@DEBUG_VALUE: InitPreDefMPURegion:WTRA <- 10
	@DEBUG_VALUE: InitPreDefMPURegion:WBWARA <- 15
	.loc	11 207 17                       @ ../../../../Library/CMSIS/Core/Include\cachel1_armv7.h:207:17
	sub.w	r3, r12, #1
.Ltmp128:
	@DEBUG_VALUE: SCB_DisableDCache:ways <- [DW_OP_constu 1023, DW_OP_and, DW_OP_stack_value] undef
	@DEBUG_VALUE: SCB_DisableDCache:sets <- $r3
	.loc	11 0 17 is_stmt 0               @ ../../../../Library/CMSIS/Core/Include\cachel1_armv7.h:0:17
	and.w	r7, r4, r3, lsl #5
	mov	r0, r8
.Ltmp129:
	.loc	11 200 7 is_stmt 1              @ ../../../../Library/CMSIS/Core/Include\cachel1_armv7.h:200:7
	cbz	r1, .LBB4_44
.Ltmp130:
@ %bb.41:                               @   in Loop: Header=BB4_33 Depth=1
	@DEBUG_VALUE: SCB_DisableDCache:sets <- $r3
	@DEBUG_VALUE: InitPreDefMPURegion:i32RegionIdx <- 1
	@DEBUG_VALUE: InitPreDefMPURegion:i32RetCode <- 0
	@DEBUG_VALUE: InitPreDefMPURegion:WTRA <- 10
	@DEBUG_VALUE: InitPreDefMPURegion:WBWARA <- 15
	@DEBUG_VALUE: SCB_DisableDCache:ways <- [DW_OP_constu 1023, DW_OP_and, DW_OP_stack_value] undef
	.loc	11 201 76                       @ ../../../../Library/CMSIS/Core/Include\cachel1_armv7.h:201:76
	orr.w	r0, lr, r7
	.loc	11 201 21 is_stmt 0             @ ../../../../Library/CMSIS/Core/Include\cachel1_armv7.h:201:21
	str	r0, [r6, #20]
.Ltmp131:
	@DEBUG_VALUE: SCB_DisableDCache:ways <- $r11
	.loc	11 0 21                         @ ../../../../Library/CMSIS/Core/Include\cachel1_armv7.h:0:21
	mov	r0, r11
	.loc	11 206 7 is_stmt 1              @ ../../../../Library/CMSIS/Core/Include\cachel1_armv7.h:206:7
	cmp	r1, #1
	beq	.LBB4_44
.Ltmp132:
@ %bb.42:                               @   in Loop: Header=BB4_33 Depth=1
	@DEBUG_VALUE: SCB_DisableDCache:sets <- $r3
	@DEBUG_VALUE: SCB_DisableDCache:ways <- $r11
	@DEBUG_VALUE: InitPreDefMPURegion:i32RegionIdx <- 1
	@DEBUG_VALUE: InitPreDefMPURegion:i32RetCode <- 0
	@DEBUG_VALUE: InitPreDefMPURegion:WTRA <- 10
	@DEBUG_VALUE: InitPreDefMPURegion:WBWARA <- 15
	@DEBUG_VALUE: SCB_DisableDCache:ways <- $r11
	.loc	11 201 76                       @ ../../../../Library/CMSIS/Core/Include\cachel1_armv7.h:201:76
	ldr	r0, [sp, #8]                    @ 4-byte Reload
	.loc	11 206 7                        @ ../../../../Library/CMSIS/Core/Include\cachel1_armv7.h:206:7
	cmp	r1, #2
	.loc	11 201 76                       @ ../../../../Library/CMSIS/Core/Include\cachel1_armv7.h:201:76
	orr.w	r0, r0, r7
	.loc	11 201 21 is_stmt 0             @ ../../../../Library/CMSIS/Core/Include\cachel1_armv7.h:201:21
	str	r0, [r6, #20]
.Ltmp133:
	@DEBUG_VALUE: SCB_DisableDCache:ways <- $r10
	.loc	11 0 21                         @ ../../../../Library/CMSIS/Core/Include\cachel1_armv7.h:0:21
	mov	r0, r10
	.loc	11 206 7 is_stmt 1              @ ../../../../Library/CMSIS/Core/Include\cachel1_armv7.h:206:7
	beq	.LBB4_44
.Ltmp134:
@ %bb.43:                               @   in Loop: Header=BB4_33 Depth=1
	@DEBUG_VALUE: SCB_DisableDCache:sets <- $r3
	@DEBUG_VALUE: SCB_DisableDCache:ways <- $r10
	@DEBUG_VALUE: InitPreDefMPURegion:i32RegionIdx <- 1
	@DEBUG_VALUE: InitPreDefMPURegion:i32RetCode <- 0
	@DEBUG_VALUE: InitPreDefMPURegion:WTRA <- 10
	@DEBUG_VALUE: InitPreDefMPURegion:WBWARA <- 15
	@DEBUG_VALUE: SCB_DisableDCache:ways <- $r10
	.loc	11 201 76                       @ ../../../../Library/CMSIS/Core/Include\cachel1_armv7.h:201:76
	ldr	r0, [sp, #4]                    @ 4-byte Reload
	orrs	r0, r7
	.loc	11 201 21 is_stmt 0             @ ../../../../Library/CMSIS/Core/Include\cachel1_armv7.h:201:21
	str	r0, [r6, #20]
.Ltmp135:
	@DEBUG_VALUE: SCB_DisableDCache:ways <- [$sp+0]
	.loc	11 0 21                         @ ../../../../Library/CMSIS/Core/Include\cachel1_armv7.h:0:21
	ldr	r0, [sp]                        @ 4-byte Reload
.Ltmp136:
	.p2align	2
.LBB4_44:                               @   in Loop: Header=BB4_33 Depth=1
	@DEBUG_VALUE: SCB_DisableDCache:sets <- $r3
	@DEBUG_VALUE: InitPreDefMPURegion:i32RegionIdx <- 1
	@DEBUG_VALUE: InitPreDefMPURegion:i32RetCode <- 0
	@DEBUG_VALUE: InitPreDefMPURegion:WTRA <- 10
	@DEBUG_VALUE: InitPreDefMPURegion:WBWARA <- 15
	.loc	11 200 7 is_stmt 1              @ ../../../../Library/CMSIS/Core/Include\cachel1_armv7.h:200:7
	cmp.w	r8, #3
	blo	.LBB4_32
.Ltmp137:
@ %bb.45:                               @   in Loop: Header=BB4_33 Depth=1
	@DEBUG_VALUE: SCB_DisableDCache:sets <- $r3
	@DEBUG_VALUE: InitPreDefMPURegion:i32RegionIdx <- 1
	@DEBUG_VALUE: InitPreDefMPURegion:i32RetCode <- 0
	@DEBUG_VALUE: InitPreDefMPURegion:WTRA <- 10
	@DEBUG_VALUE: InitPreDefMPURegion:WBWARA <- 15
	orr.w	r7, r7, r0, lsl #30
	adds	r0, #1
	add.w	r2, r7, #-1073741824
	eor	r5, r7, #-2147483648
	add.w	r9, r7, #1073741824
.Ltmp138:
	.p2align	2
.LBB4_46:                               @   Parent Loop BB4_33 Depth=1
                                        @ =>  This Inner Loop Header: Depth=2
	@DEBUG_VALUE: SCB_DisableDCache:sets <- $r3
	@DEBUG_VALUE: InitPreDefMPURegion:i32RegionIdx <- 1
	@DEBUG_VALUE: InitPreDefMPURegion:i32RetCode <- 0
	@DEBUG_VALUE: InitPreDefMPURegion:WTRA <- 10
	@DEBUG_VALUE: InitPreDefMPURegion:WBWARA <- 15
	@DEBUG_VALUE: SCB_DisableDCache:ways <- [DW_OP_constu 1, DW_OP_minus, DW_OP_stack_value] $r0
	.loc	11 206 23                       @ ../../../../Library/CMSIS/Core/Include\cachel1_armv7.h:206:23
	subs	r0, #4
.Ltmp139:
	.loc	11 201 21                       @ ../../../../Library/CMSIS/Core/Include\cachel1_armv7.h:201:21
	str	r7, [r6, #20]
	str	r2, [r6, #20]
.Ltmp140:
	@DEBUG_VALUE: SCB_DisableDCache:ways <- [DW_OP_constu 2, DW_OP_minus, DW_OP_stack_value] $r0
	str	r5, [r6, #20]
.Ltmp141:
	@DEBUG_VALUE: SCB_DisableDCache:ways <- [DW_OP_constu 3, DW_OP_minus, DW_OP_stack_value] $r0
	str.w	r9, [r6, #20]
.Ltmp142:
	@DEBUG_VALUE: SCB_DisableDCache:ways <- [DW_OP_constu 5, DW_OP_minus, DW_OP_stack_value] $r0
	.loc	11 206 7                        @ ../../../../Library/CMSIS/Core/Include\cachel1_armv7.h:206:7
	bne	.LBB4_46
	b	.LBB4_32
.Ltmp143:
.LBB4_47:
	@DEBUG_VALUE: InitPreDefMPURegion:i32RegionIdx <- 1
	@DEBUG_VALUE: InitPreDefMPURegion:i32RetCode <- 0
	@DEBUG_VALUE: InitPreDefMPURegion:WTRA <- 10
	@DEBUG_VALUE: InitPreDefMPURegion:WBWARA <- 15
	.loc	11 209 5                        @ ../../../../Library/CMSIS/Core/Include\cachel1_armv7.h:209:5
	dsb	sy
	movw	r2, #65124
	movs	r1, #68
	.loc	11 210 5                        @ ../../../../Library/CMSIS/Core/Include\cachel1_armv7.h:210:5
	isb	sy
	movt	r2, #65535
.Ltmp144:
	@DEBUG_VALUE: ARM_MPU_SetMemAttrEx:mask <- 255
	@DEBUG_VALUE: ARM_MPU_SetMemAttrEx:pos <- 0
	@DEBUG_VALUE: ARM_MPU_SetMemAttrEx:reg <- 1
	@DEBUG_VALUE: ARM_MPU_SetMemAttrEx:attr <- 68
	@DEBUG_VALUE: ARM_MPU_SetMemAttrEx:idx <- 4
	@DEBUG_VALUE: ARM_MPU_SetMemAttrEx:mpu <- -536810096
	@DEBUG_VALUE: ARM_MPU_SetMemAttr:attr <- 68
	@DEBUG_VALUE: ARM_MPU_SetMemAttr:idx <- 4
	.loc	10 257 12                       @ ../../../../Library/CMSIS/Core/Include\mpu_armv8.h:257:12
	movw	r3, #65080
.Ltmp145:
	.loc	10 198 22                       @ ../../../../Library/CMSIS/Core/Include\mpu_armv8.h:198:22
	ldr	r0, [r6, r2]
.Ltmp146:
	.loc	10 257 12                       @ ../../../../Library/CMSIS/Core/Include\mpu_armv8.h:257:12
	movt	r3, #65535
.Ltmp147:
	@DEBUG_VALUE: ARM_MPU_SetRegionEx:rbar <- $r0
	@DEBUG_VALUE: ARM_MPU_SetRegion:rbar <- $r0
	@DEBUG_VALUE: ARM_MPU_SetRegionEx:rnr <- 7
	@DEBUG_VALUE: ARM_MPU_SetRegionEx:mpu <- -536810096
	@DEBUG_VALUE: ARM_MPU_SetRegion:rnr <- 7
	@DEBUG_VALUE: ARM_MPU_SetRegionEx:rlar <- $r2
	@DEBUG_VALUE: ARM_MPU_SetRegion:rlar <- $r2
	.loc	10 198 46                       @ ../../../../Library/CMSIS/Core/Include\mpu_armv8.h:198:46
	bfi	r0, r1, #0, #8
	.loc	10 198 18 is_stmt 0             @ ../../../../Library/CMSIS/Core/Include\mpu_armv8.h:198:18
	str	r0, [r6, r2]
.Ltmp148:
	.loc	2 304 27 is_stmt 1              @ ../../../../Library/Device/Nuvoton/M55M1/Source/system_M55M1.c:304:27
	movw	r0, :lower16:g_u32NonCacheableBase
	.loc	2 305 27                        @ ../../../../Library/Device/Nuvoton/M55M1/Source/system_M55M1.c:305:27
	movw	r2, :lower16:g_u32NonCacheableLimit
	.loc	2 304 27                        @ ../../../../Library/Device/Nuvoton/M55M1/Source/system_M55M1.c:304:27
	movt	r0, :upper16:g_u32NonCacheableBase
	.loc	2 305 27                        @ ../../../../Library/Device/Nuvoton/M55M1/Source/system_M55M1.c:305:27
	movt	r2, :upper16:g_u32NonCacheableLimit
	movs	r1, #1
	.loc	2 304 27                        @ ../../../../Library/Device/Nuvoton/M55M1/Source/system_M55M1.c:304:27
	ldr	r0, [r0]
	.loc	2 305 27                        @ ../../../../Library/Device/Nuvoton/M55M1/Source/system_M55M1.c:305:27
	ldr	r2, [r2]
	.loc	2 304 27                        @ ../../../../Library/Device/Nuvoton/M55M1/Source/system_M55M1.c:304:27
	bfi	r0, r1, #0, #5
	.loc	2 305 27                        @ ../../../../Library/Device/Nuvoton/M55M1/Source/system_M55M1.c:305:27
	bfi	r2, r1, #0, #5
	movs	r1, #7
.Ltmp149:
	.loc	10 257 12                       @ ../../../../Library/CMSIS/Core/Include\mpu_armv8.h:257:12
	str	r1, [r6, r3]
	.loc	10 258 13                       @ ../../../../Library/CMSIS/Core/Include\mpu_armv8.h:258:13
	movw	r1, #65084
	movt	r1, #65535
	str	r0, [r6, r1]
	.loc	10 259 13                       @ ../../../../Library/CMSIS/Core/Include\mpu_armv8.h:259:13
	movw	r0, #65088
	movt	r0, #65535
.Ltmp150:
	.loc	10 133 13                       @ ../../../../Library/CMSIS/Core/Include\mpu_armv8.h:133:13
	movw	r1, #65076
.Ltmp151:
	.loc	10 259 13                       @ ../../../../Library/CMSIS/Core/Include\mpu_armv8.h:259:13
	str	r2, [r6, r0]
.Ltmp152:
	@DEBUG_VALUE: ARM_MPU_Enable:MPU_Control <- 4
	.loc	10 0 13 is_stmt 0               @ ../../../../Library/CMSIS/Core/Include\mpu_armv8.h:0:13
	movs	r0, #5
.Ltmp153:
	.loc	10 133 13 is_stmt 1             @ ../../../../Library/CMSIS/Core/Include\mpu_armv8.h:133:13
	movt	r1, #65535
	.loc	10 132 3                        @ ../../../../Library/CMSIS/Core/Include\mpu_armv8.h:132:3
	dmb	sy
	.loc	10 133 13                       @ ../../../../Library/CMSIS/Core/Include\mpu_armv8.h:133:13
	str	r0, [r6, r1]
	movw	r1, #64964
	movt	r1, #65535
	.loc	10 135 14                       @ ../../../../Library/CMSIS/Core/Include\mpu_armv8.h:135:14
	ldr	r0, [r6, r1]
	orr	r0, r0, #65536
	str	r0, [r6, r1]
.Ltmp154:
	.loc	11 148 14                       @ ../../../../Library/CMSIS/Core/Include\cachel1_armv7.h:148:14
	movw	r0, #64948
.Ltmp155:
	.loc	10 137 3                        @ ../../../../Library/CMSIS/Core/Include\mpu_armv8.h:137:3
	dsb	sy
	.loc	10 138 3                        @ ../../../../Library/CMSIS/Core/Include\mpu_armv8.h:138:3
	isb	sy
.Ltmp156:
	.loc	11 148 14                       @ ../../../../Library/CMSIS/Core/Include\cachel1_armv7.h:148:14
	movt	r0, #65535
	ldr	r0, [r6, r0]
.Ltmp157:
	.loc	11 148 9 is_stmt 0              @ ../../../../Library/CMSIS/Core/Include\cachel1_armv7.h:148:9
	lsls	r0, r0, #15
	mov.w	r0, #0
	bmi.w	.LBB4_74
.Ltmp158:
@ %bb.48:
	@DEBUG_VALUE: InitPreDefMPURegion:i32RegionIdx <- 1
	@DEBUG_VALUE: InitPreDefMPURegion:i32RetCode <- 0
	@DEBUG_VALUE: InitPreDefMPURegion:WTRA <- 10
	@DEBUG_VALUE: InitPreDefMPURegion:WBWARA <- 15
	.loc	11 150 17 is_stmt 1             @ ../../../../Library/CMSIS/Core/Include\cachel1_armv7.h:150:17
	movw	r1, #65060
	movt	r1, #65535
	str	r0, [r6, r1]
	.loc	11 153 19                       @ ../../../../Library/CMSIS/Core/Include\cachel1_armv7.h:153:19
	movw	r0, #65056
	.loc	11 151 5                        @ ../../../../Library/CMSIS/Core/Include\cachel1_armv7.h:151:5
	dsb	sy
	.loc	11 153 19                       @ ../../../../Library/CMSIS/Core/Include\cachel1_armv7.h:153:19
	movt	r0, #65535
	ldr	r0, [r6, r0]
.Ltmp159:
	@DEBUG_VALUE: SCB_EnableDCache:ccsidr <- $r0
	.loc	11 0 19 is_stmt 0               @ ../../../../Library/CMSIS/Core/Include\cachel1_armv7.h:0:19
	ubfx	r3, r0, #3, #10
	.loc	11 156 23 is_stmt 1             @ ../../../../Library/CMSIS/Core/Include\cachel1_armv7.h:156:23
	ubfx	lr, r0, #13, #15
.Ltmp160:
	@DEBUG_VALUE: SCB_EnableDCache:sets <- [DW_OP_constu 32767, DW_OP_and, DW_OP_stack_value] undef
	.loc	11 157 5                        @ ../../../../Library/CMSIS/Core/Include\cachel1_armv7.h:157:5
	adds	r1, r3, #1
	lsr.w	r12, r0, #3
	lsls	r2, r0, #18
	and	r8, r1, #3
	mov	r1, lr
	bmi	.LBB4_56
.Ltmp161:
@ %bb.49:
	@DEBUG_VALUE: SCB_EnableDCache:ccsidr <- $r0
	@DEBUG_VALUE: InitPreDefMPURegion:i32RegionIdx <- 1
	@DEBUG_VALUE: InitPreDefMPURegion:i32RetCode <- 0
	@DEBUG_VALUE: InitPreDefMPURegion:WTRA <- 10
	@DEBUG_VALUE: InitPreDefMPURegion:WBWARA <- 15
	.loc	11 0 0 is_stmt 0                @ ../../../../Library/CMSIS/Core/Include\cachel1_armv7.h:0:0
	lsrs	r0, r0, #13
.Ltmp162:
	@DEBUG_VALUE: SCB_EnableDCache:ways <- [DW_OP_constu 1023, DW_OP_and, DW_OP_stack_value] $r12
	@DEBUG_VALUE: SCB_EnableDCache:sets <- [DW_OP_constu 32767, DW_OP_and, DW_OP_stack_value] $r0
	mov.w	r1, #16320
	and.w	r1, r1, r0, lsl #5
.Ltmp163:
	.loc	11 159 7 is_stmt 1              @ ../../../../Library/CMSIS/Core/Include\cachel1_armv7.h:159:7
	cmp.w	r8, #0
	mov	r5, r3
	beq	.LBB4_52
.Ltmp164:
@ %bb.50:
	@DEBUG_VALUE: SCB_EnableDCache:sets <- [DW_OP_constu 32767, DW_OP_and, DW_OP_stack_value] $r0
	@DEBUG_VALUE: SCB_EnableDCache:ways <- [DW_OP_constu 1023, DW_OP_and, DW_OP_stack_value] $r12
	@DEBUG_VALUE: InitPreDefMPURegion:i32RegionIdx <- 1
	@DEBUG_VALUE: InitPreDefMPURegion:i32RetCode <- 0
	@DEBUG_VALUE: InitPreDefMPURegion:WTRA <- 10
	@DEBUG_VALUE: InitPreDefMPURegion:WBWARA <- 15
	@DEBUG_VALUE: SCB_EnableDCache:ways <- [DW_OP_constu 1023, DW_OP_and, DW_OP_stack_value] $r12
	.loc	11 160 73                       @ ../../../../Library/CMSIS/Core/Include\cachel1_armv7.h:160:73
	orr.w	r0, r1, r12, lsl #30
.Ltmp165:
	.loc	11 165 7                        @ ../../../../Library/CMSIS/Core/Include\cachel1_armv7.h:165:7
	cmp.w	r8, #1
.Ltmp166:
	.loc	11 165 20 is_stmt 0             @ ../../../../Library/CMSIS/Core/Include\cachel1_armv7.h:165:20
	sub.w	r5, r3, #1
.Ltmp167:
	@DEBUG_VALUE: SCB_EnableDCache:ways <- $r5
	.loc	11 160 20 is_stmt 1             @ ../../../../Library/CMSIS/Core/Include\cachel1_armv7.h:160:20
	str	r0, [r6]
	.loc	11 165 7                        @ ../../../../Library/CMSIS/Core/Include\cachel1_armv7.h:165:7
	beq	.LBB4_52
.Ltmp168:
@ %bb.51:
	@DEBUG_VALUE: SCB_EnableDCache:ways <- $r5
	@DEBUG_VALUE: InitPreDefMPURegion:i32RegionIdx <- 1
	@DEBUG_VALUE: InitPreDefMPURegion:i32RetCode <- 0
	@DEBUG_VALUE: InitPreDefMPURegion:WTRA <- 10
	@DEBUG_VALUE: InitPreDefMPURegion:WBWARA <- 15
	@DEBUG_VALUE: SCB_EnableDCache:ways <- undef
	.loc	11 160 73                       @ ../../../../Library/CMSIS/Core/Include\cachel1_armv7.h:160:73
	orr.w	r0, r1, r5, lsl #30
.Ltmp169:
	.loc	11 165 20                       @ ../../../../Library/CMSIS/Core/Include\cachel1_armv7.h:165:20
	subs	r5, r3, #2
.Ltmp170:
	@DEBUG_VALUE: SCB_EnableDCache:ways <- $r5
	@DEBUG_VALUE: SCB_EnableDCache:ways <- undef
	.loc	11 165 7 is_stmt 0              @ ../../../../Library/CMSIS/Core/Include\cachel1_armv7.h:165:7
	cmp.w	r8, #2
	.loc	11 160 20 is_stmt 1             @ ../../../../Library/CMSIS/Core/Include\cachel1_armv7.h:160:20
	str	r0, [r6]
	.loc	11 160 73 is_stmt 0             @ ../../../../Library/CMSIS/Core/Include\cachel1_armv7.h:160:73
	ittt	ne
	orrne.w	r0, r1, r5, lsl #30
	.loc	11 160 20                       @ ../../../../Library/CMSIS/Core/Include\cachel1_armv7.h:160:20
	strne	r0, [r6]
.Ltmp171:
	.loc	11 165 20 is_stmt 1             @ ../../../../Library/CMSIS/Core/Include\cachel1_armv7.h:165:20
	subne	r5, r3, #3
.Ltmp172:
	@DEBUG_VALUE: SCB_EnableDCache:ways <- $r5
.LBB4_52:
	@DEBUG_VALUE: InitPreDefMPURegion:i32RegionIdx <- 1
	@DEBUG_VALUE: InitPreDefMPURegion:i32RetCode <- 0
	@DEBUG_VALUE: InitPreDefMPURegion:WTRA <- 10
	@DEBUG_VALUE: InitPreDefMPURegion:WBWARA <- 15
	.loc	11 159 7                        @ ../../../../Library/CMSIS/Core/Include\cachel1_armv7.h:159:7
	cmp	r3, #3
	blo	.LBB4_55
.Ltmp173:
@ %bb.53:
	@DEBUG_VALUE: InitPreDefMPURegion:i32RegionIdx <- 1
	@DEBUG_VALUE: InitPreDefMPURegion:i32RetCode <- 0
	@DEBUG_VALUE: InitPreDefMPURegion:WTRA <- 10
	@DEBUG_VALUE: InitPreDefMPURegion:WBWARA <- 15
	orr.w	r1, r1, r5, lsl #30
	adds	r2, r5, #1
	add.w	r4, r1, #-1073741824
	eor	r7, r1, #-2147483648
	add.w	r0, r1, #1073741824
.Ltmp174:
	.p2align	2
.LBB4_54:                               @ =>This Inner Loop Header: Depth=1
	@DEBUG_VALUE: InitPreDefMPURegion:i32RegionIdx <- 1
	@DEBUG_VALUE: InitPreDefMPURegion:i32RetCode <- 0
	@DEBUG_VALUE: InitPreDefMPURegion:WTRA <- 10
	@DEBUG_VALUE: InitPreDefMPURegion:WBWARA <- 15
	@DEBUG_VALUE: SCB_EnableDCache:ways <- [DW_OP_constu 1, DW_OP_minus, DW_OP_stack_value] $r2
	.loc	11 165 23                       @ ../../../../Library/CMSIS/Core/Include\cachel1_armv7.h:165:23
	subs	r2, #4
.Ltmp175:
	.loc	11 160 20                       @ ../../../../Library/CMSIS/Core/Include\cachel1_armv7.h:160:20
	str	r1, [r6]
	str	r4, [r6]
.Ltmp176:
	@DEBUG_VALUE: SCB_EnableDCache:ways <- [DW_OP_constu 2, DW_OP_minus, DW_OP_stack_value] $r2
	str	r7, [r6]
.Ltmp177:
	@DEBUG_VALUE: SCB_EnableDCache:ways <- [DW_OP_constu 3, DW_OP_minus, DW_OP_stack_value] $r2
	str	r0, [r6]
.Ltmp178:
	@DEBUG_VALUE: SCB_EnableDCache:ways <- [DW_OP_constu 5, DW_OP_minus, DW_OP_stack_value] $r2
	.loc	11 165 7                        @ ../../../../Library/CMSIS/Core/Include\cachel1_armv7.h:165:7
	bne	.LBB4_54
.Ltmp179:
.LBB4_55:
	@DEBUG_VALUE: InitPreDefMPURegion:i32RegionIdx <- 1
	@DEBUG_VALUE: InitPreDefMPURegion:i32RetCode <- 0
	@DEBUG_VALUE: InitPreDefMPURegion:WTRA <- 10
	@DEBUG_VALUE: InitPreDefMPURegion:WBWARA <- 15
	.loc	11 166 17                       @ ../../../../Library/CMSIS/Core/Include\cachel1_armv7.h:166:17
	sub.w	r1, lr, #1
.Ltmp180:
	@DEBUG_VALUE: SCB_EnableDCache:sets <- $r1
.LBB4_56:
	@DEBUG_VALUE: InitPreDefMPURegion:i32RegionIdx <- 1
	@DEBUG_VALUE: InitPreDefMPURegion:i32RetCode <- 0
	@DEBUG_VALUE: InitPreDefMPURegion:WTRA <- 10
	@DEBUG_VALUE: InitPreDefMPURegion:WBWARA <- 15
	.loc	11 157 5                        @ ../../../../Library/CMSIS/Core/Include\cachel1_armv7.h:157:5
	cmp.w	lr, #0
	beq	.LBB4_73
.Ltmp181:
@ %bb.57:
	@DEBUG_VALUE: InitPreDefMPURegion:i32RegionIdx <- 1
	@DEBUG_VALUE: InitPreDefMPURegion:i32RetCode <- 0
	@DEBUG_VALUE: InitPreDefMPURegion:WTRA <- 10
	@DEBUG_VALUE: InitPreDefMPURegion:WBWARA <- 15
	.loc	11 0 5 is_stmt 0                @ ../../../../Library/CMSIS/Core/Include\cachel1_armv7.h:0:5
	sub.w	lr, r3, #1
	sub.w	r9, r3, #2
	lsl.w	r0, lr, #30
	movw	r10, #16352
	str	r0, [sp, #8]                    @ 4-byte Spill
	lsl.w	r0, r9, #30
	lsl.w	r11, r12, #30
	str	r0, [sp, #4]                    @ 4-byte Spill
	subs	r0, r3, #3
	str	r0, [sp]                        @ 4-byte Spill
	b	.LBB4_59
.Ltmp182:
	.p2align	2
.LBB4_58:                               @   in Loop: Header=BB4_59 Depth=1
	@DEBUG_VALUE: SCB_EnableDCache:sets <- $r4
	@DEBUG_VALUE: InitPreDefMPURegion:i32RegionIdx <- 1
	@DEBUG_VALUE: InitPreDefMPURegion:i32RetCode <- 0
	@DEBUG_VALUE: InitPreDefMPURegion:WTRA <- 10
	@DEBUG_VALUE: InitPreDefMPURegion:WBWARA <- 15
	.loc	11 166 5 is_stmt 1              @ ../../../../Library/CMSIS/Core/Include\cachel1_armv7.h:166:5
	cmp	r4, #0
.Ltmp183:
	.loc	11 166 17 is_stmt 0             @ ../../../../Library/CMSIS/Core/Include\cachel1_armv7.h:166:17
	sub.w	r1, r1, #2
.Ltmp184:
	@DEBUG_VALUE: SCB_EnableDCache:sets <- $r1
	.loc	11 166 5                        @ ../../../../Library/CMSIS/Core/Include\cachel1_armv7.h:166:5
	beq	.LBB4_73
.Ltmp185:
.LBB4_59:                               @ =>This Loop Header: Depth=1
                                        @     Child Loop BB4_65 Depth 2
                                        @     Child Loop BB4_72 Depth 2
	@DEBUG_VALUE: InitPreDefMPURegion:i32RegionIdx <- 1
	@DEBUG_VALUE: InitPreDefMPURegion:i32RetCode <- 0
	@DEBUG_VALUE: InitPreDefMPURegion:WTRA <- 10
	@DEBUG_VALUE: InitPreDefMPURegion:WBWARA <- 15
	@DEBUG_VALUE: SCB_EnableDCache:sets <- $r1
	@DEBUG_VALUE: SCB_EnableDCache:ways <- [DW_OP_constu 1023, DW_OP_and, DW_OP_stack_value] undef
	.loc	11 0 5                          @ ../../../../Library/CMSIS/Core/Include\cachel1_armv7.h:0:5
	and.w	r4, r10, r1, lsl #5
	.loc	11 159 7 is_stmt 1              @ ../../../../Library/CMSIS/Core/Include\cachel1_armv7.h:159:7
	cmp.w	r8, #0
	mov	r5, r3
	beq	.LBB4_63
.Ltmp186:
@ %bb.60:                               @   in Loop: Header=BB4_59 Depth=1
	@DEBUG_VALUE: SCB_EnableDCache:sets <- $r1
	@DEBUG_VALUE: InitPreDefMPURegion:i32RegionIdx <- 1
	@DEBUG_VALUE: InitPreDefMPURegion:i32RetCode <- 0
	@DEBUG_VALUE: InitPreDefMPURegion:WTRA <- 10
	@DEBUG_VALUE: InitPreDefMPURegion:WBWARA <- 15
	@DEBUG_VALUE: SCB_EnableDCache:ways <- [DW_OP_constu 1023, DW_OP_and, DW_OP_stack_value] undef
	.loc	11 160 73                       @ ../../../../Library/CMSIS/Core/Include\cachel1_armv7.h:160:73
	orr.w	r0, r11, r4
	mov	r5, lr
	.loc	11 165 7                        @ ../../../../Library/CMSIS/Core/Include\cachel1_armv7.h:165:7
	cmp.w	r8, #1
	.loc	11 160 20                       @ ../../../../Library/CMSIS/Core/Include\cachel1_armv7.h:160:20
	str	r0, [r6]
.Ltmp187:
	@DEBUG_VALUE: SCB_EnableDCache:ways <- $lr
	.loc	11 165 7                        @ ../../../../Library/CMSIS/Core/Include\cachel1_armv7.h:165:7
	beq	.LBB4_63
.Ltmp188:
@ %bb.61:                               @   in Loop: Header=BB4_59 Depth=1
	@DEBUG_VALUE: SCB_EnableDCache:ways <- $lr
	@DEBUG_VALUE: SCB_EnableDCache:sets <- $r1
	@DEBUG_VALUE: InitPreDefMPURegion:i32RegionIdx <- 1
	@DEBUG_VALUE: InitPreDefMPURegion:i32RetCode <- 0
	@DEBUG_VALUE: InitPreDefMPURegion:WTRA <- 10
	@DEBUG_VALUE: InitPreDefMPURegion:WBWARA <- 15
	@DEBUG_VALUE: SCB_EnableDCache:ways <- $lr
	.loc	11 160 73                       @ ../../../../Library/CMSIS/Core/Include\cachel1_armv7.h:160:73
	ldr	r0, [sp, #8]                    @ 4-byte Reload
	mov	r5, r9
	.loc	11 165 7                        @ ../../../../Library/CMSIS/Core/Include\cachel1_armv7.h:165:7
	cmp.w	r8, #2
	.loc	11 160 73                       @ ../../../../Library/CMSIS/Core/Include\cachel1_armv7.h:160:73
	orr.w	r0, r0, r4
	.loc	11 160 20 is_stmt 0             @ ../../../../Library/CMSIS/Core/Include\cachel1_armv7.h:160:20
	str	r0, [r6]
.Ltmp189:
	@DEBUG_VALUE: SCB_EnableDCache:ways <- $r9
	.loc	11 165 7 is_stmt 1              @ ../../../../Library/CMSIS/Core/Include\cachel1_armv7.h:165:7
	beq	.LBB4_63
.Ltmp190:
@ %bb.62:                               @   in Loop: Header=BB4_59 Depth=1
	@DEBUG_VALUE: SCB_EnableDCache:ways <- $r9
	@DEBUG_VALUE: SCB_EnableDCache:sets <- $r1
	@DEBUG_VALUE: InitPreDefMPURegion:i32RegionIdx <- 1
	@DEBUG_VALUE: InitPreDefMPURegion:i32RetCode <- 0
	@DEBUG_VALUE: InitPreDefMPURegion:WTRA <- 10
	@DEBUG_VALUE: InitPreDefMPURegion:WBWARA <- 15
	@DEBUG_VALUE: SCB_EnableDCache:ways <- $r9
	.loc	11 160 73                       @ ../../../../Library/CMSIS/Core/Include\cachel1_armv7.h:160:73
	ldr	r0, [sp, #4]                    @ 4-byte Reload
	orrs	r0, r4
	.loc	11 160 20 is_stmt 0             @ ../../../../Library/CMSIS/Core/Include\cachel1_armv7.h:160:20
	str	r0, [r6]
.Ltmp191:
	@DEBUG_VALUE: SCB_EnableDCache:ways <- [$sp+0]
	.loc	11 0 20                         @ ../../../../Library/CMSIS/Core/Include\cachel1_armv7.h:0:20
	ldr	r5, [sp]                        @ 4-byte Reload
.Ltmp192:
	.p2align	2
.LBB4_63:                               @   in Loop: Header=BB4_59 Depth=1
	@DEBUG_VALUE: SCB_EnableDCache:sets <- $r1
	@DEBUG_VALUE: InitPreDefMPURegion:i32RegionIdx <- 1
	@DEBUG_VALUE: InitPreDefMPURegion:i32RetCode <- 0
	@DEBUG_VALUE: InitPreDefMPURegion:WTRA <- 10
	@DEBUG_VALUE: InitPreDefMPURegion:WBWARA <- 15
	.loc	11 159 7 is_stmt 1              @ ../../../../Library/CMSIS/Core/Include\cachel1_armv7.h:159:7
	cmp	r3, #3
	blo	.LBB4_66
.Ltmp193:
@ %bb.64:                               @   in Loop: Header=BB4_59 Depth=1
	@DEBUG_VALUE: SCB_EnableDCache:sets <- $r1
	@DEBUG_VALUE: InitPreDefMPURegion:i32RegionIdx <- 1
	@DEBUG_VALUE: InitPreDefMPURegion:i32RetCode <- 0
	@DEBUG_VALUE: InitPreDefMPURegion:WTRA <- 10
	@DEBUG_VALUE: InitPreDefMPURegion:WBWARA <- 15
	orr.w	r0, r4, r5, lsl #30
	adds	r5, #1
	add.w	r4, r0, #-1073741824
	eor	r7, r0, #-2147483648
	add.w	r2, r0, #1073741824
.Ltmp194:
	.p2align	2
.LBB4_65:                               @   Parent Loop BB4_59 Depth=1
                                        @ =>  This Inner Loop Header: Depth=2
	@DEBUG_VALUE: SCB_EnableDCache:sets <- $r1
	@DEBUG_VALUE: InitPreDefMPURegion:i32RegionIdx <- 1
	@DEBUG_VALUE: InitPreDefMPURegion:i32RetCode <- 0
	@DEBUG_VALUE: InitPreDefMPURegion:WTRA <- 10
	@DEBUG_VALUE: InitPreDefMPURegion:WBWARA <- 15
	@DEBUG_VALUE: SCB_EnableDCache:ways <- [DW_OP_constu 1, DW_OP_minus, DW_OP_stack_value] $r5
	.loc	11 165 23                       @ ../../../../Library/CMSIS/Core/Include\cachel1_armv7.h:165:23
	subs	r5, #4
.Ltmp195:
	.loc	11 160 20                       @ ../../../../Library/CMSIS/Core/Include\cachel1_armv7.h:160:20
	str	r0, [r6]
	str	r4, [r6]
.Ltmp196:
	@DEBUG_VALUE: SCB_EnableDCache:ways <- [DW_OP_constu 2, DW_OP_minus, DW_OP_stack_value] $r5
	str	r7, [r6]
.Ltmp197:
	@DEBUG_VALUE: SCB_EnableDCache:ways <- [DW_OP_constu 3, DW_OP_minus, DW_OP_stack_value] $r5
	str	r2, [r6]
.Ltmp198:
	@DEBUG_VALUE: SCB_EnableDCache:ways <- [DW_OP_constu 5, DW_OP_minus, DW_OP_stack_value] $r5
	.loc	11 165 7                        @ ../../../../Library/CMSIS/Core/Include\cachel1_armv7.h:165:7
	bne	.LBB4_65
.Ltmp199:
.LBB4_66:                               @   in Loop: Header=BB4_59 Depth=1
	@DEBUG_VALUE: SCB_EnableDCache:sets <- $r1
	@DEBUG_VALUE: InitPreDefMPURegion:i32RegionIdx <- 1
	@DEBUG_VALUE: InitPreDefMPURegion:i32RetCode <- 0
	@DEBUG_VALUE: InitPreDefMPURegion:WTRA <- 10
	@DEBUG_VALUE: InitPreDefMPURegion:WBWARA <- 15
	.loc	11 166 17                       @ ../../../../Library/CMSIS/Core/Include\cachel1_armv7.h:166:17
	subs	r4, r1, #1
.Ltmp200:
	@DEBUG_VALUE: SCB_EnableDCache:ways <- [DW_OP_constu 1023, DW_OP_and, DW_OP_stack_value] undef
	@DEBUG_VALUE: SCB_EnableDCache:sets <- $r4
	.loc	11 159 7                        @ ../../../../Library/CMSIS/Core/Include\cachel1_armv7.h:159:7
	cmp.w	r8, #0
	and.w	r5, r10, r4, lsl #5
	mov	r0, r3
	beq	.LBB4_70
.Ltmp201:
@ %bb.67:                               @   in Loop: Header=BB4_59 Depth=1
	@DEBUG_VALUE: SCB_EnableDCache:sets <- $r4
	@DEBUG_VALUE: InitPreDefMPURegion:i32RegionIdx <- 1
	@DEBUG_VALUE: InitPreDefMPURegion:i32RetCode <- 0
	@DEBUG_VALUE: InitPreDefMPURegion:WTRA <- 10
	@DEBUG_VALUE: InitPreDefMPURegion:WBWARA <- 15
	@DEBUG_VALUE: SCB_EnableDCache:ways <- [DW_OP_constu 1023, DW_OP_and, DW_OP_stack_value] undef
	.loc	11 160 73                       @ ../../../../Library/CMSIS/Core/Include\cachel1_armv7.h:160:73
	orr.w	r0, r11, r5
	.loc	11 160 20 is_stmt 0             @ ../../../../Library/CMSIS/Core/Include\cachel1_armv7.h:160:20
	str	r0, [r6]
.Ltmp202:
	@DEBUG_VALUE: SCB_EnableDCache:ways <- $lr
	.loc	11 0 20                         @ ../../../../Library/CMSIS/Core/Include\cachel1_armv7.h:0:20
	mov	r0, lr
	.loc	11 165 7 is_stmt 1              @ ../../../../Library/CMSIS/Core/Include\cachel1_armv7.h:165:7
	cmp.w	r8, #1
	beq	.LBB4_70
.Ltmp203:
@ %bb.68:                               @   in Loop: Header=BB4_59 Depth=1
	@DEBUG_VALUE: SCB_EnableDCache:sets <- $r4
	@DEBUG_VALUE: SCB_EnableDCache:ways <- $lr
	@DEBUG_VALUE: InitPreDefMPURegion:i32RegionIdx <- 1
	@DEBUG_VALUE: InitPreDefMPURegion:i32RetCode <- 0
	@DEBUG_VALUE: InitPreDefMPURegion:WTRA <- 10
	@DEBUG_VALUE: InitPreDefMPURegion:WBWARA <- 15
	@DEBUG_VALUE: SCB_EnableDCache:ways <- $lr
	.loc	11 160 73                       @ ../../../../Library/CMSIS/Core/Include\cachel1_armv7.h:160:73
	ldr	r0, [sp, #8]                    @ 4-byte Reload
	.loc	11 165 7                        @ ../../../../Library/CMSIS/Core/Include\cachel1_armv7.h:165:7
	cmp.w	r8, #2
	.loc	11 160 73                       @ ../../../../Library/CMSIS/Core/Include\cachel1_armv7.h:160:73
	orr.w	r0, r0, r5
	.loc	11 160 20 is_stmt 0             @ ../../../../Library/CMSIS/Core/Include\cachel1_armv7.h:160:20
	str	r0, [r6]
.Ltmp204:
	@DEBUG_VALUE: SCB_EnableDCache:ways <- $r9
	.loc	11 0 20                         @ ../../../../Library/CMSIS/Core/Include\cachel1_armv7.h:0:20
	mov	r0, r9
	.loc	11 165 7 is_stmt 1              @ ../../../../Library/CMSIS/Core/Include\cachel1_armv7.h:165:7
	beq	.LBB4_70
.Ltmp205:
@ %bb.69:                               @   in Loop: Header=BB4_59 Depth=1
	@DEBUG_VALUE: SCB_EnableDCache:sets <- $r4
	@DEBUG_VALUE: SCB_EnableDCache:ways <- $r9
	@DEBUG_VALUE: InitPreDefMPURegion:i32RegionIdx <- 1
	@DEBUG_VALUE: InitPreDefMPURegion:i32RetCode <- 0
	@DEBUG_VALUE: InitPreDefMPURegion:WTRA <- 10
	@DEBUG_VALUE: InitPreDefMPURegion:WBWARA <- 15
	@DEBUG_VALUE: SCB_EnableDCache:ways <- $r9
	.loc	11 160 73                       @ ../../../../Library/CMSIS/Core/Include\cachel1_armv7.h:160:73
	ldr	r0, [sp, #4]                    @ 4-byte Reload
	orrs	r0, r5
	.loc	11 160 20 is_stmt 0             @ ../../../../Library/CMSIS/Core/Include\cachel1_armv7.h:160:20
	str	r0, [r6]
.Ltmp206:
	@DEBUG_VALUE: SCB_EnableDCache:ways <- [$sp+0]
	.loc	11 0 20                         @ ../../../../Library/CMSIS/Core/Include\cachel1_armv7.h:0:20
	ldr	r0, [sp]                        @ 4-byte Reload
.Ltmp207:
	.p2align	2
.LBB4_70:                               @   in Loop: Header=BB4_59 Depth=1
	@DEBUG_VALUE: SCB_EnableDCache:sets <- $r4
	@DEBUG_VALUE: InitPreDefMPURegion:i32RegionIdx <- 1
	@DEBUG_VALUE: InitPreDefMPURegion:i32RetCode <- 0
	@DEBUG_VALUE: InitPreDefMPURegion:WTRA <- 10
	@DEBUG_VALUE: InitPreDefMPURegion:WBWARA <- 15
	.loc	11 159 7 is_stmt 1              @ ../../../../Library/CMSIS/Core/Include\cachel1_armv7.h:159:7
	cmp	r3, #3
	blo	.LBB4_58
.Ltmp208:
@ %bb.71:                               @   in Loop: Header=BB4_59 Depth=1
	@DEBUG_VALUE: SCB_EnableDCache:sets <- $r4
	@DEBUG_VALUE: InitPreDefMPURegion:i32RegionIdx <- 1
	@DEBUG_VALUE: InitPreDefMPURegion:i32RetCode <- 0
	@DEBUG_VALUE: InitPreDefMPURegion:WTRA <- 10
	@DEBUG_VALUE: InitPreDefMPURegion:WBWARA <- 15
	orr.w	r5, r5, r0, lsl #30
	adds	r0, #1
	add.w	r12, r5, #-1073741824
	eor	r7, r5, #-2147483648
	add.w	r2, r5, #1073741824
.Ltmp209:
	.p2align	2
.LBB4_72:                               @   Parent Loop BB4_59 Depth=1
                                        @ =>  This Inner Loop Header: Depth=2
	@DEBUG_VALUE: SCB_EnableDCache:sets <- $r4
	@DEBUG_VALUE: InitPreDefMPURegion:i32RegionIdx <- 1
	@DEBUG_VALUE: InitPreDefMPURegion:i32RetCode <- 0
	@DEBUG_VALUE: InitPreDefMPURegion:WTRA <- 10
	@DEBUG_VALUE: InitPreDefMPURegion:WBWARA <- 15
	@DEBUG_VALUE: SCB_EnableDCache:ways <- [DW_OP_constu 1, DW_OP_minus, DW_OP_stack_value] $r0
	.loc	11 165 23                       @ ../../../../Library/CMSIS/Core/Include\cachel1_armv7.h:165:23
	subs	r0, #4
.Ltmp210:
	.loc	11 160 20                       @ ../../../../Library/CMSIS/Core/Include\cachel1_armv7.h:160:20
	str	r5, [r6]
	str.w	r12, [r6]
.Ltmp211:
	@DEBUG_VALUE: SCB_EnableDCache:ways <- [DW_OP_constu 2, DW_OP_minus, DW_OP_stack_value] $r0
	str	r7, [r6]
.Ltmp212:
	@DEBUG_VALUE: SCB_EnableDCache:ways <- [DW_OP_constu 3, DW_OP_minus, DW_OP_stack_value] $r0
	str	r2, [r6]
.Ltmp213:
	@DEBUG_VALUE: SCB_EnableDCache:ways <- [DW_OP_constu 5, DW_OP_minus, DW_OP_stack_value] $r0
	.loc	11 165 7                        @ ../../../../Library/CMSIS/Core/Include\cachel1_armv7.h:165:7
	bne	.LBB4_72
	b	.LBB4_58
.Ltmp214:
.LBB4_73:
	@DEBUG_VALUE: InitPreDefMPURegion:i32RegionIdx <- 1
	@DEBUG_VALUE: InitPreDefMPURegion:i32RetCode <- 0
	@DEBUG_VALUE: InitPreDefMPURegion:WTRA <- 10
	@DEBUG_VALUE: InitPreDefMPURegion:WBWARA <- 15
	.loc	11 0 7 is_stmt 0                @ ../../../../Library/CMSIS/Core/Include\cachel1_armv7.h:0:7
	movw	r1, #64948
	.loc	11 167 5 is_stmt 1              @ ../../../../Library/CMSIS/Core/Include\cachel1_armv7.h:167:5
	dsb	sy
	movt	r1, #65535
	.loc	11 169 14                       @ ../../../../Library/CMSIS/Core/Include\cachel1_armv7.h:169:14
	ldr	r0, [r6, r1]
	orr	r0, r0, #65536
	str	r0, [r6, r1]
	movs	r0, #0
	.loc	11 171 5                        @ ../../../../Library/CMSIS/Core/Include\cachel1_armv7.h:171:5
	dsb	sy
	.loc	11 172 5                        @ ../../../../Library/CMSIS/Core/Include\cachel1_armv7.h:172:5
	isb	sy
.Ltmp215:
.LBB4_74:
	@DEBUG_VALUE: InitPreDefMPURegion:i32RegionIdx <- 1
	@DEBUG_VALUE: InitPreDefMPURegion:i32RetCode <- 0
	@DEBUG_VALUE: InitPreDefMPURegion:WTRA <- 10
	@DEBUG_VALUE: InitPreDefMPURegion:WBWARA <- 15
	.loc	2 316 1 epilogue_begin          @ ../../../../Library/Device/Nuvoton/M55M1/Source/system_M55M1.c:316:1
	add	sp, #12
	pop.w	{r4, r5, r6, r7, r8, r9, r10, r11, pc}
.Ltmp216:
	.p2align	2
@ %bb.75:
	.loc	2 0 1 is_stmt 0                 @ ../../../../Library/Device/Nuvoton/M55M1/Source/system_M55M1.c:0:1
.LCPI4_0:
.L.str:
	.asciz	"u32RegionCnt: %d, (MPU_REGIONS_MAX - i32RegionIdx): %d\n"
.Lfunc_end4:
	.size	InitPreDefMPURegion, .Lfunc_end4-InitPreDefMPURegion
	.cfi_endproc
	.cantunwind
	.fnend
                                        @ -- End function
	.section	.text.SystemInit,"ax",%progbits
	.hidden	SystemInit                      @ -- Begin function SystemInit
	.globl	SystemInit
	.p2align	2
	.type	SystemInit,%function
	.code	16                              @ @SystemInit
	.thumb_func
SystemInit:
.Lfunc_begin5:
	.fnstart
	.cfi_startproc
@ %bb.0:
	.loc	2 325 15 prologue_end is_stmt 1 @ ../../../../Library/Device/Nuvoton/M55M1/Source/system_M55M1.c:325:15
	movw	r0, :lower16:__Vectors
	movw	r1, #60692
	movt	r0, :upper16:__Vectors
	movt	r1, #57344
	str	r0, [r1, #-12]
	.loc	2 336 14                        @ ../../../../Library/Device/Nuvoton/M55M1/Source/system_M55M1.c:336:14
	ldr	r0, [r1]
	orr	r0, r0, #524288
	str	r0, [r1]
	.loc	2 337 5                         @ ../../../../Library/Device/Nuvoton/M55M1/Source/system_M55M1.c:337:5
	dsb	sy
	.loc	2 338 5                         @ ../../../../Library/Device/Nuvoton/M55M1/Source/system_M55M1.c:338:5
	isb	sy
	.loc	2 345 1                         @ ../../../../Library/Device/Nuvoton/M55M1/Source/system_M55M1.c:345:1
	bx	lr
.Ltmp217:
.Lfunc_end5:
	.size	SystemInit, .Lfunc_end5-SystemInit
	.cfi_endproc
	.cantunwind
	.fnend
                                        @ -- End function
	.hidden	SystemCoreClock                 @ @SystemCoreClock
	.type	SystemCoreClock,%object
	.section	.data.SystemCoreClock,"aw",%progbits
	.globl	SystemCoreClock
	.p2align	2, 0x0
SystemCoreClock:
	.long	200000000                       @ 0xbebc200
	.size	SystemCoreClock, 4

	.hidden	CyclesPerUs                     @ @CyclesPerUs
	.type	CyclesPerUs,%object
	.section	.data.CyclesPerUs,"aw",%progbits
	.globl	CyclesPerUs
	.p2align	2, 0x0
CyclesPerUs:
	.long	200                             @ 0xc8
	.size	CyclesPerUs, 4

	.hidden	PllClock                        @ @PllClock
	.type	PllClock,%object
	.section	.data.PllClock,"aw",%progbits
	.globl	PllClock
	.p2align	2, 0x0
PllClock:
	.long	200000000                       @ 0xbebc200
	.size	PllClock, 4

	.hidden	g_u32NonCacheableBase           @ @g_u32NonCacheableBase
	.type	g_u32NonCacheableBase,%object
	.section	.bss.g_u32NonCacheableBase,"aw",%nobits
	.globl	g_u32NonCacheableBase
	.p2align	2, 0x0
g_u32NonCacheableBase:
	.long	0                               @ 0x0
	.size	g_u32NonCacheableBase, 4

	.hidden	g_u32NonCacheableLimit          @ @g_u32NonCacheableLimit
	.type	g_u32NonCacheableLimit,%object
	.section	.bss.g_u32NonCacheableLimit,"aw",%nobits
	.globl	g_u32NonCacheableLimit
	.p2align	2, 0x0
g_u32NonCacheableLimit:
	.long	0                               @ 0x0
	.size	g_u32NonCacheableLimit, 4

	.section	.init_array,"aw",%init_array
	.p2align	2, 0x0
	.long	SystemInit(target1)
	.hidden	_printf_percent
	.hidden	_printf_d
	.hidden	_printf_int_dec
	.section	".note.GNU-stack","",%progbits
	.eabi_attribute	30, 1	@ Tag_ABI_optimization_goals
	.ARM_attribute	16, 1	@ Tag_AV_eba