	.text
	.syntax unified
	.eabi_attribute	67, "2.09"	@ Tag_conformance
	.cpu	cortex-m55
	.eabi_attribute	6, 21	@ Tag_CPU_arch
	.eabi_attribute	7, 77	@ Tag_CPU_arch_profile
	.eabi_attribute	8, 0	@ Tag_ARM_ISA_use
	.eabi_attribute	9, 3	@ Tag_THUMB_ISA_use
	.fpu	fpv5-d16
	.eabi_attribute	36, 1	@ Tag_FP_HP_extension
	.eabi_attribute	48, 2	@ Tag_MVE_arch
	.eabi_attribute	46, 1	@ Tag_DSP_extension
	.eabi_attribute	34, 1	@ Tag_CPU_unaligned_access
	.eabi_attribute	17, 1	@ Tag_ABI_PCS_GOT_use
	.eabi_attribute	20, 2	@ Tag_ABI_FP_denormal
	.eabi_attribute	21, 0	@ Tag_ABI_FP_exceptions
	.eabi_attribute	23, 1	@ Tag_ABI_FP_number_model
	.eabi_attribute	24, 1	@ Tag_ABI_align_needed
	.eabi_attribute	25, 1	@ Tag_ABI_align_preserved
	.eabi_attribute	28, 1	@ Tag_ABI_VFP_args
	.eabi_attribute	38, 1	@ Tag_ABI_FP_16bit_format
	.eabi_attribute	18, 2	@ Tag_ABI_PCS_wchar_t
	.eabi_attribute	26, 1	@ Tag_ABI_enum_size
	.eabi_attribute	14, 0	@ Tag_ABI_PCS_R9_use
	.file	"uart.c"
	.file	1 "C:\\Keil_v5\\ARM\\ARMCLANG\\Bin\\..\\include" "stdint.h"
	.file	2 "C:\\Users\\cychen38\\Desktop\\M55M1BSP\\SampleCode\\MachineLearning\\ObjectDetection_FreeRTOS_yoloxn\\KEIL" "../../../../Library/Device/Nuvoton/M55M1/Include/uart_reg.h"
	.file	3 "C:\\Users\\cychen38\\Desktop\\M55M1BSP\\SampleCode\\MachineLearning\\ObjectDetection_FreeRTOS_yoloxn\\KEIL" "../../../../Library/Device/Nuvoton/M55M1/Include/clk_reg.h"
	.file	4 "C:\\Users\\cychen38\\Desktop\\M55M1BSP\\SampleCode\\MachineLearning\\ObjectDetection_FreeRTOS_yoloxn\\KEIL" "../../../../Library/Device/Nuvoton/M55M1/Include/ccap_reg.h"
	.section	.text.UART_ClearIntFlag,"ax",%progbits
	.hidden	UART_ClearIntFlag               @ -- Begin function UART_ClearIntFlag
	.globl	UART_ClearIntFlag
	.p2align	2
	.type	UART_ClearIntFlag,%function
	.code	16                              @ @UART_ClearIntFlag
	.thumb_func
UART_ClearIntFlag:
.Lfunc_begin0:
	.file	5 "C:\\Users\\cychen38\\Desktop\\M55M1BSP\\SampleCode\\MachineLearning\\ObjectDetection_FreeRTOS_yoloxn\\KEIL" "../../../../Library/StdDriver/src/uart.c"
	.loc	5 43 0                          @ ../../../../Library/StdDriver/src/uart.c:43:0
	.fnstart
	.cfi_sections .debug_frame
	.cfi_startproc
@ %bb.0:
	@DEBUG_VALUE: UART_ClearIntFlag:uart <- $r0
	@DEBUG_VALUE: UART_ClearIntFlag:u32InterruptFlag <- $r1
	.loc	5 45 9 prologue_end             @ ../../../../Library/StdDriver/src/uart.c:45:9
	lsls	r2, r1, #7
	itt	mi
	movmi.w	r2, #65536
.Ltmp0:
	.loc	5 47 23                         @ ../../../../Library/StdDriver/src/uart.c:47:23
	strmi	r2, [r0, #24]
.Ltmp1:
	.loc	5 50 9                          @ ../../../../Library/StdDriver/src/uart.c:50:9
	lsls	r2, r1, #21
	bpl	.LBB0_2
.Ltmp2:
@ %bb.1:
	@DEBUG_VALUE: UART_ClearIntFlag:u32InterruptFlag <- $r1
	@DEBUG_VALUE: UART_ClearIntFlag:uart <- $r0
	.loc	5 52 23                         @ ../../../../Library/StdDriver/src/uart.c:52:23
	ldr	r2, [r0, #24]
	orr	r2, r2, #112
	str	r2, [r0, #24]
	.loc	5 53 23                         @ ../../../../Library/StdDriver/src/uart.c:53:23
	ldr	r2, [r0, #24]
	orr	r2, r2, #8
	str	r2, [r0, #24]
.Ltmp3:
.LBB0_2:
	@DEBUG_VALUE: UART_ClearIntFlag:u32InterruptFlag <- $r1
	@DEBUG_VALUE: UART_ClearIntFlag:uart <- $r0
	.loc	5 56 9                          @ ../../../../Library/StdDriver/src/uart.c:56:9
	lsls	r2, r1, #20
.Ltmp4:
	.loc	5 58 24                         @ ../../../../Library/StdDriver/src/uart.c:58:24
	ittt	mi
	ldrmi	r2, [r0, #20]
	orrmi	r2, r2, #1
	strmi	r2, [r0, #20]
.Ltmp5:
	.loc	5 61 9                          @ ../../../../Library/StdDriver/src/uart.c:61:9
	lsls	r2, r1, #18
	ittt	mi
	movmi	r2, #1
	movtmi	r2, #256
.Ltmp6:
	.loc	5 63 23                         @ ../../../../Library/StdDriver/src/uart.c:63:23
	strmi	r2, [r0, #24]
.Ltmp7:
	.loc	5 66 9                          @ ../../../../Library/StdDriver/src/uart.c:66:9
	lsls	r2, r1, #17
	itt	mi
	movmi	r2, #31
.Ltmp8:
	.loc	5 68 21                         @ ../../../../Library/StdDriver/src/uart.c:68:21
	strmi	r2, [r0, #68]
.Ltmp9:
	.loc	5 73 9                          @ ../../../../Library/StdDriver/src/uart.c:73:9
	lsls	r1, r1, #16
.Ltmp10:
	@DEBUG_VALUE: UART_ClearIntFlag:u32InterruptFlag <- [DW_OP_LLVM_entry_value 1] $r1
	.loc	5 0 9 is_stmt 0                 @ ../../../../Library/StdDriver/src/uart.c:0:9
	itttt	mi
	movmi	r1, #128
.Ltmp11:
	.loc	5 75 22 is_stmt 1               @ ../../../../Library/StdDriver/src/uart.c:75:22
	strmi	r1, [r0, #28]
	movwmi	r1, #783
	.loc	5 76 22                         @ ../../../../Library/StdDriver/src/uart.c:76:22
	strmi	r1, [r0, #56]
.Ltmp12:
	.loc	5 80 1                          @ ../../../../Library/StdDriver/src/uart.c:80:1
	bx	lr
.Ltmp13:
.Lfunc_end0:
	.size	UART_ClearIntFlag, .Lfunc_end0-UART_ClearIntFlag
	.cfi_endproc
	.cantunwind
	.fnend
                                        @ -- End function
	.section	.text.UART_Close,"ax",%progbits
	.hidden	UART_Close                      @ -- Begin function UART_Close
	.globl	UART_Close
	.p2align	2
	.type	UART_Close,%function
	.code	16                              @ @UART_Close
	.thumb_func
UART_Close:
.Lfunc_begin1:
	.loc	5 93 0                          @ ../../../../Library/StdDriver/src/uart.c:93:0
	.fnstart
	.cfi_startproc
@ %bb.0:
	@DEBUG_VALUE: UART_Close:uart <- $r0
	movs	r1, #0
.Ltmp14:
	.loc	5 94 17 prologue_end            @ ../../../../Library/StdDriver/src/uart.c:94:17
	str	r1, [r0, #4]
	.loc	5 95 1                          @ ../../../../Library/StdDriver/src/uart.c:95:1
	bx	lr
.Ltmp15:
.Lfunc_end1:
	.size	UART_Close, .Lfunc_end1-UART_Close
	.cfi_endproc
	.cantunwind
	.fnend
                                        @ -- End function
	.section	.text.UART_DisableFlowCtrl,"ax",%progbits
	.hidden	UART_DisableFlowCtrl            @ -- Begin function UART_DisableFlowCtrl
	.globl	UART_DisableFlowCtrl
	.p2align	2
	.type	UART_DisableFlowCtrl,%function
	.code	16                              @ @UART_DisableFlowCtrl
	.thumb_func
UART_DisableFlowCtrl:
.Lfunc_begin2:
	.loc	5 108 0                         @ ../../../../Library/StdDriver/src/uart.c:108:0
	.fnstart
	.cfi_startproc
@ %bb.0:
	@DEBUG_VALUE: UART_DisableFlowCtrl:uart <- $r0
	.loc	5 109 17 prologue_end           @ ../../../../Library/StdDriver/src/uart.c:109:17
	ldr	r1, [r0, #4]
	bic	r1, r1, #12288
	str	r1, [r0, #4]
	.loc	5 110 1                         @ ../../../../Library/StdDriver/src/uart.c:110:1
	bx	lr
.Ltmp16:
.Lfunc_end2:
	.size	UART_DisableFlowCtrl, .Lfunc_end2-UART_DisableFlowCtrl
	.cfi_endproc
	.cantunwind
	.fnend
                                        @ -- End function
	.section	.text.UART_DisableInt,"ax",%progbits
	.hidden	UART_DisableInt                 @ -- Begin function UART_DisableInt
	.globl	UART_DisableInt
	.p2align	2
	.type	UART_DisableInt,%function
	.code	16                              @ @UART_DisableInt
	.thumb_func
UART_DisableInt:
.Lfunc_begin3:
	.loc	5 133 0                         @ ../../../../Library/StdDriver/src/uart.c:133:0
	.fnstart
	.cfi_startproc
@ %bb.0:
	@DEBUG_VALUE: UART_DisableInt:uart <- $r0
	@DEBUG_VALUE: UART_DisableInt:u32InterruptFlag <- $r1
	.loc	5 135 5 prologue_end            @ ../../../../Library/StdDriver/src/uart.c:135:5
	ldr	r2, [r0, #4]
	bic.w	r1, r2, r1
.Ltmp17:
	@DEBUG_VALUE: UART_DisableInt:u32InterruptFlag <- [DW_OP_LLVM_entry_value 1] $r1
	str	r1, [r0, #4]
	.loc	5 136 1                         @ ../../../../Library/StdDriver/src/uart.c:136:1
	bx	lr
.Ltmp18:
.Lfunc_end3:
	.size	UART_DisableInt, .Lfunc_end3-UART_DisableInt
	.cfi_endproc
	.cantunwind
	.fnend
                                        @ -- End function
	.section	.text.UART_EnableFlowCtrl,"ax",%progbits
	.hidden	UART_EnableFlowCtrl             @ -- Begin function UART_EnableFlowCtrl
	.globl	UART_EnableFlowCtrl
	.p2align	2
	.type	UART_EnableFlowCtrl,%function
	.code	16                              @ @UART_EnableFlowCtrl
	.thumb_func
UART_EnableFlowCtrl:
.Lfunc_begin4:
	.loc	5 149 0                         @ ../../../../Library/StdDriver/src/uart.c:149:0
	.fnstart
	.cfi_startproc
@ %bb.0:
	@DEBUG_VALUE: UART_EnableFlowCtrl:uart <- $r0
	.loc	5 151 17 prologue_end           @ ../../../../Library/StdDriver/src/uart.c:151:17
	ldr	r1, [r0, #16]
	orr	r1, r1, #512
	str	r1, [r0, #16]
	.loc	5 154 20                        @ ../../../../Library/StdDriver/src/uart.c:154:20
	ldr	r1, [r0, #20]
	orr	r1, r1, #256
	str	r1, [r0, #20]
	.loc	5 157 17                        @ ../../../../Library/StdDriver/src/uart.c:157:17
	ldr	r1, [r0, #4]
	orr	r1, r1, #12288
	str	r1, [r0, #4]
	.loc	5 158 1                         @ ../../../../Library/StdDriver/src/uart.c:158:1
	bx	lr
.Ltmp19:
.Lfunc_end4:
	.size	UART_EnableFlowCtrl, .Lfunc_end4-UART_EnableFlowCtrl
	.cfi_endproc
	.cantunwind
	.fnend
                                        @ -- End function
	.section	.text.UART_EnableInt,"ax",%progbits
	.hidden	UART_EnableInt                  @ -- Begin function UART_EnableInt
	.globl	UART_EnableInt
	.p2align	2
	.type	UART_EnableInt,%function
	.code	16                              @ @UART_EnableInt
	.thumb_func
UART_EnableInt:
.Lfunc_begin5:
	.loc	5 181 0                         @ ../../../../Library/StdDriver/src/uart.c:181:0
	.fnstart
	.cfi_startproc
@ %bb.0:
	@DEBUG_VALUE: UART_EnableInt:uart <- $r0
	@DEBUG_VALUE: UART_EnableInt:u32InterruptFlag <- $r1
	.loc	5 183 5 prologue_end            @ ../../../../Library/StdDriver/src/uart.c:183:5
	ldr	r2, [r0, #4]
	orrs	r1, r2
.Ltmp20:
	@DEBUG_VALUE: UART_EnableInt:u32InterruptFlag <- [DW_OP_LLVM_entry_value 1] $r1
	str	r1, [r0, #4]
	.loc	5 184 1                         @ ../../../../Library/StdDriver/src/uart.c:184:1
	bx	lr
.Ltmp21:
.Lfunc_end5:
	.size	UART_EnableInt, .Lfunc_end5-UART_EnableInt
	.cfi_endproc
	.cantunwind
	.fnend
                                        @ -- End function
	.section	.text.UART_Open,"ax",%progbits
	.hidden	UART_Open                       @ -- Begin function UART_Open
	.globl	UART_Open
	.p2align	2
	.type	UART_Open,%function
	.code	16                              @ @UART_Open
	.thumb_func
UART_Open:
.Lfunc_begin6:
	.loc	5 198 0                         @ ../../../../Library/StdDriver/src/uart.c:198:0
	.fnstart
	.cfi_startproc
@ %bb.0:
	@DEBUG_VALUE: UART_Open:uart <- $r0
	@DEBUG_VALUE: UART_Open:u32baudrate <- $r1
	.save	{r4, r5, r6, lr}
	push	{r4, r5, r6, lr}
	.cfi_def_cfa_offset 16
	.cfi_offset lr, -4
	.cfi_offset r6, -8
	.cfi_offset r5, -12
	.cfi_offset r4, -16
	.pad	#24
	sub	sp, #24
	.cfi_def_cfa_offset 40
	mov	r4, r0
.Ltmp22:
	@DEBUG_VALUE: UART_Open:uart <- $r4
	@DEBUG_VALUE: UART_Open:uart <- $r4
	.loc	5 200 14 prologue_end           @ ../../../../Library/StdDriver/src/uart.c:200:14
	movw	r0, :lower16:.L__const.UART_SelectIrDAMode.u32ClkTbl
	movt	r0, :upper16:.L__const.UART_SelectIrDAMode.u32ClkTbl
	mov	r5, r1
.Ltmp23:
	@DEBUG_VALUE: UART_Open:u32baudrate <- $r5
	@DEBUG_VALUE: UART_Open:u32baudrate <- $r5
	ldm.w	r0, {r1, r2, r3, r6}
	add.w	r12, sp, #4
	ldr	r0, [r0, #16]
	stm.w	r12, {r1, r2, r3, r6}
	movw	r1, #53247
	movt	r1, #16424
	movw	r2, #65295
	.loc	5 204 9                         @ ../../../../Library/StdDriver/src/uart.c:204:9
	cmp	r4, r1
	movt	r2, #65520
.Ltmp24:
	@DEBUG_VALUE: UART_Open:u32UartClkDivNum <- 0
	@DEBUG_VALUE: UART_Open:u32UartClkSrcSel <- 0
	.loc	5 200 14                        @ ../../../../Library/StdDriver/src/uart.c:200:14
	str	r0, [sp, #20]
	.loc	5 204 9                         @ ../../../../Library/StdDriver/src/uart.c:204:9
	bgt	.LBB6_6
.Ltmp25:
@ %bb.1:
	@DEBUG_VALUE: UART_Open:u32UartClkSrcSel <- 0
	@DEBUG_VALUE: UART_Open:u32UartClkDivNum <- 0
	@DEBUG_VALUE: UART_Open:u32baudrate <- $r5
	@DEBUG_VALUE: UART_Open:uart <- $r4
	.loc	5 0 9 is_stmt 0                 @ ../../../../Library/StdDriver/src/uart.c:0:9
	movw	r0, #61439
	movt	r0, #16420
	.loc	5 204 9                         @ ../../../../Library/StdDriver/src/uart.c:204:9
	cmp	r4, r0
	ble	.LBB6_11
.Ltmp26:
@ %bb.2:
	@DEBUG_VALUE: UART_Open:u32UartClkSrcSel <- 0
	@DEBUG_VALUE: UART_Open:u32UartClkDivNum <- 0
	@DEBUG_VALUE: UART_Open:u32baudrate <- $r5
	@DEBUG_VALUE: UART_Open:uart <- $r4
	.loc	5 0 9                           @ ../../../../Library/StdDriver/src/uart.c:0:9
	movw	r0, #61440
	movt	r0, #16420
	.loc	5 204 9                         @ ../../../../Library/StdDriver/src/uart.c:204:9
	cmp	r4, r0
	beq	.LBB6_17
.Ltmp27:
@ %bb.3:
	@DEBUG_VALUE: UART_Open:u32UartClkSrcSel <- 0
	@DEBUG_VALUE: UART_Open:u32UartClkDivNum <- 0
	@DEBUG_VALUE: UART_Open:u32baudrate <- $r5
	@DEBUG_VALUE: UART_Open:uart <- $r4
	.loc	5 0 9                           @ ../../../../Library/StdDriver/src/uart.c:0:9
	movs	r0, #0
	movt	r0, #16421
	.loc	5 204 9                         @ ../../../../Library/StdDriver/src/uart.c:204:9
	cmp	r4, r0
	beq	.LBB6_18
.Ltmp28:
@ %bb.4:
	@DEBUG_VALUE: UART_Open:u32UartClkSrcSel <- 0
	@DEBUG_VALUE: UART_Open:u32UartClkDivNum <- 0
	@DEBUG_VALUE: UART_Open:u32baudrate <- $r5
	@DEBUG_VALUE: UART_Open:uart <- $r4
	.loc	5 0 9                           @ ../../../../Library/StdDriver/src/uart.c:0:9
	movw	r0, #4096
	movt	r0, #16421
	.loc	5 204 9                         @ ../../../../Library/StdDriver/src/uart.c:204:9
	cmp	r4, r0
	bne.w	.LBB6_32
.Ltmp29:
@ %bb.5:
	@DEBUG_VALUE: UART_Open:u32UartClkSrcSel <- 0
	@DEBUG_VALUE: UART_Open:u32UartClkDivNum <- 0
	@DEBUG_VALUE: UART_Open:u32baudrate <- $r5
	@DEBUG_VALUE: UART_Open:uart <- $r4
	.loc	5 0 9                           @ ../../../../Library/StdDriver/src/uart.c:0:9
	movw	r0, #5216
	movt	r0, #16384
.Ltmp30:
	.loc	5 265 34 is_stmt 1              @ ../../../../Library/StdDriver/src/uart.c:265:34
	ldr	r1, [r0, #4]
.Ltmp31:
	@DEBUG_VALUE: UART_Open:u32UartClkSrcSel <- [DW_OP_constu 7, DW_OP_and, DW_OP_stack_value] $r1
	.loc	5 267 34                        @ ../../../../Library/StdDriver/src/uart.c:267:34
	ldr.w	r0, [r0, #224]
	.loc	5 267 43 is_stmt 0              @ ../../../../Library/StdDriver/src/uart.c:267:43
	and	r6, r0, #15
.Ltmp32:
	@DEBUG_VALUE: UART_Open:u32UartClkDivNum <- $r6
	.loc	5 0 43                          @ ../../../../Library/StdDriver/src/uart.c:0:43
	b	.LBB6_24
.Ltmp33:
.LBB6_6:
	@DEBUG_VALUE: UART_Open:u32UartClkSrcSel <- 0
	@DEBUG_VALUE: UART_Open:u32UartClkDivNum <- 0
	@DEBUG_VALUE: UART_Open:u32baudrate <- $r5
	@DEBUG_VALUE: UART_Open:uart <- $r4
	movw	r0, #61439
	movt	r0, #16424
	.loc	5 204 9 is_stmt 1               @ ../../../../Library/StdDriver/src/uart.c:204:9
	cmp	r4, r0
	ble	.LBB6_14
.Ltmp34:
@ %bb.7:
	@DEBUG_VALUE: UART_Open:u32UartClkSrcSel <- 0
	@DEBUG_VALUE: UART_Open:u32UartClkDivNum <- 0
	@DEBUG_VALUE: UART_Open:u32baudrate <- $r5
	@DEBUG_VALUE: UART_Open:uart <- $r4
	.loc	5 0 9 is_stmt 0                 @ ../../../../Library/StdDriver/src/uart.c:0:9
	movw	r0, #61440
	movt	r0, #16424
	.loc	5 204 9                         @ ../../../../Library/StdDriver/src/uart.c:204:9
	cmp	r4, r0
	beq	.LBB6_19
.Ltmp35:
@ %bb.8:
	@DEBUG_VALUE: UART_Open:u32UartClkSrcSel <- 0
	@DEBUG_VALUE: UART_Open:u32UartClkDivNum <- 0
	@DEBUG_VALUE: UART_Open:u32baudrate <- $r5
	@DEBUG_VALUE: UART_Open:uart <- $r4
	.loc	5 0 9                           @ ../../../../Library/StdDriver/src/uart.c:0:9
	movs	r0, #0
	movt	r0, #16425
	.loc	5 204 9                         @ ../../../../Library/StdDriver/src/uart.c:204:9
	cmp	r4, r0
	beq	.LBB6_20
.Ltmp36:
@ %bb.9:
	@DEBUG_VALUE: UART_Open:u32UartClkSrcSel <- 0
	@DEBUG_VALUE: UART_Open:u32UartClkDivNum <- 0
	@DEBUG_VALUE: UART_Open:u32baudrate <- $r5
	@DEBUG_VALUE: UART_Open:uart <- $r4
	.loc	5 0 9                           @ ../../../../Library/StdDriver/src/uart.c:0:9
	movw	r0, #4096
	movt	r0, #16425
	.loc	5 204 9                         @ ../../../../Library/StdDriver/src/uart.c:204:9
	cmp	r4, r0
	bne.w	.LBB6_32
.Ltmp37:
@ %bb.10:
	@DEBUG_VALUE: UART_Open:u32UartClkSrcSel <- 0
	@DEBUG_VALUE: UART_Open:u32UartClkDivNum <- 0
	@DEBUG_VALUE: UART_Open:u32baudrate <- $r5
	@DEBUG_VALUE: UART_Open:uart <- $r4
	.loc	5 0 9                           @ ../../../../Library/StdDriver/src/uart.c:0:9
	movw	r0, #5216
	movt	r0, #16384
.Ltmp38:
	.loc	5 272 34 is_stmt 1              @ ../../../../Library/StdDriver/src/uart.c:272:34
	ldr	r1, [r0, #4]
	.loc	5 274 34                        @ ../../../../Library/StdDriver/src/uart.c:274:34
	ldr.w	r0, [r0, #224]
	b	.LBB6_23
.Ltmp39:
.LBB6_11:
	@DEBUG_VALUE: UART_Open:u32UartClkSrcSel <- 0
	@DEBUG_VALUE: UART_Open:u32UartClkDivNum <- 0
	@DEBUG_VALUE: UART_Open:u32baudrate <- $r5
	@DEBUG_VALUE: UART_Open:uart <- $r4
	.loc	5 0 34 is_stmt 0                @ ../../../../Library/StdDriver/src/uart.c:0:34
	movw	r0, #53248
	movt	r0, #16420
	.loc	5 204 9 is_stmt 1               @ ../../../../Library/StdDriver/src/uart.c:204:9
	cmp	r4, r0
	beq	.LBB6_21
.Ltmp40:
@ %bb.12:
	@DEBUG_VALUE: UART_Open:u32UartClkSrcSel <- 0
	@DEBUG_VALUE: UART_Open:u32UartClkDivNum <- 0
	@DEBUG_VALUE: UART_Open:u32baudrate <- $r5
	@DEBUG_VALUE: UART_Open:uart <- $r4
	.loc	5 0 9 is_stmt 0                 @ ../../../../Library/StdDriver/src/uart.c:0:9
	movw	r0, #57344
	movt	r0, #16420
	.loc	5 204 9                         @ ../../../../Library/StdDriver/src/uart.c:204:9
	cmp	r4, r0
	bne.w	.LBB6_32
.Ltmp41:
@ %bb.13:
	@DEBUG_VALUE: UART_Open:u32UartClkSrcSel <- 0
	@DEBUG_VALUE: UART_Open:u32UartClkDivNum <- 0
	@DEBUG_VALUE: UART_Open:u32baudrate <- $r5
	@DEBUG_VALUE: UART_Open:uart <- $r4
	.loc	5 0 9                           @ ../../../../Library/StdDriver/src/uart.c:0:9
	movw	r0, #5216
	movt	r0, #16384
.Ltmp42:
	.loc	5 222 34 is_stmt 1              @ ../../../../Library/StdDriver/src/uart.c:222:34
	ldr	r1, [r0]
	.loc	5 224 34                        @ ../../../../Library/StdDriver/src/uart.c:224:34
	ldr.w	r0, [r0, #220]
	.loc	5 222 72                        @ ../../../../Library/StdDriver/src/uart.c:222:72
	lsrs	r1, r1, #8
.Ltmp43:
	@DEBUG_VALUE: UART_Open:u32UartClkSrcSel <- [DW_OP_constu 7, DW_OP_and, DW_OP_stack_value] $r1
	.loc	5 224 72                        @ ../../../../Library/StdDriver/src/uart.c:224:72
	ubfx	r6, r0, #8, #4
.Ltmp44:
	@DEBUG_VALUE: UART_Open:u32UartClkDivNum <- $r6
	.loc	5 0 72 is_stmt 0                @ ../../../../Library/StdDriver/src/uart.c:0:72
	b	.LBB6_24
.Ltmp45:
.LBB6_14:
	@DEBUG_VALUE: UART_Open:u32UartClkSrcSel <- 0
	@DEBUG_VALUE: UART_Open:u32UartClkDivNum <- 0
	@DEBUG_VALUE: UART_Open:u32baudrate <- $r5
	@DEBUG_VALUE: UART_Open:uart <- $r4
	movw	r0, #53248
	movt	r0, #16424
	.loc	5 204 9 is_stmt 1               @ ../../../../Library/StdDriver/src/uart.c:204:9
	cmp	r4, r0
	beq	.LBB6_22
.Ltmp46:
@ %bb.15:
	@DEBUG_VALUE: UART_Open:u32UartClkSrcSel <- 0
	@DEBUG_VALUE: UART_Open:u32UartClkDivNum <- 0
	@DEBUG_VALUE: UART_Open:u32baudrate <- $r5
	@DEBUG_VALUE: UART_Open:uart <- $r4
	.loc	5 0 9 is_stmt 0                 @ ../../../../Library/StdDriver/src/uart.c:0:9
	movw	r0, #57344
	movt	r0, #16424
	.loc	5 204 9                         @ ../../../../Library/StdDriver/src/uart.c:204:9
	cmp	r4, r0
	bne	.LBB6_32
.Ltmp47:
@ %bb.16:
	@DEBUG_VALUE: UART_Open:u32UartClkSrcSel <- 0
	@DEBUG_VALUE: UART_Open:u32UartClkDivNum <- 0
	@DEBUG_VALUE: UART_Open:u32baudrate <- $r5
	@DEBUG_VALUE: UART_Open:uart <- $r4
	.loc	5 0 9                           @ ../../../../Library/StdDriver/src/uart.c:0:9
	movw	r0, #5216
	movt	r0, #16384
.Ltmp48:
	.loc	5 229 34 is_stmt 1              @ ../../../../Library/StdDriver/src/uart.c:229:34
	ldr	r1, [r0]
	.loc	5 231 34                        @ ../../../../Library/StdDriver/src/uart.c:231:34
	ldr.w	r0, [r0, #220]
	.loc	5 229 72                        @ ../../../../Library/StdDriver/src/uart.c:229:72
	lsrs	r1, r1, #12
.Ltmp49:
	@DEBUG_VALUE: UART_Open:u32UartClkSrcSel <- [DW_OP_constu 7, DW_OP_and, DW_OP_stack_value] $r1
	.loc	5 231 72                        @ ../../../../Library/StdDriver/src/uart.c:231:72
	ubfx	r6, r0, #12, #4
.Ltmp50:
	@DEBUG_VALUE: UART_Open:u32UartClkDivNum <- $r6
	.loc	5 0 72 is_stmt 0                @ ../../../../Library/StdDriver/src/uart.c:0:72
	b	.LBB6_24
.Ltmp51:
.LBB6_17:
	@DEBUG_VALUE: UART_Open:u32UartClkSrcSel <- 0
	@DEBUG_VALUE: UART_Open:u32UartClkDivNum <- 0
	@DEBUG_VALUE: UART_Open:u32baudrate <- $r5
	@DEBUG_VALUE: UART_Open:uart <- $r4
	movw	r0, #5216
	movt	r0, #16384
.Ltmp52:
	.loc	5 236 34 is_stmt 1              @ ../../../../Library/StdDriver/src/uart.c:236:34
	ldr	r1, [r0]
	.loc	5 238 34                        @ ../../../../Library/StdDriver/src/uart.c:238:34
	ldr.w	r0, [r0, #220]
	.loc	5 236 72                        @ ../../../../Library/StdDriver/src/uart.c:236:72
	lsrs	r1, r1, #16
.Ltmp53:
	@DEBUG_VALUE: UART_Open:u32UartClkSrcSel <- [DW_OP_constu 7, DW_OP_and, DW_OP_stack_value] $r1
	.loc	5 238 72                        @ ../../../../Library/StdDriver/src/uart.c:238:72
	ubfx	r6, r0, #16, #4
.Ltmp54:
	@DEBUG_VALUE: UART_Open:u32UartClkDivNum <- $r6
	.loc	5 0 72 is_stmt 0                @ ../../../../Library/StdDriver/src/uart.c:0:72
	b	.LBB6_24
.Ltmp55:
.LBB6_18:
	@DEBUG_VALUE: UART_Open:u32UartClkSrcSel <- 0
	@DEBUG_VALUE: UART_Open:u32UartClkDivNum <- 0
	@DEBUG_VALUE: UART_Open:u32baudrate <- $r5
	@DEBUG_VALUE: UART_Open:uart <- $r4
	movw	r0, #5216
	movt	r0, #16384
.Ltmp56:
	.loc	5 251 34 is_stmt 1              @ ../../../../Library/StdDriver/src/uart.c:251:34
	ldr	r1, [r0]
	.loc	5 253 34                        @ ../../../../Library/StdDriver/src/uart.c:253:34
	ldr.w	r0, [r0, #220]
	.loc	5 251 72                        @ ../../../../Library/StdDriver/src/uart.c:251:72
	lsrs	r1, r1, #24
.Ltmp57:
	@DEBUG_VALUE: UART_Open:u32UartClkSrcSel <- [DW_OP_constu 7, DW_OP_and, DW_OP_stack_value] $r1
	.loc	5 253 72                        @ ../../../../Library/StdDriver/src/uart.c:253:72
	ubfx	r6, r0, #24, #4
.Ltmp58:
	@DEBUG_VALUE: UART_Open:u32UartClkDivNum <- $r6
	.loc	5 0 72 is_stmt 0                @ ../../../../Library/StdDriver/src/uart.c:0:72
	b	.LBB6_24
.Ltmp59:
.LBB6_19:
	@DEBUG_VALUE: UART_Open:u32UartClkSrcSel <- 0
	@DEBUG_VALUE: UART_Open:u32UartClkDivNum <- 0
	@DEBUG_VALUE: UART_Open:u32baudrate <- $r5
	@DEBUG_VALUE: UART_Open:uart <- $r4
	movw	r0, #5216
	movt	r0, #16384
.Ltmp60:
	.loc	5 244 34 is_stmt 1              @ ../../../../Library/StdDriver/src/uart.c:244:34
	ldr	r1, [r0]
	.loc	5 246 34                        @ ../../../../Library/StdDriver/src/uart.c:246:34
	ldr.w	r0, [r0, #220]
	.loc	5 244 72                        @ ../../../../Library/StdDriver/src/uart.c:244:72
	lsrs	r1, r1, #20
.Ltmp61:
	@DEBUG_VALUE: UART_Open:u32UartClkSrcSel <- [DW_OP_constu 7, DW_OP_and, DW_OP_stack_value] $r1
	.loc	5 246 72                        @ ../../../../Library/StdDriver/src/uart.c:246:72
	ubfx	r6, r0, #20, #4
.Ltmp62:
	@DEBUG_VALUE: UART_Open:u32UartClkDivNum <- $r6
	.loc	5 0 72 is_stmt 0                @ ../../../../Library/StdDriver/src/uart.c:0:72
	b	.LBB6_24
.Ltmp63:
.LBB6_20:
	@DEBUG_VALUE: UART_Open:u32UartClkSrcSel <- 0
	@DEBUG_VALUE: UART_Open:u32UartClkDivNum <- 0
	@DEBUG_VALUE: UART_Open:u32baudrate <- $r5
	@DEBUG_VALUE: UART_Open:uart <- $r4
	movw	r0, #5216
	movt	r0, #16384
.Ltmp64:
	.loc	5 258 34 is_stmt 1              @ ../../../../Library/StdDriver/src/uart.c:258:34
	ldr	r1, [r0]
	.loc	5 260 34                        @ ../../../../Library/StdDriver/src/uart.c:260:34
	ldr.w	r0, [r0, #220]
	.loc	5 258 72                        @ ../../../../Library/StdDriver/src/uart.c:258:72
	lsrs	r1, r1, #28
.Ltmp65:
	@DEBUG_VALUE: UART_Open:u32UartClkSrcSel <- [DW_OP_constu 7, DW_OP_and, DW_OP_stack_value] $r1
	.loc	5 260 72                        @ ../../../../Library/StdDriver/src/uart.c:260:72
	lsrs	r6, r0, #28
.Ltmp66:
	@DEBUG_VALUE: UART_Open:u32UartClkDivNum <- $r6
	.loc	5 0 72 is_stmt 0                @ ../../../../Library/StdDriver/src/uart.c:0:72
	b	.LBB6_24
.Ltmp67:
.LBB6_21:
	@DEBUG_VALUE: UART_Open:u32UartClkSrcSel <- 0
	@DEBUG_VALUE: UART_Open:u32UartClkDivNum <- 0
	@DEBUG_VALUE: UART_Open:u32baudrate <- $r5
	@DEBUG_VALUE: UART_Open:uart <- $r4
	movw	r0, #5216
	movt	r0, #16384
.Ltmp68:
	.loc	5 207 34 is_stmt 1              @ ../../../../Library/StdDriver/src/uart.c:207:34
	ldr	r1, [r0]
.Ltmp69:
	@DEBUG_VALUE: UART_Open:u32UartClkSrcSel <- [DW_OP_constu 7, DW_OP_and, DW_OP_stack_value] $r1
	.loc	5 209 34                        @ ../../../../Library/StdDriver/src/uart.c:209:34
	ldr.w	r0, [r0, #220]
	.loc	5 209 43 is_stmt 0              @ ../../../../Library/StdDriver/src/uart.c:209:43
	and	r6, r0, #15
.Ltmp70:
	@DEBUG_VALUE: UART_Open:u32UartClkDivNum <- $r6
	.loc	5 0 43                          @ ../../../../Library/StdDriver/src/uart.c:0:43
	b	.LBB6_24
.Ltmp71:
.LBB6_22:
	@DEBUG_VALUE: UART_Open:u32UartClkSrcSel <- 0
	@DEBUG_VALUE: UART_Open:u32UartClkDivNum <- 0
	@DEBUG_VALUE: UART_Open:u32baudrate <- $r5
	@DEBUG_VALUE: UART_Open:uart <- $r4
	movw	r0, #5216
	movt	r0, #16384
.Ltmp72:
	.loc	5 215 34 is_stmt 1              @ ../../../../Library/StdDriver/src/uart.c:215:34
	ldr	r1, [r0]
	.loc	5 217 34                        @ ../../../../Library/StdDriver/src/uart.c:217:34
	ldr.w	r0, [r0, #220]
.Ltmp73:
.LBB6_23:
	@DEBUG_VALUE: UART_Open:u32UartClkSrcSel <- 0
	@DEBUG_VALUE: UART_Open:u32UartClkDivNum <- 0
	@DEBUG_VALUE: UART_Open:u32baudrate <- $r5
	@DEBUG_VALUE: UART_Open:uart <- $r4
	.loc	5 0 0 is_stmt 0                 @ ../../../../Library/StdDriver/src/uart.c:0:0
	ubfx	r6, r0, #4, #4
.Ltmp74:
	@DEBUG_VALUE: UART_Open:u32UartClkDivNum <- $r6
	lsrs	r1, r1, #4
.Ltmp75:
	@DEBUG_VALUE: UART_Open:u32UartClkSrcSel <- [DW_OP_constu 7, DW_OP_and, DW_OP_stack_value] $r1
.LBB6_24:
	@DEBUG_VALUE: UART_Open:u32UartClkDivNum <- $r6
	@DEBUG_VALUE: UART_Open:u32UartClkSrcSel <- [DW_OP_constu 7, DW_OP_and, DW_OP_stack_value] $r1
	@DEBUG_VALUE: UART_Open:u32baudrate <- $r5
	@DEBUG_VALUE: UART_Open:uart <- $r4
	@DEBUG_VALUE: UART_Open:u32UartClkDivNum <- $r6
	movs	r0, #0
	and	r1, r1, #7
.Ltmp76:
	@DEBUG_VALUE: UART_Open:u32UartClkSrcSel <- $r1
	.loc	5 278 19 is_stmt 1              @ ../../../../Library/StdDriver/src/uart.c:278:19
	str	r0, [r4, #48]
	movs	r0, #3
	.loc	5 281 16                        @ ../../../../Library/StdDriver/src/uart.c:281:16
	str	r0, [r4, #12]
	.loc	5 284 16                        @ ../../../../Library/StdDriver/src/uart.c:284:16
	ldr	r0, [r4, #8]
	.loc	5 287 9                         @ ../../../../Library/StdDriver/src/uart.c:287:9
	cmp	r1, #3
	.loc	5 284 16                        @ ../../../../Library/StdDriver/src/uart.c:284:16
	and.w	r0, r0, r2
	str	r0, [r4, #8]
	.loc	5 287 9                         @ ../../../../Library/StdDriver/src/uart.c:287:9
	bne	.LBB6_26
.Ltmp77:
@ %bb.25:
	@DEBUG_VALUE: UART_Open:u32UartClkSrcSel <- $r1
	@DEBUG_VALUE: UART_Open:u32UartClkDivNum <- $r6
	@DEBUG_VALUE: UART_Open:u32baudrate <- $r5
	@DEBUG_VALUE: UART_Open:uart <- $r4
	.loc	5 289 39                        @ ../../../../Library/StdDriver/src/uart.c:289:39
	bl	CLK_GetAPLL0ClockFreq
.Ltmp78:
	.loc	5 289 63 is_stmt 0              @ ../../../../Library/StdDriver/src/uart.c:289:63
	lsrs	r0, r0, #1
	movs	r1, #3
	.loc	5 289 37                        @ ../../../../Library/StdDriver/src/uart.c:289:37
	str	r0, [sp, #16]
.Ltmp79:
.LBB6_26:
	@DEBUG_VALUE: UART_Open:u32UartClkDivNum <- $r6
	@DEBUG_VALUE: UART_Open:u32baudrate <- $r5
	@DEBUG_VALUE: UART_Open:uart <- $r4
	.loc	5 293 9 is_stmt 1               @ ../../../../Library/StdDriver/src/uart.c:293:9
	cbz	r5, .LBB6_31
.Ltmp80:
.LBB6_27:
	@DEBUG_VALUE: UART_Open:u32baudrate <- $r5
	@DEBUG_VALUE: UART_Open:uart <- $r4
	.loc	5 0 9 is_stmt 0                 @ ../../../../Library/StdDriver/src/uart.c:0:9
	add	r0, sp, #4
.Ltmp81:
	.loc	5 297 23 is_stmt 1              @ ../../../../Library/StdDriver/src/uart.c:297:23
	ldr.w	r0, [r0, r1, lsl #2]
	adds	r1, r6, #1
	udiv	r0, r0, r1
	add.w	r1, r0, r5, lsr #1
	udiv	r1, r1, r5
	subs	r1, #2
.Ltmp82:
	@DEBUG_VALUE: u32Baud_Div <- $r1
	.loc	5 299 13                        @ ../../../../Library/StdDriver/src/uart.c:299:13
	cmp.w	r1, #65536
	blo	.LBB6_29
.Ltmp83:
@ %bb.28:
	@DEBUG_VALUE: u32Baud_Div <- $r1
	@DEBUG_VALUE: UART_Open:u32baudrate <- $r5
	@DEBUG_VALUE: UART_Open:uart <- $r4
	.loc	5 301 45                        @ ../../../../Library/StdDriver/src/uart.c:301:45
	add.w	r0, r0, r5, lsl #3
	mvn	r1, #1
.Ltmp84:
	udiv	r0, r0, r5
	add.w	r0, r1, r0, lsr #4
	b	.LBB6_30
.Ltmp85:
.LBB6_29:
	@DEBUG_VALUE: u32Baud_Div <- $r1
	@DEBUG_VALUE: UART_Open:u32baudrate <- $r5
	@DEBUG_VALUE: UART_Open:uart <- $r4
	.loc	5 305 43                        @ ../../../../Library/StdDriver/src/uart.c:305:43
	orr	r0, r1, #805306368
.Ltmp86:
.LBB6_30:
	@DEBUG_VALUE: UART_Open:u32baudrate <- $r5
	@DEBUG_VALUE: UART_Open:uart <- $r4
	.loc	5 0 0 is_stmt 0                 @ ../../../../Library/StdDriver/src/uart.c:0:0
	str	r0, [r4, #36]
.Ltmp87:
.LBB6_31:
	@DEBUG_VALUE: UART_Open:u32baudrate <- $r5
	@DEBUG_VALUE: UART_Open:uart <- $r4
	.loc	5 308 1 is_stmt 1               @ ../../../../Library/StdDriver/src/uart.c:308:1
	add	sp, #24
	pop	{r4, r5, r6, pc}
.Ltmp88:
.LBB6_32:
	@DEBUG_VALUE: UART_Open:u32UartClkSrcSel <- 0
	@DEBUG_VALUE: UART_Open:u32UartClkDivNum <- 0
	@DEBUG_VALUE: UART_Open:u32baudrate <- $r5
	@DEBUG_VALUE: UART_Open:uart <- $r4
	.loc	5 0 1 is_stmt 0                 @ ../../../../Library/StdDriver/src/uart.c:0:1
	movs	r1, #0
	movs	r0, #3
	.loc	5 278 19 is_stmt 1              @ ../../../../Library/StdDriver/src/uart.c:278:19
	str	r1, [r4, #48]
	movs	r6, #0
	.loc	5 281 16                        @ ../../../../Library/StdDriver/src/uart.c:281:16
	str	r0, [r4, #12]
	.loc	5 284 16                        @ ../../../../Library/StdDriver/src/uart.c:284:16
	ldr	r0, [r4, #8]
	ands	r0, r2
	str	r0, [r4, #8]
	.loc	5 293 9                         @ ../../../../Library/StdDriver/src/uart.c:293:9
	cmp	r5, #0
	bne	.LBB6_27
	b	.LBB6_31
.Ltmp89:
.Lfunc_end6:
	.size	UART_Open, .Lfunc_end6-UART_Open
	.cfi_endproc
	.cantunwind
	.fnend
                                        @ -- End function
	.section	.text.UART_Read,"ax",%progbits
	.hidden	UART_Read                       @ -- Begin function UART_Read
	.globl	UART_Read
	.p2align	2
	.type	UART_Read,%function
	.code	16                              @ @UART_Read
	.thumb_func
UART_Read:
.Lfunc_begin7:
	.loc	5 323 0                         @ ../../../../Library/StdDriver/src/uart.c:323:0
	.fnstart
	.cfi_startproc
@ %bb.0:
	@DEBUG_VALUE: UART_Read:uart <- $r0
	@DEBUG_VALUE: UART_Read:pu8RxBuf <- $r1
	@DEBUG_VALUE: UART_Read:u32ReadBytes <- $r2
	.save	{r7, lr}
	push	{r7, lr}
	.cfi_def_cfa_offset 8
	.cfi_offset lr, -4
	.cfi_offset r7, -8
.Ltmp90:
	.loc	5 327 5 prologue_end            @ ../../../../Library/StdDriver/src/uart.c:327:5
	cmp	r2, #0
.Ltmp91:
	@DEBUG_VALUE: UART_Read:u32Count <- 0
	@DEBUG_VALUE: UART_Read:u32Exit <- 0
	@DEBUG_VALUE: UART_Read:uart <- $r0
	.loc	5 0 5 is_stmt 0                 @ ../../../../Library/StdDriver/src/uart.c:0:5
	itt	eq
	moveq	r0, #0
.Ltmp92:
	.loc	5 355 5 is_stmt 1               @ ../../../../Library/StdDriver/src/uart.c:355:5
	popeq	{r7, pc}
.Ltmp93:
.LBB7_1:
	@DEBUG_VALUE: UART_Read:u32Exit <- 0
	@DEBUG_VALUE: UART_Read:u32Count <- 0
	@DEBUG_VALUE: UART_Read:u32ReadBytes <- $r2
	@DEBUG_VALUE: UART_Read:pu8RxBuf <- $r1
	.loc	5 0 5 is_stmt 0                 @ ../../../../Library/StdDriver/src/uart.c:0:5
	mov	lr, r0
.Ltmp94:
	@DEBUG_VALUE: UART_Read:uart <- $lr
	movs	r0, #0
	b	.LBB7_3
.Ltmp95:
	.p2align	2
.LBB7_2:                                @   in Loop: Header=BB7_3 Depth=1
	@DEBUG_VALUE: UART_Read:u32Count <- $r0
	@DEBUG_VALUE: UART_Read:uart <- $lr
	@DEBUG_VALUE: UART_Read:u32Exit <- 0
	@DEBUG_VALUE: UART_Read:u32ReadBytes <- $r2
	@DEBUG_VALUE: UART_Read:pu8RxBuf <- $r1
	.loc	5 351 49 is_stmt 1              @ ../../../../Library/StdDriver/src/uart.c:351:49
	ldr.w	r3, [lr]
	.loc	5 351 32 is_stmt 0              @ ../../../../Library/StdDriver/src/uart.c:351:32
	strb	r3, [r1, r0]
.Ltmp96:
	.loc	5 327 59 is_stmt 1              @ ../../../../Library/StdDriver/src/uart.c:327:59
	adds	r0, #1
.Ltmp97:
	@DEBUG_VALUE: UART_Read:u32Count <- $r0
	@DEBUG_VALUE: UART_Read:u32Exit <- 0
	.loc	5 327 5 is_stmt 0               @ ../../../../Library/StdDriver/src/uart.c:327:5
	cmp	r0, r2
	beq	.LBB7_13
.Ltmp98:
.LBB7_3:                                @ =>This Loop Header: Depth=1
                                        @     Child Loop BB7_4 Depth 2
	@DEBUG_VALUE: UART_Read:uart <- $lr
	@DEBUG_VALUE: UART_Read:u32Exit <- 0
	@DEBUG_VALUE: UART_Read:u32ReadBytes <- $r2
	@DEBUG_VALUE: UART_Read:pu8RxBuf <- $r1
	.loc	5 0 5                           @ ../../../../Library/StdDriver/src/uart.c:0:5
	mov.w	r12, #1073741824
.Ltmp99:
	@DEBUG_VALUE: UART_Read:u32Count <- $r0
.LBB7_4:                                @   Parent Loop BB7_3 Depth=1
                                        @ =>  This Inner Loop Header: Depth=2
	@DEBUG_VALUE: UART_Read:u32Count <- $r0
	@DEBUG_VALUE: UART_Read:uart <- $lr
	@DEBUG_VALUE: UART_Read:u32Exit <- 0
	@DEBUG_VALUE: UART_Read:u32ReadBytes <- $r2
	@DEBUG_VALUE: UART_Read:pu8RxBuf <- $r1
	@DEBUG_VALUE: UART_Read:u32delayno <- [DW_OP_consts 1073741824, DW_OP_minus, DW_OP_consts 18446744073709551600, DW_OP_div, DW_OP_consts 16, DW_OP_mul, DW_OP_stack_value] $r12
	.loc	5 331 22 is_stmt 1              @ ../../../../Library/StdDriver/src/uart.c:331:22
	ldr.w	r3, [lr, #24]
	.loc	5 331 9 is_stmt 0               @ ../../../../Library/StdDriver/src/uart.c:331:9
	lsls	r3, r3, #17
.Ltmp100:
	@DEBUG_VALUE: UART_Read:u32delayno <- [DW_OP_plus_uconst 1, DW_OP_stack_value] $r12
	.loc	5 331 22                        @ ../../../../Library/StdDriver/src/uart.c:331:22
	itt	mi
	ldrmi.w	r3, [lr, #24]
	.loc	5 331 9                         @ ../../../../Library/StdDriver/src/uart.c:331:9
	lslsmi.w	r3, r3, #17
	bpl	.LBB7_2
.Ltmp101:
@ %bb.5:                                @   in Loop: Header=BB7_4 Depth=2
	@DEBUG_VALUE: UART_Read:u32delayno <- [DW_OP_plus_uconst 1, DW_OP_stack_value] $r12
	@DEBUG_VALUE: UART_Read:u32Count <- $r0
	@DEBUG_VALUE: UART_Read:uart <- $lr
	@DEBUG_VALUE: UART_Read:u32Exit <- 0
	@DEBUG_VALUE: UART_Read:u32ReadBytes <- $r2
	@DEBUG_VALUE: UART_Read:pu8RxBuf <- $r1
	@DEBUG_VALUE: UART_Read:u32delayno <- [DW_OP_plus_uconst 1, DW_OP_plus_uconst 1, DW_OP_stack_value] $r12
	.loc	5 331 22                        @ ../../../../Library/StdDriver/src/uart.c:331:22
	ldr.w	r3, [lr, #24]
	.loc	5 331 9                         @ ../../../../Library/StdDriver/src/uart.c:331:9
	lsls	r3, r3, #17
.Ltmp102:
	@DEBUG_VALUE: UART_Read:u32delayno <- [DW_OP_plus_uconst 2, DW_OP_plus_uconst 1, DW_OP_stack_value] $r12
	.loc	5 331 22                        @ ../../../../Library/StdDriver/src/uart.c:331:22
	itt	mi
	ldrmi.w	r3, [lr, #24]
	.loc	5 331 9                         @ ../../../../Library/StdDriver/src/uart.c:331:9
	lslsmi.w	r3, r3, #17
	bpl	.LBB7_2
.Ltmp103:
@ %bb.6:                                @   in Loop: Header=BB7_4 Depth=2
	@DEBUG_VALUE: UART_Read:u32delayno <- [DW_OP_plus_uconst 2, DW_OP_plus_uconst 1, DW_OP_stack_value] $r12
	@DEBUG_VALUE: UART_Read:u32Count <- $r0
	@DEBUG_VALUE: UART_Read:uart <- $lr
	@DEBUG_VALUE: UART_Read:u32Exit <- 0
	@DEBUG_VALUE: UART_Read:u32ReadBytes <- $r2
	@DEBUG_VALUE: UART_Read:pu8RxBuf <- $r1
	@DEBUG_VALUE: UART_Read:u32delayno <- [DW_OP_plus_uconst 3, DW_OP_plus_uconst 1, DW_OP_stack_value] $r12
	.loc	5 331 22                        @ ../../../../Library/StdDriver/src/uart.c:331:22
	ldr.w	r3, [lr, #24]
	.loc	5 331 9                         @ ../../../../Library/StdDriver/src/uart.c:331:9
	lsls	r3, r3, #17
.Ltmp104:
	@DEBUG_VALUE: UART_Read:u32delayno <- [DW_OP_plus_uconst 4, DW_OP_plus_uconst 1, DW_OP_stack_value] $r12
	.loc	5 331 22                        @ ../../../../Library/StdDriver/src/uart.c:331:22
	itt	mi
	ldrmi.w	r3, [lr, #24]
	.loc	5 331 9                         @ ../../../../Library/StdDriver/src/uart.c:331:9
	lslsmi.w	r3, r3, #17
	bpl	.LBB7_2
.Ltmp105:
@ %bb.7:                                @   in Loop: Header=BB7_4 Depth=2
	@DEBUG_VALUE: UART_Read:u32delayno <- [DW_OP_plus_uconst 4, DW_OP_plus_uconst 1, DW_OP_stack_value] $r12
	@DEBUG_VALUE: UART_Read:u32Count <- $r0
	@DEBUG_VALUE: UART_Read:uart <- $lr
	@DEBUG_VALUE: UART_Read:u32Exit <- 0
	@DEBUG_VALUE: UART_Read:u32ReadBytes <- $r2
	@DEBUG_VALUE: UART_Read:pu8RxBuf <- $r1
	@DEBUG_VALUE: UART_Read:u32delayno <- [DW_OP_plus_uconst 5, DW_OP_plus_uconst 1, DW_OP_stack_value] $r12
	.loc	5 331 22                        @ ../../../../Library/StdDriver/src/uart.c:331:22
	ldr.w	r3, [lr, #24]
	.loc	5 331 9                         @ ../../../../Library/StdDriver/src/uart.c:331:9
	lsls	r3, r3, #17
.Ltmp106:
	@DEBUG_VALUE: UART_Read:u32delayno <- [DW_OP_plus_uconst 6, DW_OP_plus_uconst 1, DW_OP_stack_value] $r12
	.loc	5 331 22                        @ ../../../../Library/StdDriver/src/uart.c:331:22
	itt	mi
	ldrmi.w	r3, [lr, #24]
	.loc	5 331 9                         @ ../../../../Library/StdDriver/src/uart.c:331:9
	lslsmi.w	r3, r3, #17
	bpl	.LBB7_2
.Ltmp107:
@ %bb.8:                                @   in Loop: Header=BB7_4 Depth=2
	@DEBUG_VALUE: UART_Read:u32delayno <- [DW_OP_plus_uconst 6, DW_OP_plus_uconst 1, DW_OP_stack_value] $r12
	@DEBUG_VALUE: UART_Read:u32Count <- $r0
	@DEBUG_VALUE: UART_Read:uart <- $lr
	@DEBUG_VALUE: UART_Read:u32Exit <- 0
	@DEBUG_VALUE: UART_Read:u32ReadBytes <- $r2
	@DEBUG_VALUE: UART_Read:pu8RxBuf <- $r1
	@DEBUG_VALUE: UART_Read:u32delayno <- [DW_OP_plus_uconst 7, DW_OP_plus_uconst 1, DW_OP_stack_value] $r12
	.loc	5 331 22                        @ ../../../../Library/StdDriver/src/uart.c:331:22
	ldr.w	r3, [lr, #24]
	.loc	5 331 9                         @ ../../../../Library/StdDriver/src/uart.c:331:9
	lsls	r3, r3, #17
.Ltmp108:
	@DEBUG_VALUE: UART_Read:u32delayno <- [DW_OP_plus_uconst 8, DW_OP_plus_uconst 1, DW_OP_stack_value] $r12
	.loc	5 331 22                        @ ../../../../Library/StdDriver/src/uart.c:331:22
	itt	mi
	ldrmi.w	r3, [lr, #24]
	.loc	5 331 9                         @ ../../../../Library/StdDriver/src/uart.c:331:9
	lslsmi.w	r3, r3, #17
	bpl	.LBB7_2
.Ltmp109:
@ %bb.9:                                @   in Loop: Header=BB7_4 Depth=2
	@DEBUG_VALUE: UART_Read:u32delayno <- [DW_OP_plus_uconst 8, DW_OP_plus_uconst 1, DW_OP_stack_value] $r12
	@DEBUG_VALUE: UART_Read:u32Count <- $r0
	@DEBUG_VALUE: UART_Read:uart <- $lr
	@DEBUG_VALUE: UART_Read:u32Exit <- 0
	@DEBUG_VALUE: UART_Read:u32ReadBytes <- $r2
	@DEBUG_VALUE: UART_Read:pu8RxBuf <- $r1
	@DEBUG_VALUE: UART_Read:u32delayno <- [DW_OP_plus_uconst 9, DW_OP_plus_uconst 1, DW_OP_stack_value] $r12
	.loc	5 331 22                        @ ../../../../Library/StdDriver/src/uart.c:331:22
	ldr.w	r3, [lr, #24]
	.loc	5 331 9                         @ ../../../../Library/StdDriver/src/uart.c:331:9
	lsls	r3, r3, #17
.Ltmp110:
	@DEBUG_VALUE: UART_Read:u32delayno <- [DW_OP_plus_uconst 10, DW_OP_plus_uconst 1, DW_OP_stack_value] $r12
	.loc	5 331 22                        @ ../../../../Library/StdDriver/src/uart.c:331:22
	itt	mi
	ldrmi.w	r3, [lr, #24]
	.loc	5 331 9                         @ ../../../../Library/StdDriver/src/uart.c:331:9
	lslsmi.w	r3, r3, #17
	bpl	.LBB7_2
.Ltmp111:
@ %bb.10:                               @   in Loop: Header=BB7_4 Depth=2
	@DEBUG_VALUE: UART_Read:u32delayno <- [DW_OP_plus_uconst 10, DW_OP_plus_uconst 1, DW_OP_stack_value] $r12
	@DEBUG_VALUE: UART_Read:u32Count <- $r0
	@DEBUG_VALUE: UART_Read:uart <- $lr
	@DEBUG_VALUE: UART_Read:u32Exit <- 0
	@DEBUG_VALUE: UART_Read:u32ReadBytes <- $r2
	@DEBUG_VALUE: UART_Read:pu8RxBuf <- $r1
	@DEBUG_VALUE: UART_Read:u32delayno <- [DW_OP_plus_uconst 11, DW_OP_plus_uconst 1, DW_OP_stack_value] $r12
	.loc	5 331 22                        @ ../../../../Library/StdDriver/src/uart.c:331:22
	ldr.w	r3, [lr, #24]
	.loc	5 331 9                         @ ../../../../Library/StdDriver/src/uart.c:331:9
	lsls	r3, r3, #17
.Ltmp112:
	@DEBUG_VALUE: UART_Read:u32delayno <- [DW_OP_plus_uconst 12, DW_OP_plus_uconst 1, DW_OP_stack_value] $r12
	.loc	5 331 22                        @ ../../../../Library/StdDriver/src/uart.c:331:22
	itt	mi
	ldrmi.w	r3, [lr, #24]
	.loc	5 331 9                         @ ../../../../Library/StdDriver/src/uart.c:331:9
	lslsmi.w	r3, r3, #17
	bpl	.LBB7_2
.Ltmp113:
@ %bb.11:                               @   in Loop: Header=BB7_4 Depth=2
	@DEBUG_VALUE: UART_Read:u32delayno <- [DW_OP_plus_uconst 12, DW_OP_plus_uconst 1, DW_OP_stack_value] $r12
	@DEBUG_VALUE: UART_Read:u32Count <- $r0
	@DEBUG_VALUE: UART_Read:uart <- $lr
	@DEBUG_VALUE: UART_Read:u32Exit <- 0
	@DEBUG_VALUE: UART_Read:u32ReadBytes <- $r2
	@DEBUG_VALUE: UART_Read:pu8RxBuf <- $r1
	@DEBUG_VALUE: UART_Read:u32delayno <- [DW_OP_plus_uconst 13, DW_OP_plus_uconst 1, DW_OP_stack_value] $r12
	.loc	5 331 22                        @ ../../../../Library/StdDriver/src/uart.c:331:22
	ldr.w	r3, [lr, #24]
	.loc	5 331 9                         @ ../../../../Library/StdDriver/src/uart.c:331:9
	lsls	r3, r3, #17
.Ltmp114:
	@DEBUG_VALUE: UART_Read:u32delayno <- [DW_OP_plus_uconst 14, DW_OP_plus_uconst 1, DW_OP_stack_value] $r12
	.loc	5 331 22                        @ ../../../../Library/StdDriver/src/uart.c:331:22
	itt	mi
	ldrmi.w	r3, [lr, #24]
	.loc	5 331 9                         @ ../../../../Library/StdDriver/src/uart.c:331:9
	lslsmi.w	r3, r3, #17
	bpl	.LBB7_2
.Ltmp115:
@ %bb.12:                               @   in Loop: Header=BB7_4 Depth=2
	@DEBUG_VALUE: UART_Read:u32delayno <- [DW_OP_plus_uconst 14, DW_OP_plus_uconst 1, DW_OP_stack_value] $r12
	@DEBUG_VALUE: UART_Read:u32Count <- $r0
	@DEBUG_VALUE: UART_Read:uart <- $lr
	@DEBUG_VALUE: UART_Read:u32Exit <- 0
	@DEBUG_VALUE: UART_Read:u32ReadBytes <- $r2
	@DEBUG_VALUE: UART_Read:pu8RxBuf <- $r1
	@DEBUG_VALUE: UART_Read:u32delayno <- [DW_OP_consts 1073741824, DW_OP_minus, DW_OP_consts 18446744073709551600, DW_OP_div, DW_OP_consts 16, DW_OP_mul, DW_OP_consts 16, DW_OP_plus, DW_OP_stack_value] $r12
	.loc	5 335 28 is_stmt 1              @ ../../../../Library/StdDriver/src/uart.c:335:28
	subs.w	r12, r12, #16
.Ltmp116:
	.loc	5 355 5                         @ ../../../../Library/StdDriver/src/uart.c:355:5
	it	eq
	popeq	{r7, pc}
	b	.LBB7_4
.Ltmp117:
.LBB7_13:
	@DEBUG_VALUE: UART_Read:u32Count <- $r0
	@DEBUG_VALUE: UART_Read:uart <- $lr
	@DEBUG_VALUE: UART_Read:u32Exit <- 0
	@DEBUG_VALUE: UART_Read:u32ReadBytes <- $r2
	@DEBUG_VALUE: UART_Read:pu8RxBuf <- $r1
	.loc	5 0 5 is_stmt 0                 @ ../../../../Library/StdDriver/src/uart.c:0:5
	mov	r0, r2
.Ltmp118:
	.loc	5 355 5                         @ ../../../../Library/StdDriver/src/uart.c:355:5
	pop	{r7, pc}
.Ltmp119:
.Lfunc_end7:
	.size	UART_Read, .Lfunc_end7-UART_Read
	.cfi_endproc
	.cantunwind
	.fnend
                                        @ -- End function
	.section	.text.UART_SetLineConfig,"ax",%progbits
	.hidden	UART_SetLineConfig              @ -- Begin function UART_SetLineConfig
	.globl	UART_SetLineConfig
	.p2align	2
	.type	UART_SetLineConfig,%function
	.code	16                              @ @UART_SetLineConfig
	.thumb_func
UART_SetLineConfig:
.Lfunc_begin8:
	.loc	5 387 0 is_stmt 1               @ ../../../../Library/StdDriver/src/uart.c:387:0
	.fnstart
	.cfi_startproc
@ %bb.0:
	@DEBUG_VALUE: UART_SetLineConfig:uart <- $r0
	@DEBUG_VALUE: UART_SetLineConfig:u32baudrate <- $r1
	@DEBUG_VALUE: UART_SetLineConfig:u32data_width <- $r2
	@DEBUG_VALUE: UART_SetLineConfig:u32parity <- $r3
	.save	{r4, r5, r6, r7, r8, lr}
	push.w	{r4, r5, r6, r7, r8, lr}
	.cfi_def_cfa_offset 24
	.cfi_offset lr, -4
	.cfi_offset r8, -8
	.cfi_offset r7, -12
	.cfi_offset r6, -16
	.cfi_offset r5, -20
	.cfi_offset r4, -24
	.pad	#24
	sub	sp, #24
	.cfi_def_cfa_offset 48
.Ltmp120:
	@DEBUG_VALUE: UART_SetLineConfig:u32stop_bits <- [DW_OP_plus_uconst 48] [$sp+0]
	mov	r5, r0
.Ltmp121:
	@DEBUG_VALUE: UART_SetLineConfig:uart <- $r5
	@DEBUG_VALUE: UART_SetLineConfig:u32UartClkDivNum <- 0
	@DEBUG_VALUE: UART_SetLineConfig:u32UartClkSrcSel <- 0
	@DEBUG_VALUE: UART_SetLineConfig:uart <- $r5
	.loc	5 389 14 prologue_end           @ ../../../../Library/StdDriver/src/uart.c:389:14
	movw	r0, :lower16:.L__const.UART_SelectIrDAMode.u32ClkTbl
	movt	r0, :upper16:.L__const.UART_SelectIrDAMode.u32ClkTbl
	mov	r8, r3
.Ltmp122:
	@DEBUG_VALUE: UART_SetLineConfig:u32parity <- $r8
	@DEBUG_VALUE: UART_SetLineConfig:u32parity <- $r8
	.loc	5 0 14 is_stmt 0                @ ../../../../Library/StdDriver/src/uart.c:0:14
	mov	r6, r2
.Ltmp123:
	@DEBUG_VALUE: UART_SetLineConfig:u32data_width <- $r6
	@DEBUG_VALUE: UART_SetLineConfig:u32data_width <- $r6
	mov	r7, r1
.Ltmp124:
	@DEBUG_VALUE: UART_SetLineConfig:u32baudrate <- $r7
	@DEBUG_VALUE: UART_SetLineConfig:u32baudrate <- $r7
	.loc	5 389 14                        @ ../../../../Library/StdDriver/src/uart.c:389:14
	ldm.w	r0, {r1, r2, r3, r4}
	add.w	r12, sp, #4
	ldr	r0, [r0, #16]
	stm.w	r12, {r1, r2, r3, r4}
	movw	r1, #53247
	movt	r1, #16424
	.loc	5 391 9 is_stmt 1               @ ../../../../Library/StdDriver/src/uart.c:391:9
	cmp	r5, r1
	.loc	5 389 14                        @ ../../../../Library/StdDriver/src/uart.c:389:14
	str	r0, [sp, #20]
	mov.w	r0, #0
	.loc	5 391 9                         @ ../../../../Library/StdDriver/src/uart.c:391:9
	bgt	.LBB8_6
.Ltmp125:
@ %bb.1:
	@DEBUG_VALUE: UART_SetLineConfig:u32baudrate <- $r7
	@DEBUG_VALUE: UART_SetLineConfig:u32data_width <- $r6
	@DEBUG_VALUE: UART_SetLineConfig:u32parity <- $r8
	@DEBUG_VALUE: UART_SetLineConfig:u32UartClkSrcSel <- 0
	@DEBUG_VALUE: UART_SetLineConfig:u32UartClkDivNum <- 0
	@DEBUG_VALUE: UART_SetLineConfig:uart <- $r5
	@DEBUG_VALUE: UART_SetLineConfig:u32stop_bits <- [DW_OP_plus_uconst 48] [$sp+0]
	.loc	5 0 9 is_stmt 0                 @ ../../../../Library/StdDriver/src/uart.c:0:9
	movw	r1, #61439
	movt	r1, #16420
	.loc	5 391 9                         @ ../../../../Library/StdDriver/src/uart.c:391:9
	cmp	r5, r1
	ble	.LBB8_11
.Ltmp126:
@ %bb.2:
	@DEBUG_VALUE: UART_SetLineConfig:u32baudrate <- $r7
	@DEBUG_VALUE: UART_SetLineConfig:u32data_width <- $r6
	@DEBUG_VALUE: UART_SetLineConfig:u32parity <- $r8
	@DEBUG_VALUE: UART_SetLineConfig:u32UartClkSrcSel <- 0
	@DEBUG_VALUE: UART_SetLineConfig:u32UartClkDivNum <- 0
	@DEBUG_VALUE: UART_SetLineConfig:uart <- $r5
	@DEBUG_VALUE: UART_SetLineConfig:u32stop_bits <- [DW_OP_plus_uconst 48] [$sp+0]
	.loc	5 0 9                           @ ../../../../Library/StdDriver/src/uart.c:0:9
	movw	r1, #61440
	movt	r1, #16420
	.loc	5 391 9                         @ ../../../../Library/StdDriver/src/uart.c:391:9
	cmp	r5, r1
	beq	.LBB8_17
.Ltmp127:
@ %bb.3:
	@DEBUG_VALUE: UART_SetLineConfig:u32baudrate <- $r7
	@DEBUG_VALUE: UART_SetLineConfig:u32data_width <- $r6
	@DEBUG_VALUE: UART_SetLineConfig:u32parity <- $r8
	@DEBUG_VALUE: UART_SetLineConfig:u32UartClkSrcSel <- 0
	@DEBUG_VALUE: UART_SetLineConfig:u32UartClkDivNum <- 0
	@DEBUG_VALUE: UART_SetLineConfig:uart <- $r5
	@DEBUG_VALUE: UART_SetLineConfig:u32stop_bits <- [DW_OP_plus_uconst 48] [$sp+0]
	.loc	5 0 9                           @ ../../../../Library/StdDriver/src/uart.c:0:9
	movs	r1, #0
	movt	r1, #16421
	.loc	5 391 9                         @ ../../../../Library/StdDriver/src/uart.c:391:9
	cmp	r5, r1
	beq	.LBB8_18
.Ltmp128:
@ %bb.4:
	@DEBUG_VALUE: UART_SetLineConfig:u32baudrate <- $r7
	@DEBUG_VALUE: UART_SetLineConfig:u32data_width <- $r6
	@DEBUG_VALUE: UART_SetLineConfig:u32parity <- $r8
	@DEBUG_VALUE: UART_SetLineConfig:u32UartClkSrcSel <- 0
	@DEBUG_VALUE: UART_SetLineConfig:u32UartClkDivNum <- 0
	@DEBUG_VALUE: UART_SetLineConfig:uart <- $r5
	@DEBUG_VALUE: UART_SetLineConfig:u32stop_bits <- [DW_OP_plus_uconst 48] [$sp+0]
	.loc	5 0 9                           @ ../../../../Library/StdDriver/src/uart.c:0:9
	movw	r1, #4096
	movs	r4, #0
	movt	r1, #16421
	.loc	5 391 9                         @ ../../../../Library/StdDriver/src/uart.c:391:9
	cmp	r5, r1
	bne.w	.LBB8_26
.Ltmp129:
@ %bb.5:
	@DEBUG_VALUE: UART_SetLineConfig:u32baudrate <- $r7
	@DEBUG_VALUE: UART_SetLineConfig:u32data_width <- $r6
	@DEBUG_VALUE: UART_SetLineConfig:u32parity <- $r8
	@DEBUG_VALUE: UART_SetLineConfig:u32UartClkSrcSel <- 0
	@DEBUG_VALUE: UART_SetLineConfig:u32UartClkDivNum <- 0
	@DEBUG_VALUE: UART_SetLineConfig:uart <- $r5
	@DEBUG_VALUE: UART_SetLineConfig:u32stop_bits <- [DW_OP_plus_uconst 48] [$sp+0]
	.loc	5 0 9                           @ ../../../../Library/StdDriver/src/uart.c:0:9
	movw	r1, #5216
	movt	r1, #16384
.Ltmp130:
	.loc	5 451 34 is_stmt 1              @ ../../../../Library/StdDriver/src/uart.c:451:34
	ldr	r0, [r1, #4]
.Ltmp131:
	@DEBUG_VALUE: UART_SetLineConfig:u32UartClkSrcSel <- [DW_OP_constu 7, DW_OP_and, DW_OP_stack_value] $r0
	.loc	5 453 34                        @ ../../../../Library/StdDriver/src/uart.c:453:34
	ldr.w	r1, [r1, #224]
	.loc	5 453 43 is_stmt 0              @ ../../../../Library/StdDriver/src/uart.c:453:43
	and	r4, r1, #15
.Ltmp132:
	@DEBUG_VALUE: UART_SetLineConfig:u32UartClkDivNum <- $r4
	.loc	5 0 43                          @ ../../../../Library/StdDriver/src/uart.c:0:43
	b	.LBB8_24
.Ltmp133:
.LBB8_6:
	@DEBUG_VALUE: UART_SetLineConfig:u32baudrate <- $r7
	@DEBUG_VALUE: UART_SetLineConfig:u32data_width <- $r6
	@DEBUG_VALUE: UART_SetLineConfig:u32parity <- $r8
	@DEBUG_VALUE: UART_SetLineConfig:u32UartClkSrcSel <- 0
	@DEBUG_VALUE: UART_SetLineConfig:u32UartClkDivNum <- 0
	@DEBUG_VALUE: UART_SetLineConfig:uart <- $r5
	@DEBUG_VALUE: UART_SetLineConfig:u32stop_bits <- [DW_OP_plus_uconst 48] [$sp+0]
	movw	r1, #61439
	movt	r1, #16424
	.loc	5 391 9 is_stmt 1               @ ../../../../Library/StdDriver/src/uart.c:391:9
	cmp	r5, r1
	ble	.LBB8_14
.Ltmp134:
@ %bb.7:
	@DEBUG_VALUE: UART_SetLineConfig:u32baudrate <- $r7
	@DEBUG_VALUE: UART_SetLineConfig:u32data_width <- $r6
	@DEBUG_VALUE: UART_SetLineConfig:u32parity <- $r8
	@DEBUG_VALUE: UART_SetLineConfig:u32UartClkSrcSel <- 0
	@DEBUG_VALUE: UART_SetLineConfig:u32UartClkDivNum <- 0
	@DEBUG_VALUE: UART_SetLineConfig:uart <- $r5
	@DEBUG_VALUE: UART_SetLineConfig:u32stop_bits <- [DW_OP_plus_uconst 48] [$sp+0]
	.loc	5 0 9 is_stmt 0                 @ ../../../../Library/StdDriver/src/uart.c:0:9
	movw	r1, #61440
	movt	r1, #16424
	.loc	5 391 9                         @ ../../../../Library/StdDriver/src/uart.c:391:9
	cmp	r5, r1
	beq	.LBB8_19
.Ltmp135:
@ %bb.8:
	@DEBUG_VALUE: UART_SetLineConfig:u32baudrate <- $r7
	@DEBUG_VALUE: UART_SetLineConfig:u32data_width <- $r6
	@DEBUG_VALUE: UART_SetLineConfig:u32parity <- $r8
	@DEBUG_VALUE: UART_SetLineConfig:u32UartClkSrcSel <- 0
	@DEBUG_VALUE: UART_SetLineConfig:u32UartClkDivNum <- 0
	@DEBUG_VALUE: UART_SetLineConfig:uart <- $r5
	@DEBUG_VALUE: UART_SetLineConfig:u32stop_bits <- [DW_OP_plus_uconst 48] [$sp+0]
	.loc	5 0 9                           @ ../../../../Library/StdDriver/src/uart.c:0:9
	movs	r1, #0
	movt	r1, #16425
	.loc	5 391 9                         @ ../../../../Library/StdDriver/src/uart.c:391:9
	cmp	r5, r1
	beq	.LBB8_20
.Ltmp136:
@ %bb.9:
	@DEBUG_VALUE: UART_SetLineConfig:u32baudrate <- $r7
	@DEBUG_VALUE: UART_SetLineConfig:u32data_width <- $r6
	@DEBUG_VALUE: UART_SetLineConfig:u32parity <- $r8
	@DEBUG_VALUE: UART_SetLineConfig:u32UartClkSrcSel <- 0
	@DEBUG_VALUE: UART_SetLineConfig:u32UartClkDivNum <- 0
	@DEBUG_VALUE: UART_SetLineConfig:uart <- $r5
	@DEBUG_VALUE: UART_SetLineConfig:u32stop_bits <- [DW_OP_plus_uconst 48] [$sp+0]
	.loc	5 0 9                           @ ../../../../Library/StdDriver/src/uart.c:0:9
	movw	r1, #4096
	movs	r4, #0
	movt	r1, #16425
	.loc	5 391 9                         @ ../../../../Library/StdDriver/src/uart.c:391:9
	cmp	r5, r1
	bne.w	.LBB8_26
.Ltmp137:
@ %bb.10:
	@DEBUG_VALUE: UART_SetLineConfig:u32baudrate <- $r7
	@DEBUG_VALUE: UART_SetLineConfig:u32data_width <- $r6
	@DEBUG_VALUE: UART_SetLineConfig:u32parity <- $r8
	@DEBUG_VALUE: UART_SetLineConfig:u32UartClkSrcSel <- 0
	@DEBUG_VALUE: UART_SetLineConfig:u32UartClkDivNum <- 0
	@DEBUG_VALUE: UART_SetLineConfig:uart <- $r5
	@DEBUG_VALUE: UART_SetLineConfig:u32stop_bits <- [DW_OP_plus_uconst 48] [$sp+0]
	.loc	5 0 9                           @ ../../../../Library/StdDriver/src/uart.c:0:9
	movw	r0, #5216
	movt	r0, #16384
.Ltmp138:
	.loc	5 458 34 is_stmt 1              @ ../../../../Library/StdDriver/src/uart.c:458:34
	ldr	r1, [r0, #4]
	.loc	5 460 34                        @ ../../../../Library/StdDriver/src/uart.c:460:34
	ldr.w	r0, [r0, #224]
	b	.LBB8_23
.Ltmp139:
.LBB8_11:
	@DEBUG_VALUE: UART_SetLineConfig:u32baudrate <- $r7
	@DEBUG_VALUE: UART_SetLineConfig:u32data_width <- $r6
	@DEBUG_VALUE: UART_SetLineConfig:u32parity <- $r8
	@DEBUG_VALUE: UART_SetLineConfig:u32UartClkSrcSel <- 0
	@DEBUG_VALUE: UART_SetLineConfig:u32UartClkDivNum <- 0
	@DEBUG_VALUE: UART_SetLineConfig:uart <- $r5
	@DEBUG_VALUE: UART_SetLineConfig:u32stop_bits <- [DW_OP_plus_uconst 48] [$sp+0]
	.loc	5 0 34 is_stmt 0                @ ../../../../Library/StdDriver/src/uart.c:0:34
	movw	r1, #53248
	movt	r1, #16420
	.loc	5 391 9 is_stmt 1               @ ../../../../Library/StdDriver/src/uart.c:391:9
	cmp	r5, r1
	beq	.LBB8_21
.Ltmp140:
@ %bb.12:
	@DEBUG_VALUE: UART_SetLineConfig:u32baudrate <- $r7
	@DEBUG_VALUE: UART_SetLineConfig:u32data_width <- $r6
	@DEBUG_VALUE: UART_SetLineConfig:u32parity <- $r8
	@DEBUG_VALUE: UART_SetLineConfig:u32UartClkSrcSel <- 0
	@DEBUG_VALUE: UART_SetLineConfig:u32UartClkDivNum <- 0
	@DEBUG_VALUE: UART_SetLineConfig:uart <- $r5
	@DEBUG_VALUE: UART_SetLineConfig:u32stop_bits <- [DW_OP_plus_uconst 48] [$sp+0]
	.loc	5 0 9 is_stmt 0                 @ ../../../../Library/StdDriver/src/uart.c:0:9
	movw	r1, #57344
	movs	r4, #0
	movt	r1, #16420
	.loc	5 391 9                         @ ../../../../Library/StdDriver/src/uart.c:391:9
	cmp	r5, r1
	bne	.LBB8_26
.Ltmp141:
@ %bb.13:
	@DEBUG_VALUE: UART_SetLineConfig:u32baudrate <- $r7
	@DEBUG_VALUE: UART_SetLineConfig:u32data_width <- $r6
	@DEBUG_VALUE: UART_SetLineConfig:u32parity <- $r8
	@DEBUG_VALUE: UART_SetLineConfig:u32UartClkSrcSel <- 0
	@DEBUG_VALUE: UART_SetLineConfig:u32UartClkDivNum <- 0
	@DEBUG_VALUE: UART_SetLineConfig:uart <- $r5
	@DEBUG_VALUE: UART_SetLineConfig:u32stop_bits <- [DW_OP_plus_uconst 48] [$sp+0]
	.loc	5 0 9                           @ ../../../../Library/StdDriver/src/uart.c:0:9
	movw	r0, #5216
	movt	r0, #16384
.Ltmp142:
	.loc	5 409 34 is_stmt 1              @ ../../../../Library/StdDriver/src/uart.c:409:34
	ldr	r1, [r0]
	.loc	5 411 34                        @ ../../../../Library/StdDriver/src/uart.c:411:34
	ldr.w	r0, [r0, #220]
	.loc	5 411 72 is_stmt 0              @ ../../../../Library/StdDriver/src/uart.c:411:72
	ubfx	r4, r0, #8, #4
.Ltmp143:
	@DEBUG_VALUE: UART_SetLineConfig:u32UartClkDivNum <- $r4
	.loc	5 409 72 is_stmt 1              @ ../../../../Library/StdDriver/src/uart.c:409:72
	lsrs	r0, r1, #8
.Ltmp144:
	@DEBUG_VALUE: UART_SetLineConfig:u32UartClkSrcSel <- [DW_OP_constu 7, DW_OP_and, DW_OP_stack_value] $r0
	.loc	5 0 72 is_stmt 0                @ ../../../../Library/StdDriver/src/uart.c:0:72
	b	.LBB8_24
.Ltmp145:
.LBB8_14:
	@DEBUG_VALUE: UART_SetLineConfig:u32baudrate <- $r7
	@DEBUG_VALUE: UART_SetLineConfig:u32data_width <- $r6
	@DEBUG_VALUE: UART_SetLineConfig:u32parity <- $r8
	@DEBUG_VALUE: UART_SetLineConfig:u32UartClkSrcSel <- 0
	@DEBUG_VALUE: UART_SetLineConfig:u32UartClkDivNum <- 0
	@DEBUG_VALUE: UART_SetLineConfig:uart <- $r5
	@DEBUG_VALUE: UART_SetLineConfig:u32stop_bits <- [DW_OP_plus_uconst 48] [$sp+0]
	movw	r1, #53248
	movt	r1, #16424
	.loc	5 391 9 is_stmt 1               @ ../../../../Library/StdDriver/src/uart.c:391:9
	cmp	r5, r1
	beq	.LBB8_22
.Ltmp146:
@ %bb.15:
	@DEBUG_VALUE: UART_SetLineConfig:u32baudrate <- $r7
	@DEBUG_VALUE: UART_SetLineConfig:u32data_width <- $r6
	@DEBUG_VALUE: UART_SetLineConfig:u32parity <- $r8
	@DEBUG_VALUE: UART_SetLineConfig:u32UartClkSrcSel <- 0
	@DEBUG_VALUE: UART_SetLineConfig:u32UartClkDivNum <- 0
	@DEBUG_VALUE: UART_SetLineConfig:uart <- $r5
	@DEBUG_VALUE: UART_SetLineConfig:u32stop_bits <- [DW_OP_plus_uconst 48] [$sp+0]
	.loc	5 0 9 is_stmt 0                 @ ../../../../Library/StdDriver/src/uart.c:0:9
	movw	r1, #57344
	movs	r4, #0
	movt	r1, #16424
	.loc	5 391 9                         @ ../../../../Library/StdDriver/src/uart.c:391:9
	cmp	r5, r1
	bne	.LBB8_26
.Ltmp147:
@ %bb.16:
	@DEBUG_VALUE: UART_SetLineConfig:u32baudrate <- $r7
	@DEBUG_VALUE: UART_SetLineConfig:u32data_width <- $r6
	@DEBUG_VALUE: UART_SetLineConfig:u32parity <- $r8
	@DEBUG_VALUE: UART_SetLineConfig:u32UartClkSrcSel <- 0
	@DEBUG_VALUE: UART_SetLineConfig:u32UartClkDivNum <- 0
	@DEBUG_VALUE: UART_SetLineConfig:uart <- $r5
	@DEBUG_VALUE: UART_SetLineConfig:u32stop_bits <- [DW_OP_plus_uconst 48] [$sp+0]
	.loc	5 0 9                           @ ../../../../Library/StdDriver/src/uart.c:0:9
	movw	r0, #5216
	movt	r0, #16384
.Ltmp148:
	.loc	5 416 34 is_stmt 1              @ ../../../../Library/StdDriver/src/uart.c:416:34
	ldr	r1, [r0]
	.loc	5 418 34                        @ ../../../../Library/StdDriver/src/uart.c:418:34
	ldr.w	r0, [r0, #220]
	.loc	5 418 72 is_stmt 0              @ ../../../../Library/StdDriver/src/uart.c:418:72
	ubfx	r4, r0, #12, #4
.Ltmp149:
	@DEBUG_VALUE: UART_SetLineConfig:u32UartClkDivNum <- $r4
	.loc	5 416 72 is_stmt 1              @ ../../../../Library/StdDriver/src/uart.c:416:72
	lsrs	r0, r1, #12
.Ltmp150:
	@DEBUG_VALUE: UART_SetLineConfig:u32UartClkSrcSel <- [DW_OP_constu 7, DW_OP_and, DW_OP_stack_value] $r0
	.loc	5 0 72 is_stmt 0                @ ../../../../Library/StdDriver/src/uart.c:0:72
	b	.LBB8_24
.Ltmp151:
.LBB8_17:
	@DEBUG_VALUE: UART_SetLineConfig:u32baudrate <- $r7
	@DEBUG_VALUE: UART_SetLineConfig:u32data_width <- $r6
	@DEBUG_VALUE: UART_SetLineConfig:u32parity <- $r8
	@DEBUG_VALUE: UART_SetLineConfig:u32UartClkSrcSel <- 0
	@DEBUG_VALUE: UART_SetLineConfig:u32UartClkDivNum <- 0
	@DEBUG_VALUE: UART_SetLineConfig:uart <- $r5
	@DEBUG_VALUE: UART_SetLineConfig:u32stop_bits <- [DW_OP_plus_uconst 48] [$sp+0]
	movw	r0, #5216
	movt	r0, #16384
.Ltmp152:
	.loc	5 423 34 is_stmt 1              @ ../../../../Library/StdDriver/src/uart.c:423:34
	ldr	r1, [r0]
	.loc	5 425 34                        @ ../../../../Library/StdDriver/src/uart.c:425:34
	ldr.w	r0, [r0, #220]
	.loc	5 425 72 is_stmt 0              @ ../../../../Library/StdDriver/src/uart.c:425:72
	ubfx	r4, r0, #16, #4
.Ltmp153:
	@DEBUG_VALUE: UART_SetLineConfig:u32UartClkDivNum <- $r4
	.loc	5 423 72 is_stmt 1              @ ../../../../Library/StdDriver/src/uart.c:423:72
	lsrs	r0, r1, #16
.Ltmp154:
	@DEBUG_VALUE: UART_SetLineConfig:u32UartClkSrcSel <- [DW_OP_constu 7, DW_OP_and, DW_OP_stack_value] $r0
	.loc	5 0 72 is_stmt 0                @ ../../../../Library/StdDriver/src/uart.c:0:72
	b	.LBB8_24
.Ltmp155:
.LBB8_18:
	@DEBUG_VALUE: UART_SetLineConfig:u32baudrate <- $r7
	@DEBUG_VALUE: UART_SetLineConfig:u32data_width <- $r6
	@DEBUG_VALUE: UART_SetLineConfig:u32parity <- $r8
	@DEBUG_VALUE: UART_SetLineConfig:u32UartClkSrcSel <- 0
	@DEBUG_VALUE: UART_SetLineConfig:u32UartClkDivNum <- 0
	@DEBUG_VALUE: UART_SetLineConfig:uart <- $r5
	@DEBUG_VALUE: UART_SetLineConfig:u32stop_bits <- [DW_OP_plus_uconst 48] [$sp+0]
	movw	r0, #5216
	movt	r0, #16384
.Ltmp156:
	.loc	5 437 34 is_stmt 1              @ ../../../../Library/StdDriver/src/uart.c:437:34
	ldr	r1, [r0]
	.loc	5 439 34                        @ ../../../../Library/StdDriver/src/uart.c:439:34
	ldr.w	r0, [r0, #220]
	.loc	5 439 72 is_stmt 0              @ ../../../../Library/StdDriver/src/uart.c:439:72
	ubfx	r4, r0, #24, #4
.Ltmp157:
	@DEBUG_VALUE: UART_SetLineConfig:u32UartClkDivNum <- $r4
	.loc	5 437 72 is_stmt 1              @ ../../../../Library/StdDriver/src/uart.c:437:72
	lsrs	r0, r1, #24
.Ltmp158:
	@DEBUG_VALUE: UART_SetLineConfig:u32UartClkSrcSel <- [DW_OP_constu 7, DW_OP_and, DW_OP_stack_value] $r0
	.loc	5 0 72 is_stmt 0                @ ../../../../Library/StdDriver/src/uart.c:0:72
	b	.LBB8_24
.Ltmp159:
.LBB8_19:
	@DEBUG_VALUE: UART_SetLineConfig:u32baudrate <- $r7
	@DEBUG_VALUE: UART_SetLineConfig:u32data_width <- $r6
	@DEBUG_VALUE: UART_SetLineConfig:u32parity <- $r8
	@DEBUG_VALUE: UART_SetLineConfig:u32UartClkSrcSel <- 0
	@DEBUG_VALUE: UART_SetLineConfig:u32UartClkDivNum <- 0
	@DEBUG_VALUE: UART_SetLineConfig:uart <- $r5
	@DEBUG_VALUE: UART_SetLineConfig:u32stop_bits <- [DW_OP_plus_uconst 48] [$sp+0]
	movw	r0, #5216
	movt	r0, #16384
.Ltmp160:
	.loc	5 430 34 is_stmt 1              @ ../../../../Library/StdDriver/src/uart.c:430:34
	ldr	r1, [r0]
	.loc	5 432 34                        @ ../../../../Library/StdDriver/src/uart.c:432:34
	ldr.w	r0, [r0, #220]
	.loc	5 432 72 is_stmt 0              @ ../../../../Library/StdDriver/src/uart.c:432:72
	ubfx	r4, r0, #20, #4
.Ltmp161:
	@DEBUG_VALUE: UART_SetLineConfig:u32UartClkDivNum <- $r4
	.loc	5 430 72 is_stmt 1              @ ../../../../Library/StdDriver/src/uart.c:430:72
	lsrs	r0, r1, #20
.Ltmp162:
	@DEBUG_VALUE: UART_SetLineConfig:u32UartClkSrcSel <- [DW_OP_constu 7, DW_OP_and, DW_OP_stack_value] $r0
	.loc	5 0 72 is_stmt 0                @ ../../../../Library/StdDriver/src/uart.c:0:72
	b	.LBB8_24
.Ltmp163:
.LBB8_20:
	@DEBUG_VALUE: UART_SetLineConfig:u32baudrate <- $r7
	@DEBUG_VALUE: UART_SetLineConfig:u32data_width <- $r6
	@DEBUG_VALUE: UART_SetLineConfig:u32parity <- $r8
	@DEBUG_VALUE: UART_SetLineConfig:u32UartClkSrcSel <- 0
	@DEBUG_VALUE: UART_SetLineConfig:u32UartClkDivNum <- 0
	@DEBUG_VALUE: UART_SetLineConfig:uart <- $r5
	@DEBUG_VALUE: UART_SetLineConfig:u32stop_bits <- [DW_OP_plus_uconst 48] [$sp+0]
	movw	r0, #5216
	movt	r0, #16384
.Ltmp164:
	.loc	5 444 34 is_stmt 1              @ ../../../../Library/StdDriver/src/uart.c:444:34
	ldr	r1, [r0]
	.loc	5 446 34                        @ ../../../../Library/StdDriver/src/uart.c:446:34
	ldr.w	r2, [r0, #220]
	.loc	5 444 72                        @ ../../../../Library/StdDriver/src/uart.c:444:72
	lsrs	r0, r1, #28
.Ltmp165:
	@DEBUG_VALUE: UART_SetLineConfig:u32UartClkSrcSel <- [DW_OP_constu 7, DW_OP_and, DW_OP_stack_value] $r0
	.loc	5 446 72                        @ ../../../../Library/StdDriver/src/uart.c:446:72
	lsrs	r4, r2, #28
.Ltmp166:
	@DEBUG_VALUE: UART_SetLineConfig:u32UartClkDivNum <- $r4
	.loc	5 0 72 is_stmt 0                @ ../../../../Library/StdDriver/src/uart.c:0:72
	b	.LBB8_24
.Ltmp167:
.LBB8_21:
	@DEBUG_VALUE: UART_SetLineConfig:u32baudrate <- $r7
	@DEBUG_VALUE: UART_SetLineConfig:u32data_width <- $r6
	@DEBUG_VALUE: UART_SetLineConfig:u32parity <- $r8
	@DEBUG_VALUE: UART_SetLineConfig:u32UartClkSrcSel <- 0
	@DEBUG_VALUE: UART_SetLineConfig:u32UartClkDivNum <- 0
	@DEBUG_VALUE: UART_SetLineConfig:uart <- $r5
	@DEBUG_VALUE: UART_SetLineConfig:u32stop_bits <- [DW_OP_plus_uconst 48] [$sp+0]
	movw	r1, #5216
	movt	r1, #16384
.Ltmp168:
	.loc	5 394 34 is_stmt 1              @ ../../../../Library/StdDriver/src/uart.c:394:34
	ldr	r0, [r1]
.Ltmp169:
	@DEBUG_VALUE: UART_SetLineConfig:u32UartClkSrcSel <- [DW_OP_constu 7, DW_OP_and, DW_OP_stack_value] $r0
	.loc	5 396 34                        @ ../../../../Library/StdDriver/src/uart.c:396:34
	ldr.w	r1, [r1, #220]
	.loc	5 396 43 is_stmt 0              @ ../../../../Library/StdDriver/src/uart.c:396:43
	and	r4, r1, #15
.Ltmp170:
	@DEBUG_VALUE: UART_SetLineConfig:u32UartClkDivNum <- $r4
	.loc	5 0 43                          @ ../../../../Library/StdDriver/src/uart.c:0:43
	b	.LBB8_24
.Ltmp171:
.LBB8_22:
	@DEBUG_VALUE: UART_SetLineConfig:u32baudrate <- $r7
	@DEBUG_VALUE: UART_SetLineConfig:u32data_width <- $r6
	@DEBUG_VALUE: UART_SetLineConfig:u32parity <- $r8
	@DEBUG_VALUE: UART_SetLineConfig:u32UartClkSrcSel <- 0
	@DEBUG_VALUE: UART_SetLineConfig:u32UartClkDivNum <- 0
	@DEBUG_VALUE: UART_SetLineConfig:uart <- $r5
	@DEBUG_VALUE: UART_SetLineConfig:u32stop_bits <- [DW_OP_plus_uconst 48] [$sp+0]
	movw	r0, #5216
	movt	r0, #16384
.Ltmp172:
	.loc	5 402 34 is_stmt 1              @ ../../../../Library/StdDriver/src/uart.c:402:34
	ldr	r1, [r0]
	.loc	5 404 34                        @ ../../../../Library/StdDriver/src/uart.c:404:34
	ldr.w	r0, [r0, #220]
.Ltmp173:
.LBB8_23:
	@DEBUG_VALUE: UART_SetLineConfig:u32baudrate <- $r7
	@DEBUG_VALUE: UART_SetLineConfig:u32data_width <- $r6
	@DEBUG_VALUE: UART_SetLineConfig:u32parity <- $r8
	@DEBUG_VALUE: UART_SetLineConfig:u32UartClkSrcSel <- 0
	@DEBUG_VALUE: UART_SetLineConfig:u32UartClkDivNum <- 0
	@DEBUG_VALUE: UART_SetLineConfig:uart <- $r5
	@DEBUG_VALUE: UART_SetLineConfig:u32stop_bits <- [DW_OP_plus_uconst 48] [$sp+0]
	.loc	5 0 0 is_stmt 0                 @ ../../../../Library/StdDriver/src/uart.c:0:0
	ubfx	r4, r0, #4, #4
.Ltmp174:
	@DEBUG_VALUE: UART_SetLineConfig:u32UartClkDivNum <- $r4
	lsrs	r0, r1, #4
.Ltmp175:
	@DEBUG_VALUE: UART_SetLineConfig:u32UartClkSrcSel <- [DW_OP_constu 7, DW_OP_and, DW_OP_stack_value] $r0
.LBB8_24:
	@DEBUG_VALUE: UART_SetLineConfig:u32UartClkDivNum <- $r4
	@DEBUG_VALUE: UART_SetLineConfig:u32UartClkSrcSel <- [DW_OP_constu 7, DW_OP_and, DW_OP_stack_value] $r0
	@DEBUG_VALUE: UART_SetLineConfig:u32baudrate <- $r7
	@DEBUG_VALUE: UART_SetLineConfig:u32data_width <- $r6
	@DEBUG_VALUE: UART_SetLineConfig:u32parity <- $r8
	@DEBUG_VALUE: UART_SetLineConfig:uart <- $r5
	@DEBUG_VALUE: UART_SetLineConfig:u32stop_bits <- [DW_OP_plus_uconst 48] [$sp+0]
	and	r0, r0, #7
.Ltmp176:
	@DEBUG_VALUE: UART_SetLineConfig:u32UartClkDivNum <- $r4
	@DEBUG_VALUE: UART_SetLineConfig:u32UartClkSrcSel <- $r0
	.loc	5 464 9 is_stmt 1               @ ../../../../Library/StdDriver/src/uart.c:464:9
	cmp	r0, #3
	bne	.LBB8_26
.Ltmp177:
@ %bb.25:
	@DEBUG_VALUE: UART_SetLineConfig:u32UartClkSrcSel <- $r0
	@DEBUG_VALUE: UART_SetLineConfig:u32UartClkDivNum <- $r4
	@DEBUG_VALUE: UART_SetLineConfig:u32baudrate <- $r7
	@DEBUG_VALUE: UART_SetLineConfig:u32data_width <- $r6
	@DEBUG_VALUE: UART_SetLineConfig:u32parity <- $r8
	@DEBUG_VALUE: UART_SetLineConfig:uart <- $r5
	@DEBUG_VALUE: UART_SetLineConfig:u32stop_bits <- [DW_OP_plus_uconst 48] [$sp+0]
	.loc	5 466 39                        @ ../../../../Library/StdDriver/src/uart.c:466:39
	bl	CLK_GetAPLL0ClockFreq
.Ltmp178:
	.loc	5 466 63 is_stmt 0              @ ../../../../Library/StdDriver/src/uart.c:466:63
	lsrs	r0, r0, #1
	.loc	5 466 37                        @ ../../../../Library/StdDriver/src/uart.c:466:37
	str	r0, [sp, #16]
	movs	r0, #3
.Ltmp179:
.LBB8_26:
	@DEBUG_VALUE: UART_SetLineConfig:u32baudrate <- $r7
	@DEBUG_VALUE: UART_SetLineConfig:u32data_width <- $r6
	@DEBUG_VALUE: UART_SetLineConfig:u32parity <- $r8
	@DEBUG_VALUE: UART_SetLineConfig:uart <- $r5
	@DEBUG_VALUE: UART_SetLineConfig:u32stop_bits <- [DW_OP_plus_uconst 48] [$sp+0]
	.loc	5 0 37                          @ ../../../../Library/StdDriver/src/uart.c:0:37
	ldr	r1, [sp, #48]
	.loc	5 471 9 is_stmt 1               @ ../../../../Library/StdDriver/src/uart.c:471:9
	cbz	r7, .LBB8_31
.Ltmp180:
@ %bb.27:
	@DEBUG_VALUE: UART_SetLineConfig:u32baudrate <- $r7
	@DEBUG_VALUE: UART_SetLineConfig:u32data_width <- $r6
	@DEBUG_VALUE: UART_SetLineConfig:u32parity <- $r8
	@DEBUG_VALUE: UART_SetLineConfig:uart <- $r5
	@DEBUG_VALUE: UART_SetLineConfig:u32stop_bits <- [DW_OP_plus_uconst 48] [$sp+0]
	.loc	5 0 9 is_stmt 0                 @ ../../../../Library/StdDriver/src/uart.c:0:9
	add	r2, sp, #4
.Ltmp181:
	.loc	5 475 23 is_stmt 1              @ ../../../../Library/StdDriver/src/uart.c:475:23
	ldr.w	r0, [r2, r0, lsl #2]
	adds	r2, r4, #1
	udiv	r0, r0, r2
	add.w	r2, r0, r7, lsr #1
	udiv	r2, r2, r7
	subs	r2, #2
.Ltmp182:
	@DEBUG_VALUE: u32Baud_Div <- $r2
	.loc	5 477 13                        @ ../../../../Library/StdDriver/src/uart.c:477:13
	cmp.w	r2, #65536
	blo	.LBB8_29
.Ltmp183:
@ %bb.28:
	@DEBUG_VALUE: u32Baud_Div <- $r2
	@DEBUG_VALUE: UART_SetLineConfig:u32baudrate <- $r7
	@DEBUG_VALUE: UART_SetLineConfig:u32data_width <- $r6
	@DEBUG_VALUE: UART_SetLineConfig:u32parity <- $r8
	@DEBUG_VALUE: UART_SetLineConfig:uart <- $r5
	@DEBUG_VALUE: UART_SetLineConfig:u32stop_bits <- [DW_OP_plus_uconst 48] [$sp+0]
	.loc	5 479 45                        @ ../../../../Library/StdDriver/src/uart.c:479:45
	add.w	r0, r0, r7, lsl #3
	mvn	r2, #1
.Ltmp184:
	udiv	r0, r0, r7
	add.w	r0, r2, r0, lsr #4
	b	.LBB8_30
.Ltmp185:
.LBB8_29:
	@DEBUG_VALUE: u32Baud_Div <- $r2
	@DEBUG_VALUE: UART_SetLineConfig:u32baudrate <- $r7
	@DEBUG_VALUE: UART_SetLineConfig:u32data_width <- $r6
	@DEBUG_VALUE: UART_SetLineConfig:u32parity <- $r8
	@DEBUG_VALUE: UART_SetLineConfig:uart <- $r5
	@DEBUG_VALUE: UART_SetLineConfig:u32stop_bits <- [DW_OP_plus_uconst 48] [$sp+0]
	.loc	5 483 43                        @ ../../../../Library/StdDriver/src/uart.c:483:43
	orr	r0, r2, #805306368
.Ltmp186:
.LBB8_30:
	@DEBUG_VALUE: UART_SetLineConfig:u32baudrate <- $r7
	@DEBUG_VALUE: UART_SetLineConfig:u32data_width <- $r6
	@DEBUG_VALUE: UART_SetLineConfig:u32parity <- $r8
	@DEBUG_VALUE: UART_SetLineConfig:uart <- $r5
	@DEBUG_VALUE: UART_SetLineConfig:u32stop_bits <- [DW_OP_plus_uconst 48] [$sp+0]
	.loc	5 0 0 is_stmt 0                 @ ../../../../Library/StdDriver/src/uart.c:0:0
	str	r0, [r5, #36]
.Ltmp187:
.LBB8_31:
	@DEBUG_VALUE: UART_SetLineConfig:u32baudrate <- $r7
	@DEBUG_VALUE: UART_SetLineConfig:u32data_width <- $r6
	@DEBUG_VALUE: UART_SetLineConfig:u32parity <- $r8
	@DEBUG_VALUE: UART_SetLineConfig:uart <- $r5
	@DEBUG_VALUE: UART_SetLineConfig:u32stop_bits <- [DW_OP_plus_uconst 48] [$sp+0]
	.loc	5 488 32 is_stmt 1              @ ../../../../Library/StdDriver/src/uart.c:488:32
	orr.w	r0, r8, r6
	.loc	5 488 44 is_stmt 0              @ ../../../../Library/StdDriver/src/uart.c:488:44
	orrs	r0, r1
	.loc	5 488 16                        @ ../../../../Library/StdDriver/src/uart.c:488:16
	str	r0, [r5, #12]
	.loc	5 489 1 is_stmt 1               @ ../../../../Library/StdDriver/src/uart.c:489:1
	add	sp, #24
	pop.w	{r4, r5, r6, r7, r8, pc}
.Ltmp188:
.Lfunc_end8:
	.size	UART_SetLineConfig, .Lfunc_end8-UART_SetLineConfig
	.cfi_endproc
	.cantunwind
	.fnend
                                        @ -- End function
	.section	.text.UART_SetTimeoutCnt,"ax",%progbits
	.hidden	UART_SetTimeoutCnt              @ -- Begin function UART_SetTimeoutCnt
	.globl	UART_SetTimeoutCnt
	.p2align	2
	.type	UART_SetTimeoutCnt,%function
	.code	16                              @ @UART_SetTimeoutCnt
	.thumb_func
UART_SetTimeoutCnt:
.Lfunc_begin9:
	.loc	5 503 0                         @ ../../../../Library/StdDriver/src/uart.c:503:0
	.fnstart
	.cfi_startproc
@ %bb.0:
	@DEBUG_VALUE: UART_SetTimeoutCnt:uart <- $r0
	@DEBUG_VALUE: UART_SetTimeoutCnt:u32TOC <- $r1
	.loc	5 505 25 prologue_end           @ ../../../../Library/StdDriver/src/uart.c:505:25
	ldr	r2, [r0, #32]
	.loc	5 505 30 is_stmt 0              @ ../../../../Library/StdDriver/src/uart.c:505:30
	bic	r2, r2, #255
	.loc	5 505 53                        @ ../../../../Library/StdDriver/src/uart.c:505:53
	orrs	r1, r2
.Ltmp189:
	@DEBUG_VALUE: UART_SetTimeoutCnt:u32TOC <- [DW_OP_LLVM_entry_value 1] $r1
	.loc	5 505 16                        @ ../../../../Library/StdDriver/src/uart.c:505:16
	str	r1, [r0, #32]
	.loc	5 508 17 is_stmt 1              @ ../../../../Library/StdDriver/src/uart.c:508:17
	ldr	r1, [r0, #4]
	orr	r1, r1, #2048
	str	r1, [r0, #4]
	.loc	5 509 1                         @ ../../../../Library/StdDriver/src/uart.c:509:1
	bx	lr
.Ltmp190:
.Lfunc_end9:
	.size	UART_SetTimeoutCnt, .Lfunc_end9-UART_SetTimeoutCnt
	.cfi_endproc
	.cantunwind
	.fnend
                                        @ -- End function
	.section	.text.UART_SelectIrDAMode,"ax",%progbits
	.hidden	UART_SelectIrDAMode             @ -- Begin function UART_SelectIrDAMode
	.globl	UART_SelectIrDAMode
	.p2align	2
	.type	UART_SelectIrDAMode,%function
	.code	16                              @ @UART_SelectIrDAMode
	.thumb_func
UART_SelectIrDAMode:
.Lfunc_begin10:
	.loc	5 526 0                         @ ../../../../Library/StdDriver/src/uart.c:526:0
	.fnstart
	.cfi_startproc
@ %bb.0:
	@DEBUG_VALUE: UART_SelectIrDAMode:uart <- $r0
	@DEBUG_VALUE: UART_SelectIrDAMode:u32Buadrate <- $r1
	@DEBUG_VALUE: UART_SelectIrDAMode:u32Direction <- $r2
	.save	{r4, r5, r6, r7, lr}
	push	{r4, r5, r6, r7, lr}
	.cfi_def_cfa_offset 20
	.cfi_offset lr, -4
	.cfi_offset r7, -8
	.cfi_offset r6, -12
	.cfi_offset r5, -16
	.cfi_offset r4, -20
	.pad	#20
	sub	sp, #20
	.cfi_def_cfa_offset 40
	mov	r4, r0
.Ltmp191:
	@DEBUG_VALUE: UART_SelectIrDAMode:uart <- $r4
	@DEBUG_VALUE: UART_SelectIrDAMode:u32UartClkDivNum <- 0
	@DEBUG_VALUE: UART_SelectIrDAMode:u32UartClkSrcSel <- 0
	@DEBUG_VALUE: UART_SelectIrDAMode:uart <- $r4
	.loc	5 529 14 prologue_end           @ ../../../../Library/StdDriver/src/uart.c:529:14
	movw	r0, :lower16:.L__const.UART_SelectIrDAMode.u32ClkTbl
	movt	r0, :upper16:.L__const.UART_SelectIrDAMode.u32ClkTbl
	mov	r5, r2
.Ltmp192:
	@DEBUG_VALUE: UART_SelectIrDAMode:u32Direction <- $r5
	@DEBUG_VALUE: UART_SelectIrDAMode:u32Direction <- $r5
	.loc	5 0 14 is_stmt 0                @ ../../../../Library/StdDriver/src/uart.c:0:14
	mov	r6, r1
.Ltmp193:
	@DEBUG_VALUE: UART_SelectIrDAMode:u32Buadrate <- $r6
	@DEBUG_VALUE: UART_SelectIrDAMode:u32Buadrate <- $r6
	.loc	5 529 14                        @ ../../../../Library/StdDriver/src/uart.c:529:14
	ldm.w	r0, {r1, r2, r3, r7}
	ldr	r0, [r0, #16]
	stm.w	sp, {r1, r2, r3, r7}
	movs	r1, #2
	str	r0, [sp, #16]
	movw	r0, #53247
	movt	r0, #16424
	.loc	5 535 9 is_stmt 1               @ ../../../../Library/StdDriver/src/uart.c:535:9
	cmp	r4, r0
	mov.w	r0, #0
	.loc	5 532 19                        @ ../../../../Library/StdDriver/src/uart.c:532:19
	str	r1, [r4, #48]
	.loc	5 535 9                         @ ../../../../Library/StdDriver/src/uart.c:535:9
	bgt	.LBB10_6
.Ltmp194:
@ %bb.1:
	@DEBUG_VALUE: UART_SelectIrDAMode:u32Buadrate <- $r6
	@DEBUG_VALUE: UART_SelectIrDAMode:u32Direction <- $r5
	@DEBUG_VALUE: UART_SelectIrDAMode:u32UartClkSrcSel <- 0
	@DEBUG_VALUE: UART_SelectIrDAMode:u32UartClkDivNum <- 0
	@DEBUG_VALUE: UART_SelectIrDAMode:uart <- $r4
	.loc	5 0 9 is_stmt 0                 @ ../../../../Library/StdDriver/src/uart.c:0:9
	movw	r1, #61439
	movt	r1, #16420
	.loc	5 535 9                         @ ../../../../Library/StdDriver/src/uart.c:535:9
	cmp	r4, r1
	ble	.LBB10_11
.Ltmp195:
@ %bb.2:
	@DEBUG_VALUE: UART_SelectIrDAMode:u32Buadrate <- $r6
	@DEBUG_VALUE: UART_SelectIrDAMode:u32Direction <- $r5
	@DEBUG_VALUE: UART_SelectIrDAMode:u32UartClkSrcSel <- 0
	@DEBUG_VALUE: UART_SelectIrDAMode:u32UartClkDivNum <- 0
	@DEBUG_VALUE: UART_SelectIrDAMode:uart <- $r4
	.loc	5 0 9                           @ ../../../../Library/StdDriver/src/uart.c:0:9
	movw	r1, #61440
	movt	r1, #16420
	.loc	5 535 9                         @ ../../../../Library/StdDriver/src/uart.c:535:9
	cmp	r4, r1
	beq	.LBB10_17
.Ltmp196:
@ %bb.3:
	@DEBUG_VALUE: UART_SelectIrDAMode:u32Buadrate <- $r6
	@DEBUG_VALUE: UART_SelectIrDAMode:u32Direction <- $r5
	@DEBUG_VALUE: UART_SelectIrDAMode:u32UartClkSrcSel <- 0
	@DEBUG_VALUE: UART_SelectIrDAMode:u32UartClkDivNum <- 0
	@DEBUG_VALUE: UART_SelectIrDAMode:uart <- $r4
	.loc	5 0 9                           @ ../../../../Library/StdDriver/src/uart.c:0:9
	movs	r1, #0
	movt	r1, #16421
	.loc	5 535 9                         @ ../../../../Library/StdDriver/src/uart.c:535:9
	cmp	r4, r1
	beq	.LBB10_18
.Ltmp197:
@ %bb.4:
	@DEBUG_VALUE: UART_SelectIrDAMode:u32Buadrate <- $r6
	@DEBUG_VALUE: UART_SelectIrDAMode:u32Direction <- $r5
	@DEBUG_VALUE: UART_SelectIrDAMode:u32UartClkSrcSel <- 0
	@DEBUG_VALUE: UART_SelectIrDAMode:u32UartClkDivNum <- 0
	@DEBUG_VALUE: UART_SelectIrDAMode:uart <- $r4
	.loc	5 0 9                           @ ../../../../Library/StdDriver/src/uart.c:0:9
	movw	r1, #4096
	movs	r7, #0
	movt	r1, #16421
	.loc	5 535 9                         @ ../../../../Library/StdDriver/src/uart.c:535:9
	cmp	r4, r1
	bne.w	.LBB10_26
.Ltmp198:
@ %bb.5:
	@DEBUG_VALUE: UART_SelectIrDAMode:u32Buadrate <- $r6
	@DEBUG_VALUE: UART_SelectIrDAMode:u32Direction <- $r5
	@DEBUG_VALUE: UART_SelectIrDAMode:u32UartClkSrcSel <- 0
	@DEBUG_VALUE: UART_SelectIrDAMode:u32UartClkDivNum <- 0
	@DEBUG_VALUE: UART_SelectIrDAMode:uart <- $r4
	.loc	5 0 9                           @ ../../../../Library/StdDriver/src/uart.c:0:9
	movw	r1, #5216
	movt	r1, #16384
.Ltmp199:
	.loc	5 594 34 is_stmt 1              @ ../../../../Library/StdDriver/src/uart.c:594:34
	ldr	r0, [r1, #4]
.Ltmp200:
	@DEBUG_VALUE: UART_SelectIrDAMode:u32UartClkSrcSel <- [DW_OP_constu 7, DW_OP_and, DW_OP_stack_value] $r0
	.loc	5 596 34                        @ ../../../../Library/StdDriver/src/uart.c:596:34
	ldr.w	r1, [r1, #224]
	.loc	5 596 43 is_stmt 0              @ ../../../../Library/StdDriver/src/uart.c:596:43
	and	r7, r1, #15
.Ltmp201:
	@DEBUG_VALUE: UART_SelectIrDAMode:u32UartClkDivNum <- $r7
	.loc	5 0 43                          @ ../../../../Library/StdDriver/src/uart.c:0:43
	b	.LBB10_24
.Ltmp202:
.LBB10_6:
	@DEBUG_VALUE: UART_SelectIrDAMode:u32Buadrate <- $r6
	@DEBUG_VALUE: UART_SelectIrDAMode:u32Direction <- $r5
	@DEBUG_VALUE: UART_SelectIrDAMode:u32UartClkSrcSel <- 0
	@DEBUG_VALUE: UART_SelectIrDAMode:u32UartClkDivNum <- 0
	@DEBUG_VALUE: UART_SelectIrDAMode:uart <- $r4
	movw	r1, #61439
	movt	r1, #16424
	.loc	5 535 9 is_stmt 1               @ ../../../../Library/StdDriver/src/uart.c:535:9
	cmp	r4, r1
	ble	.LBB10_14
.Ltmp203:
@ %bb.7:
	@DEBUG_VALUE: UART_SelectIrDAMode:u32Buadrate <- $r6
	@DEBUG_VALUE: UART_SelectIrDAMode:u32Direction <- $r5
	@DEBUG_VALUE: UART_SelectIrDAMode:u32UartClkSrcSel <- 0
	@DEBUG_VALUE: UART_SelectIrDAMode:u32UartClkDivNum <- 0
	@DEBUG_VALUE: UART_SelectIrDAMode:uart <- $r4
	.loc	5 0 9 is_stmt 0                 @ ../../../../Library/StdDriver/src/uart.c:0:9
	movw	r1, #61440
	movt	r1, #16424
	.loc	5 535 9                         @ ../../../../Library/StdDriver/src/uart.c:535:9
	cmp	r4, r1
	beq	.LBB10_19
.Ltmp204:
@ %bb.8:
	@DEBUG_VALUE: UART_SelectIrDAMode:u32Buadrate <- $r6
	@DEBUG_VALUE: UART_SelectIrDAMode:u32Direction <- $r5
	@DEBUG_VALUE: UART_SelectIrDAMode:u32UartClkSrcSel <- 0
	@DEBUG_VALUE: UART_SelectIrDAMode:u32UartClkDivNum <- 0
	@DEBUG_VALUE: UART_SelectIrDAMode:uart <- $r4
	.loc	5 0 9                           @ ../../../../Library/StdDriver/src/uart.c:0:9
	movs	r1, #0
	movt	r1, #16425
	.loc	5 535 9                         @ ../../../../Library/StdDriver/src/uart.c:535:9
	cmp	r4, r1
	beq	.LBB10_20
.Ltmp205:
@ %bb.9:
	@DEBUG_VALUE: UART_SelectIrDAMode:u32Buadrate <- $r6
	@DEBUG_VALUE: UART_SelectIrDAMode:u32Direction <- $r5
	@DEBUG_VALUE: UART_SelectIrDAMode:u32UartClkSrcSel <- 0
	@DEBUG_VALUE: UART_SelectIrDAMode:u32UartClkDivNum <- 0
	@DEBUG_VALUE: UART_SelectIrDAMode:uart <- $r4
	.loc	5 0 9                           @ ../../../../Library/StdDriver/src/uart.c:0:9
	movw	r1, #4096
	movs	r7, #0
	movt	r1, #16425
	.loc	5 535 9                         @ ../../../../Library/StdDriver/src/uart.c:535:9
	cmp	r4, r1
	bne.w	.LBB10_26
.Ltmp206:
@ %bb.10:
	@DEBUG_VALUE: UART_SelectIrDAMode:u32Buadrate <- $r6
	@DEBUG_VALUE: UART_SelectIrDAMode:u32Direction <- $r5
	@DEBUG_VALUE: UART_SelectIrDAMode:u32UartClkSrcSel <- 0
	@DEBUG_VALUE: UART_SelectIrDAMode:u32UartClkDivNum <- 0
	@DEBUG_VALUE: UART_SelectIrDAMode:uart <- $r4
	.loc	5 0 9                           @ ../../../../Library/StdDriver/src/uart.c:0:9
	movw	r0, #5216
	movt	r0, #16384
.Ltmp207:
	.loc	5 601 34 is_stmt 1              @ ../../../../Library/StdDriver/src/uart.c:601:34
	ldr	r1, [r0, #4]
	.loc	5 603 34                        @ ../../../../Library/StdDriver/src/uart.c:603:34
	ldr.w	r0, [r0, #224]
	b	.LBB10_23
.Ltmp208:
.LBB10_11:
	@DEBUG_VALUE: UART_SelectIrDAMode:u32Buadrate <- $r6
	@DEBUG_VALUE: UART_SelectIrDAMode:u32Direction <- $r5
	@DEBUG_VALUE: UART_SelectIrDAMode:u32UartClkSrcSel <- 0
	@DEBUG_VALUE: UART_SelectIrDAMode:u32UartClkDivNum <- 0
	@DEBUG_VALUE: UART_SelectIrDAMode:uart <- $r4
	.loc	5 0 34 is_stmt 0                @ ../../../../Library/StdDriver/src/uart.c:0:34
	movw	r1, #53248
	movt	r1, #16420
	.loc	5 535 9 is_stmt 1               @ ../../../../Library/StdDriver/src/uart.c:535:9
	cmp	r4, r1
	beq	.LBB10_21
.Ltmp209:
@ %bb.12:
	@DEBUG_VALUE: UART_SelectIrDAMode:u32Buadrate <- $r6
	@DEBUG_VALUE: UART_SelectIrDAMode:u32Direction <- $r5
	@DEBUG_VALUE: UART_SelectIrDAMode:u32UartClkSrcSel <- 0
	@DEBUG_VALUE: UART_SelectIrDAMode:u32UartClkDivNum <- 0
	@DEBUG_VALUE: UART_SelectIrDAMode:uart <- $r4
	.loc	5 0 9 is_stmt 0                 @ ../../../../Library/StdDriver/src/uart.c:0:9
	movw	r1, #57344
	movs	r7, #0
	movt	r1, #16420
	.loc	5 535 9                         @ ../../../../Library/StdDriver/src/uart.c:535:9
	cmp	r4, r1
	bne	.LBB10_26
.Ltmp210:
@ %bb.13:
	@DEBUG_VALUE: UART_SelectIrDAMode:u32Buadrate <- $r6
	@DEBUG_VALUE: UART_SelectIrDAMode:u32Direction <- $r5
	@DEBUG_VALUE: UART_SelectIrDAMode:u32UartClkSrcSel <- 0
	@DEBUG_VALUE: UART_SelectIrDAMode:u32UartClkDivNum <- 0
	@DEBUG_VALUE: UART_SelectIrDAMode:uart <- $r4
	.loc	5 0 9                           @ ../../../../Library/StdDriver/src/uart.c:0:9
	movw	r0, #5216
	movt	r0, #16384
.Ltmp211:
	.loc	5 552 34 is_stmt 1              @ ../../../../Library/StdDriver/src/uart.c:552:34
	ldr	r1, [r0]
	.loc	5 554 34                        @ ../../../../Library/StdDriver/src/uart.c:554:34
	ldr.w	r0, [r0, #220]
	.loc	5 554 72 is_stmt 0              @ ../../../../Library/StdDriver/src/uart.c:554:72
	ubfx	r7, r0, #8, #4
.Ltmp212:
	@DEBUG_VALUE: UART_SelectIrDAMode:u32UartClkDivNum <- $r7
	.loc	5 552 72 is_stmt 1              @ ../../../../Library/StdDriver/src/uart.c:552:72
	lsrs	r0, r1, #8
.Ltmp213:
	@DEBUG_VALUE: UART_SelectIrDAMode:u32UartClkSrcSel <- [DW_OP_constu 7, DW_OP_and, DW_OP_stack_value] $r0
	.loc	5 0 72 is_stmt 0                @ ../../../../Library/StdDriver/src/uart.c:0:72
	b	.LBB10_24
.Ltmp214:
.LBB10_14:
	@DEBUG_VALUE: UART_SelectIrDAMode:u32Buadrate <- $r6
	@DEBUG_VALUE: UART_SelectIrDAMode:u32Direction <- $r5
	@DEBUG_VALUE: UART_SelectIrDAMode:u32UartClkSrcSel <- 0
	@DEBUG_VALUE: UART_SelectIrDAMode:u32UartClkDivNum <- 0
	@DEBUG_VALUE: UART_SelectIrDAMode:uart <- $r4
	movw	r1, #53248
	movt	r1, #16424
	.loc	5 535 9 is_stmt 1               @ ../../../../Library/StdDriver/src/uart.c:535:9
	cmp	r4, r1
	beq	.LBB10_22
.Ltmp215:
@ %bb.15:
	@DEBUG_VALUE: UART_SelectIrDAMode:u32Buadrate <- $r6
	@DEBUG_VALUE: UART_SelectIrDAMode:u32Direction <- $r5
	@DEBUG_VALUE: UART_SelectIrDAMode:u32UartClkSrcSel <- 0
	@DEBUG_VALUE: UART_SelectIrDAMode:u32UartClkDivNum <- 0
	@DEBUG_VALUE: UART_SelectIrDAMode:uart <- $r4
	.loc	5 0 9 is_stmt 0                 @ ../../../../Library/StdDriver/src/uart.c:0:9
	movw	r1, #57344
	movs	r7, #0
	movt	r1, #16424
	.loc	5 535 9                         @ ../../../../Library/StdDriver/src/uart.c:535:9
	cmp	r4, r1
	bne	.LBB10_26
.Ltmp216:
@ %bb.16:
	@DEBUG_VALUE: UART_SelectIrDAMode:u32Buadrate <- $r6
	@DEBUG_VALUE: UART_SelectIrDAMode:u32Direction <- $r5
	@DEBUG_VALUE: UART_SelectIrDAMode:u32UartClkSrcSel <- 0
	@DEBUG_VALUE: UART_SelectIrDAMode:u32UartClkDivNum <- 0
	@DEBUG_VALUE: UART_SelectIrDAMode:uart <- $r4
	.loc	5 0 9                           @ ../../../../Library/StdDriver/src/uart.c:0:9
	movw	r0, #5216
	movt	r0, #16384
.Ltmp217:
	.loc	5 559 34 is_stmt 1              @ ../../../../Library/StdDriver/src/uart.c:559:34
	ldr	r1, [r0]
	.loc	5 561 34                        @ ../../../../Library/StdDriver/src/uart.c:561:34
	ldr.w	r0, [r0, #220]
	.loc	5 561 72 is_stmt 0              @ ../../../../Library/StdDriver/src/uart.c:561:72
	ubfx	r7, r0, #12, #4
.Ltmp218:
	@DEBUG_VALUE: UART_SelectIrDAMode:u32UartClkDivNum <- $r7
	.loc	5 559 72 is_stmt 1              @ ../../../../Library/StdDriver/src/uart.c:559:72
	lsrs	r0, r1, #12
.Ltmp219:
	@DEBUG_VALUE: UART_SelectIrDAMode:u32UartClkSrcSel <- [DW_OP_constu 7, DW_OP_and, DW_OP_stack_value] $r0
	.loc	5 0 72 is_stmt 0                @ ../../../../Library/StdDriver/src/uart.c:0:72
	b	.LBB10_24
.Ltmp220:
.LBB10_17:
	@DEBUG_VALUE: UART_SelectIrDAMode:u32Buadrate <- $r6
	@DEBUG_VALUE: UART_SelectIrDAMode:u32Direction <- $r5
	@DEBUG_VALUE: UART_SelectIrDAMode:u32UartClkSrcSel <- 0
	@DEBUG_VALUE: UART_SelectIrDAMode:u32UartClkDivNum <- 0
	@DEBUG_VALUE: UART_SelectIrDAMode:uart <- $r4
	movw	r0, #5216
	movt	r0, #16384
.Ltmp221:
	.loc	5 566 34 is_stmt 1              @ ../../../../Library/StdDriver/src/uart.c:566:34
	ldr	r1, [r0]
	.loc	5 568 34                        @ ../../../../Library/StdDriver/src/uart.c:568:34
	ldr.w	r0, [r0, #220]
	.loc	5 568 72 is_stmt 0              @ ../../../../Library/StdDriver/src/uart.c:568:72
	ubfx	r7, r0, #16, #4
.Ltmp222:
	@DEBUG_VALUE: UART_SelectIrDAMode:u32UartClkDivNum <- $r7
	.loc	5 566 72 is_stmt 1              @ ../../../../Library/StdDriver/src/uart.c:566:72
	lsrs	r0, r1, #16
.Ltmp223:
	@DEBUG_VALUE: UART_SelectIrDAMode:u32UartClkSrcSel <- [DW_OP_constu 7, DW_OP_and, DW_OP_stack_value] $r0
	.loc	5 0 72 is_stmt 0                @ ../../../../Library/StdDriver/src/uart.c:0:72
	b	.LBB10_24
.Ltmp224:
.LBB10_18:
	@DEBUG_VALUE: UART_SelectIrDAMode:u32Buadrate <- $r6
	@DEBUG_VALUE: UART_SelectIrDAMode:u32Direction <- $r5
	@DEBUG_VALUE: UART_SelectIrDAMode:u32UartClkSrcSel <- 0
	@DEBUG_VALUE: UART_SelectIrDAMode:u32UartClkDivNum <- 0
	@DEBUG_VALUE: UART_SelectIrDAMode:uart <- $r4
	movw	r0, #5216
	movt	r0, #16384
.Ltmp225:
	.loc	5 580 34 is_stmt 1              @ ../../../../Library/StdDriver/src/uart.c:580:34
	ldr	r1, [r0]
	.loc	5 582 34                        @ ../../../../Library/StdDriver/src/uart.c:582:34
	ldr.w	r0, [r0, #220]
	.loc	5 582 72 is_stmt 0              @ ../../../../Library/StdDriver/src/uart.c:582:72
	ubfx	r7, r0, #24, #4
.Ltmp226:
	@DEBUG_VALUE: UART_SelectIrDAMode:u32UartClkDivNum <- $r7
	.loc	5 580 72 is_stmt 1              @ ../../../../Library/StdDriver/src/uart.c:580:72
	lsrs	r0, r1, #24
.Ltmp227:
	@DEBUG_VALUE: UART_SelectIrDAMode:u32UartClkSrcSel <- [DW_OP_constu 7, DW_OP_and, DW_OP_stack_value] $r0
	.loc	5 0 72 is_stmt 0                @ ../../../../Library/StdDriver/src/uart.c:0:72
	b	.LBB10_24
.Ltmp228:
.LBB10_19:
	@DEBUG_VALUE: UART_SelectIrDAMode:u32Buadrate <- $r6
	@DEBUG_VALUE: UART_SelectIrDAMode:u32Direction <- $r5
	@DEBUG_VALUE: UART_SelectIrDAMode:u32UartClkSrcSel <- 0
	@DEBUG_VALUE: UART_SelectIrDAMode:u32UartClkDivNum <- 0
	@DEBUG_VALUE: UART_SelectIrDAMode:uart <- $r4
	movw	r0, #5216
	movt	r0, #16384
.Ltmp229:
	.loc	5 573 34 is_stmt 1              @ ../../../../Library/StdDriver/src/uart.c:573:34
	ldr	r1, [r0]
	.loc	5 575 34                        @ ../../../../Library/StdDriver/src/uart.c:575:34
	ldr.w	r0, [r0, #220]
	.loc	5 575 72 is_stmt 0              @ ../../../../Library/StdDriver/src/uart.c:575:72
	ubfx	r7, r0, #20, #4
.Ltmp230:
	@DEBUG_VALUE: UART_SelectIrDAMode:u32UartClkDivNum <- $r7
	.loc	5 573 72 is_stmt 1              @ ../../../../Library/StdDriver/src/uart.c:573:72
	lsrs	r0, r1, #20
.Ltmp231:
	@DEBUG_VALUE: UART_SelectIrDAMode:u32UartClkSrcSel <- [DW_OP_constu 7, DW_OP_and, DW_OP_stack_value] $r0
	.loc	5 0 72 is_stmt 0                @ ../../../../Library/StdDriver/src/uart.c:0:72
	b	.LBB10_24
.Ltmp232:
.LBB10_20:
	@DEBUG_VALUE: UART_SelectIrDAMode:u32Buadrate <- $r6
	@DEBUG_VALUE: UART_SelectIrDAMode:u32Direction <- $r5
	@DEBUG_VALUE: UART_SelectIrDAMode:u32UartClkSrcSel <- 0
	@DEBUG_VALUE: UART_SelectIrDAMode:u32UartClkDivNum <- 0
	@DEBUG_VALUE: UART_SelectIrDAMode:uart <- $r4
	movw	r0, #5216
	movt	r0, #16384
.Ltmp233:
	.loc	5 587 34 is_stmt 1              @ ../../../../Library/StdDriver/src/uart.c:587:34
	ldr	r1, [r0]
	.loc	5 589 34                        @ ../../../../Library/StdDriver/src/uart.c:589:34
	ldr.w	r2, [r0, #220]
	.loc	5 587 72                        @ ../../../../Library/StdDriver/src/uart.c:587:72
	lsrs	r0, r1, #28
.Ltmp234:
	@DEBUG_VALUE: UART_SelectIrDAMode:u32UartClkSrcSel <- [DW_OP_constu 7, DW_OP_and, DW_OP_stack_value] $r0
	.loc	5 589 72                        @ ../../../../Library/StdDriver/src/uart.c:589:72
	lsrs	r7, r2, #28
.Ltmp235:
	@DEBUG_VALUE: UART_SelectIrDAMode:u32UartClkDivNum <- $r7
	.loc	5 0 72 is_stmt 0                @ ../../../../Library/StdDriver/src/uart.c:0:72
	b	.LBB10_24
.Ltmp236:
.LBB10_21:
	@DEBUG_VALUE: UART_SelectIrDAMode:u32Buadrate <- $r6
	@DEBUG_VALUE: UART_SelectIrDAMode:u32Direction <- $r5
	@DEBUG_VALUE: UART_SelectIrDAMode:u32UartClkSrcSel <- 0
	@DEBUG_VALUE: UART_SelectIrDAMode:u32UartClkDivNum <- 0
	@DEBUG_VALUE: UART_SelectIrDAMode:uart <- $r4
	movw	r1, #5216
	movt	r1, #16384
.Ltmp237:
	.loc	5 538 34 is_stmt 1              @ ../../../../Library/StdDriver/src/uart.c:538:34
	ldr	r0, [r1]
.Ltmp238:
	@DEBUG_VALUE: UART_SelectIrDAMode:u32UartClkSrcSel <- [DW_OP_constu 7, DW_OP_and, DW_OP_stack_value] $r0
	.loc	5 540 34                        @ ../../../../Library/StdDriver/src/uart.c:540:34
	ldr.w	r1, [r1, #220]
	.loc	5 540 43 is_stmt 0              @ ../../../../Library/StdDriver/src/uart.c:540:43
	and	r7, r1, #15
.Ltmp239:
	@DEBUG_VALUE: UART_SelectIrDAMode:u32UartClkDivNum <- $r7
	.loc	5 0 43                          @ ../../../../Library/StdDriver/src/uart.c:0:43
	b	.LBB10_24
.Ltmp240:
.LBB10_22:
	@DEBUG_VALUE: UART_SelectIrDAMode:u32Buadrate <- $r6
	@DEBUG_VALUE: UART_SelectIrDAMode:u32Direction <- $r5
	@DEBUG_VALUE: UART_SelectIrDAMode:u32UartClkSrcSel <- 0
	@DEBUG_VALUE: UART_SelectIrDAMode:u32UartClkDivNum <- 0
	@DEBUG_VALUE: UART_SelectIrDAMode:uart <- $r4
	movw	r0, #5216
	movt	r0, #16384
.Ltmp241:
	.loc	5 545 34 is_stmt 1              @ ../../../../Library/StdDriver/src/uart.c:545:34
	ldr	r1, [r0]
	.loc	5 547 34                        @ ../../../../Library/StdDriver/src/uart.c:547:34
	ldr.w	r0, [r0, #220]
.Ltmp242:
.LBB10_23:
	@DEBUG_VALUE: UART_SelectIrDAMode:u32Buadrate <- $r6
	@DEBUG_VALUE: UART_SelectIrDAMode:u32Direction <- $r5
	@DEBUG_VALUE: UART_SelectIrDAMode:u32UartClkSrcSel <- 0
	@DEBUG_VALUE: UART_SelectIrDAMode:u32UartClkDivNum <- 0
	@DEBUG_VALUE: UART_SelectIrDAMode:uart <- $r4
	.loc	5 0 0 is_stmt 0                 @ ../../../../Library/StdDriver/src/uart.c:0:0
	ubfx	r7, r0, #4, #4
.Ltmp243:
	@DEBUG_VALUE: UART_SelectIrDAMode:u32UartClkDivNum <- $r7
	lsrs	r0, r1, #4
.Ltmp244:
	@DEBUG_VALUE: UART_SelectIrDAMode:u32UartClkSrcSel <- [DW_OP_constu 7, DW_OP_and, DW_OP_stack_value] $r0
.LBB10_24:
	@DEBUG_VALUE: UART_SelectIrDAMode:u32UartClkDivNum <- $r7
	@DEBUG_VALUE: UART_SelectIrDAMode:u32UartClkSrcSel <- [DW_OP_constu 7, DW_OP_and, DW_OP_stack_value] $r0
	@DEBUG_VALUE: UART_SelectIrDAMode:u32Buadrate <- $r6
	@DEBUG_VALUE: UART_SelectIrDAMode:u32Direction <- $r5
	@DEBUG_VALUE: UART_SelectIrDAMode:uart <- $r4
	and	r0, r0, #7
.Ltmp245:
	@DEBUG_VALUE: UART_SelectIrDAMode:u32UartClkDivNum <- $r7
	@DEBUG_VALUE: UART_SelectIrDAMode:u32UartClkSrcSel <- $r0
	.loc	5 608 9 is_stmt 1               @ ../../../../Library/StdDriver/src/uart.c:608:9
	cmp	r0, #3
	bne	.LBB10_26
.Ltmp246:
@ %bb.25:
	@DEBUG_VALUE: UART_SelectIrDAMode:u32UartClkSrcSel <- $r0
	@DEBUG_VALUE: UART_SelectIrDAMode:u32UartClkDivNum <- $r7
	@DEBUG_VALUE: UART_SelectIrDAMode:u32Buadrate <- $r6
	@DEBUG_VALUE: UART_SelectIrDAMode:u32Direction <- $r5
	@DEBUG_VALUE: UART_SelectIrDAMode:uart <- $r4
	.loc	5 610 39                        @ ../../../../Library/StdDriver/src/uart.c:610:39
	bl	CLK_GetAPLL0ClockFreq
.Ltmp247:
	.loc	5 610 63 is_stmt 0              @ ../../../../Library/StdDriver/src/uart.c:610:63
	lsrs	r0, r0, #1
	.loc	5 610 37                        @ ../../../../Library/StdDriver/src/uart.c:610:37
	str	r0, [sp, #12]
	movs	r0, #3
.Ltmp248:
.LBB10_26:
	@DEBUG_VALUE: UART_SelectIrDAMode:u32Buadrate <- $r6
	@DEBUG_VALUE: UART_SelectIrDAMode:u32Direction <- $r5
	@DEBUG_VALUE: UART_SelectIrDAMode:uart <- $r4
	.loc	5 615 9 is_stmt 1               @ ../../../../Library/StdDriver/src/uart.c:615:9
	cbz	r6, .LBB10_28
.Ltmp249:
@ %bb.27:
	@DEBUG_VALUE: UART_SelectIrDAMode:u32Buadrate <- $r6
	@DEBUG_VALUE: UART_SelectIrDAMode:u32Direction <- $r5
	@DEBUG_VALUE: UART_SelectIrDAMode:uart <- $r4
	.loc	5 0 9 is_stmt 0                 @ ../../../../Library/StdDriver/src/uart.c:0:9
	mov	r1, sp
.Ltmp250:
	.loc	5 619 23 is_stmt 1              @ ../../../../Library/StdDriver/src/uart.c:619:23
	ldr.w	r0, [r1, r0, lsl #2]
	adds	r1, r7, #1
	udiv	r0, r0, r1
	mvn	r1, #1
	add.w	r0, r0, r6, lsl #3
	udiv	r0, r0, r6
	add.w	r0, r1, r0, lsr #4
.Ltmp251:
	@DEBUG_VALUE: u32Baud_Div <- $r0
	.loc	5 0 23 is_stmt 0                @ ../../../../Library/StdDriver/src/uart.c:0:23
	movw	r1, #65534
	.loc	5 621 13 is_stmt 1              @ ../../../../Library/StdDriver/src/uart.c:621:13
	cmp	r0, r1
.Ltmp252:
	.loc	5 623 24                        @ ../../../../Library/StdDriver/src/uart.c:623:24
	it	ls
	strls	r0, [r4, #36]
.Ltmp253:
.LBB10_28:
	@DEBUG_VALUE: UART_SelectIrDAMode:u32Buadrate <- $r6
	@DEBUG_VALUE: UART_SelectIrDAMode:u32Direction <- $r5
	@DEBUG_VALUE: UART_SelectIrDAMode:uart <- $r4
	.loc	5 0 0 is_stmt 0                 @ ../../../../Library/StdDriver/src/uart.c:0:0
	ldr	r0, [r4, #40]
.Ltmp254:
	.loc	5 631 9 is_stmt 1               @ ../../../../Library/StdDriver/src/uart.c:631:9
	cbz	r5, .LBB10_30
.Ltmp255:
@ %bb.29:
	@DEBUG_VALUE: UART_SelectIrDAMode:u32Buadrate <- $r6
	@DEBUG_VALUE: UART_SelectIrDAMode:u32Direction <- $r5
	@DEBUG_VALUE: UART_SelectIrDAMode:uart <- $r4
	.loc	5 638 20                        @ ../../../../Library/StdDriver/src/uart.c:638:20
	bic	r0, r0, #32
	str	r0, [r4, #40]
	.loc	5 639 20                        @ ../../../../Library/StdDriver/src/uart.c:639:20
	ldr	r0, [r4, #40]
	orr	r0, r0, #2
	b	.LBB10_31
.Ltmp256:
.LBB10_30:
	@DEBUG_VALUE: UART_SelectIrDAMode:u32Buadrate <- $r6
	@DEBUG_VALUE: UART_SelectIrDAMode:u32Direction <- $r5
	@DEBUG_VALUE: UART_SelectIrDAMode:uart <- $r4
	.loc	5 633 20                        @ ../../../../Library/StdDriver/src/uart.c:633:20
	orr	r0, r0, #64
	str	r0, [r4, #40]
	.loc	5 634 20                        @ ../../../../Library/StdDriver/src/uart.c:634:20
	ldr	r0, [r4, #40]
	bic	r0, r0, #2
.Ltmp257:
.LBB10_31:
	@DEBUG_VALUE: UART_SelectIrDAMode:u32Buadrate <- $r6
	@DEBUG_VALUE: UART_SelectIrDAMode:u32Direction <- $r5
	@DEBUG_VALUE: UART_SelectIrDAMode:uart <- $r4
	.loc	5 0 0 is_stmt 0                 @ ../../../../Library/StdDriver/src/uart.c:0:0
	str	r0, [r4, #40]
.Ltmp258:
	.loc	5 642 1 is_stmt 1               @ ../../../../Library/StdDriver/src/uart.c:642:1
	add	sp, #20
	pop	{r4, r5, r6, r7, pc}
.Ltmp259:
.Lfunc_end10:
	.size	UART_SelectIrDAMode, .Lfunc_end10-UART_SelectIrDAMode
	.cfi_endproc
	.cantunwind
	.fnend
                                        @ -- End function
	.section	.text.UART_SelectRS485Mode,"ax",%progbits
	.hidden	UART_SelectRS485Mode            @ -- Begin function UART_SelectRS485Mode
	.globl	UART_SelectRS485Mode
	.p2align	2
	.type	UART_SelectRS485Mode,%function
	.code	16                              @ @UART_SelectRS485Mode
	.thumb_func
UART_SelectRS485Mode:
.Lfunc_begin11:
	.loc	5 660 0                         @ ../../../../Library/StdDriver/src/uart.c:660:0
	.fnstart
	.cfi_startproc
@ %bb.0:
	@DEBUG_VALUE: UART_SelectRS485Mode:uart <- $r0
	@DEBUG_VALUE: UART_SelectRS485Mode:u32Mode <- $r1
	@DEBUG_VALUE: UART_SelectRS485Mode:u32Addr <- $r2
	movs	r3, #3
.Ltmp260:
	.loc	5 662 19 prologue_end           @ ../../../../Library/StdDriver/src/uart.c:662:19
	str	r3, [r0, #48]
	movw	r3, #63743
	.loc	5 665 18                        @ ../../../../Library/StdDriver/src/uart.c:665:18
	ldr.w	r12, [r0, #44]
	movt	r3, #255
	and.w	r3, r3, r12
	str	r3, [r0, #44]
	.loc	5 666 30                        @ ../../../../Library/StdDriver/src/uart.c:666:30
	orr.w	r1, r1, r2, lsl #24
.Ltmp261:
	@DEBUG_VALUE: UART_SelectRS485Mode:u32Mode <- [DW_OP_LLVM_entry_value 1] $r1
	.loc	5 666 18 is_stmt 0              @ ../../../../Library/StdDriver/src/uart.c:666:18
	ldr	r2, [r0, #44]
.Ltmp262:
	@DEBUG_VALUE: UART_SelectRS485Mode:u32Addr <- [DW_OP_LLVM_entry_value 1] $r2
	orrs	r1, r2
	str	r1, [r0, #44]
	.loc	5 667 1 is_stmt 1               @ ../../../../Library/StdDriver/src/uart.c:667:1
	bx	lr
.Ltmp263:
.Lfunc_end11:
	.size	UART_SelectRS485Mode, .Lfunc_end11-UART_SelectRS485Mode
	.cfi_endproc
	.cantunwind
	.fnend
                                        @ -- End function
	.section	.text.UART_SelectLINMode,"ax",%progbits
	.hidden	UART_SelectLINMode              @ -- Begin function UART_SelectLINMode
	.globl	UART_SelectLINMode
	.p2align	2
	.type	UART_SelectLINMode,%function
	.code	16                              @ @UART_SelectLINMode
	.thumb_func
UART_SelectLINMode:
.Lfunc_begin12:
	.loc	5 684 0                         @ ../../../../Library/StdDriver/src/uart.c:684:0
	.fnstart
	.cfi_startproc
@ %bb.0:
	@DEBUG_VALUE: UART_SelectLINMode:uart <- $r0
	@DEBUG_VALUE: UART_SelectLINMode:u32Mode <- $r1
	@DEBUG_VALUE: UART_SelectLINMode:u32BreakLength <- $r2
	movs	r3, #1
.Ltmp264:
	.loc	5 690 30 prologue_end           @ ../../../../Library/StdDriver/src/uart.c:690:30
	orrs	r1, r2
.Ltmp265:
	@DEBUG_VALUE: UART_SelectLINMode:u32Mode <- [DW_OP_LLVM_entry_value 1] $r1
	.loc	5 686 19                        @ ../../../../Library/StdDriver/src/uart.c:686:19
	str	r3, [r0, #48]
	.loc	5 689 18                        @ ../../../../Library/StdDriver/src/uart.c:689:18
	ldr	r3, [r0, #44]
	bic	r3, r3, #207
	str	r3, [r0, #44]
	.loc	5 690 18                        @ ../../../../Library/StdDriver/src/uart.c:690:18
	ldr	r3, [r0, #44]
	orrs	r1, r3
	str	r1, [r0, #44]
	.loc	5 691 1                         @ ../../../../Library/StdDriver/src/uart.c:691:1
	bx	lr
.Ltmp266:
.Lfunc_end12:
	.size	UART_SelectLINMode, .Lfunc_end12-UART_SelectLINMode
	.cfi_endproc
	.cantunwind
	.fnend
                                        @ -- End function
	.section	.text.UART_Write,"ax",%progbits
	.hidden	UART_Write                      @ -- Begin function UART_Write
	.globl	UART_Write
	.p2align	2
	.type	UART_Write,%function
	.code	16                              @ @UART_Write
	.thumb_func
UART_Write:
.Lfunc_begin13:
	.loc	5 706 0                         @ ../../../../Library/StdDriver/src/uart.c:706:0
	.fnstart
	.cfi_startproc
@ %bb.0:
	@DEBUG_VALUE: UART_Write:uart <- $r0
	@DEBUG_VALUE: UART_Write:pu8TxBuf <- $r1
	@DEBUG_VALUE: UART_Write:u32WriteBytes <- $r2
	.save	{r7, lr}
	push	{r7, lr}
	.cfi_def_cfa_offset 8
	.cfi_offset lr, -4
	.cfi_offset r7, -8
.Ltmp267:
	.loc	5 710 5 prologue_end            @ ../../../../Library/StdDriver/src/uart.c:710:5
	cmp	r2, #0
.Ltmp268:
	@DEBUG_VALUE: UART_Write:u32Count <- 0
	@DEBUG_VALUE: UART_Write:u32Exit <- 0
	@DEBUG_VALUE: UART_Write:uart <- $r0
	.loc	5 0 5 is_stmt 0                 @ ../../../../Library/StdDriver/src/uart.c:0:5
	itt	eq
	moveq	r0, #0
.Ltmp269:
	.loc	5 738 5 is_stmt 1               @ ../../../../Library/StdDriver/src/uart.c:738:5
	popeq	{r7, pc}
.Ltmp270:
.LBB13_1:
	@DEBUG_VALUE: UART_Write:u32Exit <- 0
	@DEBUG_VALUE: UART_Write:u32Count <- 0
	@DEBUG_VALUE: UART_Write:u32WriteBytes <- $r2
	@DEBUG_VALUE: UART_Write:pu8TxBuf <- $r1
	.loc	5 0 5 is_stmt 0                 @ ../../../../Library/StdDriver/src/uart.c:0:5
	mov	lr, r0
.Ltmp271:
	@DEBUG_VALUE: UART_Write:uart <- $lr
	movs	r0, #0
	b	.LBB13_3
.Ltmp272:
	.p2align	2
.LBB13_2:                               @   in Loop: Header=BB13_3 Depth=1
	@DEBUG_VALUE: UART_Write:u32Count <- $r0
	@DEBUG_VALUE: UART_Write:uart <- $lr
	@DEBUG_VALUE: UART_Write:u32Exit <- 0
	@DEBUG_VALUE: UART_Write:u32WriteBytes <- $r2
	@DEBUG_VALUE: UART_Write:pu8TxBuf <- $r1
	.loc	5 734 25 is_stmt 1              @ ../../../../Library/StdDriver/src/uart.c:734:25
	ldrb	r3, [r1, r0]
.Ltmp273:
	.loc	5 710 61                        @ ../../../../Library/StdDriver/src/uart.c:710:61
	adds	r0, #1
.Ltmp274:
	@DEBUG_VALUE: UART_Write:u32Count <- $r0
	@DEBUG_VALUE: UART_Write:u32Exit <- 0
	.loc	5 710 5 is_stmt 0               @ ../../../../Library/StdDriver/src/uart.c:710:5
	cmp	r0, r2
.Ltmp275:
	.loc	5 734 23 is_stmt 1              @ ../../../../Library/StdDriver/src/uart.c:734:23
	str.w	r3, [lr]
.Ltmp276:
	.loc	5 710 5                         @ ../../../../Library/StdDriver/src/uart.c:710:5
	beq	.LBB13_13
.Ltmp277:
.LBB13_3:                               @ =>This Loop Header: Depth=1
                                        @     Child Loop BB13_4 Depth 2
	@DEBUG_VALUE: UART_Write:uart <- $lr
	@DEBUG_VALUE: UART_Write:u32Exit <- 0
	@DEBUG_VALUE: UART_Write:u32WriteBytes <- $r2
	@DEBUG_VALUE: UART_Write:pu8TxBuf <- $r1
	.loc	5 0 5 is_stmt 0                 @ ../../../../Library/StdDriver/src/uart.c:0:5
	mov.w	r12, #1073741824
.Ltmp278:
	@DEBUG_VALUE: UART_Write:u32Count <- $r0
.LBB13_4:                               @   Parent Loop BB13_3 Depth=1
                                        @ =>  This Inner Loop Header: Depth=2
	@DEBUG_VALUE: UART_Write:u32Count <- $r0
	@DEBUG_VALUE: UART_Write:uart <- $lr
	@DEBUG_VALUE: UART_Write:u32Exit <- 0
	@DEBUG_VALUE: UART_Write:u32WriteBytes <- $r2
	@DEBUG_VALUE: UART_Write:pu8TxBuf <- $r1
	@DEBUG_VALUE: UART_Write:u32delayno <- [DW_OP_consts 1073741824, DW_OP_minus, DW_OP_consts 18446744073709551600, DW_OP_div, DW_OP_consts 16, DW_OP_mul, DW_OP_stack_value] $r12
	.loc	5 714 22 is_stmt 1              @ ../../../../Library/StdDriver/src/uart.c:714:22
	ldr.w	r3, [lr, #24]
	.loc	5 714 9 is_stmt 0               @ ../../../../Library/StdDriver/src/uart.c:714:9
	lsls	r3, r3, #8
.Ltmp279:
	@DEBUG_VALUE: UART_Write:u32delayno <- [DW_OP_plus_uconst 1, DW_OP_stack_value] $r12
	.loc	5 714 22                        @ ../../../../Library/StdDriver/src/uart.c:714:22
	itt	mi
	ldrmi.w	r3, [lr, #24]
	.loc	5 714 9                         @ ../../../../Library/StdDriver/src/uart.c:714:9
	lslsmi.w	r3, r3, #8
	bpl	.LBB13_2
.Ltmp280:
@ %bb.5:                                @   in Loop: Header=BB13_4 Depth=2
	@DEBUG_VALUE: UART_Write:u32delayno <- [DW_OP_plus_uconst 1, DW_OP_stack_value] $r12
	@DEBUG_VALUE: UART_Write:u32Count <- $r0
	@DEBUG_VALUE: UART_Write:uart <- $lr
	@DEBUG_VALUE: UART_Write:u32Exit <- 0
	@DEBUG_VALUE: UART_Write:u32WriteBytes <- $r2
	@DEBUG_VALUE: UART_Write:pu8TxBuf <- $r1
	@DEBUG_VALUE: UART_Write:u32delayno <- [DW_OP_plus_uconst 1, DW_OP_plus_uconst 1, DW_OP_stack_value] $r12
	.loc	5 714 22                        @ ../../../../Library/StdDriver/src/uart.c:714:22
	ldr.w	r3, [lr, #24]
	.loc	5 714 9                         @ ../../../../Library/StdDriver/src/uart.c:714:9
	lsls	r3, r3, #8
.Ltmp281:
	@DEBUG_VALUE: UART_Write:u32delayno <- [DW_OP_plus_uconst 2, DW_OP_plus_uconst 1, DW_OP_stack_value] $r12
	.loc	5 714 22                        @ ../../../../Library/StdDriver/src/uart.c:714:22
	itt	mi
	ldrmi.w	r3, [lr, #24]
	.loc	5 714 9                         @ ../../../../Library/StdDriver/src/uart.c:714:9
	lslsmi.w	r3, r3, #8
	bpl	.LBB13_2
.Ltmp282:
@ %bb.6:                                @   in Loop: Header=BB13_4 Depth=2
	@DEBUG_VALUE: UART_Write:u32delayno <- [DW_OP_plus_uconst 2, DW_OP_plus_uconst 1, DW_OP_stack_value] $r12
	@DEBUG_VALUE: UART_Write:u32Count <- $r0
	@DEBUG_VALUE: UART_Write:uart <- $lr
	@DEBUG_VALUE: UART_Write:u32Exit <- 0
	@DEBUG_VALUE: UART_Write:u32WriteBytes <- $r2
	@DEBUG_VALUE: UART_Write:pu8TxBuf <- $r1
	@DEBUG_VALUE: UART_Write:u32delayno <- [DW_OP_plus_uconst 3, DW_OP_plus_uconst 1, DW_OP_stack_value] $r12
	.loc	5 714 22                        @ ../../../../Library/StdDriver/src/uart.c:714:22
	ldr.w	r3, [lr, #24]
	.loc	5 714 9                         @ ../../../../Library/StdDriver/src/uart.c:714:9
	lsls	r3, r3, #8
.Ltmp283:
	@DEBUG_VALUE: UART_Write:u32delayno <- [DW_OP_plus_uconst 4, DW_OP_plus_uconst 1, DW_OP_stack_value] $r12
	.loc	5 714 22                        @ ../../../../Library/StdDriver/src/uart.c:714:22
	itt	mi
	ldrmi.w	r3, [lr, #24]
	.loc	5 714 9                         @ ../../../../Library/StdDriver/src/uart.c:714:9
	lslsmi.w	r3, r3, #8
	bpl	.LBB13_2
.Ltmp284:
@ %bb.7:                                @   in Loop: Header=BB13_4 Depth=2
	@DEBUG_VALUE: UART_Write:u32delayno <- [DW_OP_plus_uconst 4, DW_OP_plus_uconst 1, DW_OP_stack_value] $r12
	@DEBUG_VALUE: UART_Write:u32Count <- $r0
	@DEBUG_VALUE: UART_Write:uart <- $lr
	@DEBUG_VALUE: UART_Write:u32Exit <- 0
	@DEBUG_VALUE: UART_Write:u32WriteBytes <- $r2
	@DEBUG_VALUE: UART_Write:pu8TxBuf <- $r1
	@DEBUG_VALUE: UART_Write:u32delayno <- [DW_OP_plus_uconst 5, DW_OP_plus_uconst 1, DW_OP_stack_value] $r12
	.loc	5 714 22                        @ ../../../../Library/StdDriver/src/uart.c:714:22
	ldr.w	r3, [lr, #24]
	.loc	5 714 9                         @ ../../../../Library/StdDriver/src/uart.c:714:9
	lsls	r3, r3, #8
.Ltmp285:
	@DEBUG_VALUE: UART_Write:u32delayno <- [DW_OP_plus_uconst 6, DW_OP_plus_uconst 1, DW_OP_stack_value] $r12
	.loc	5 714 22                        @ ../../../../Library/StdDriver/src/uart.c:714:22
	itt	mi
	ldrmi.w	r3, [lr, #24]
	.loc	5 714 9                         @ ../../../../Library/StdDriver/src/uart.c:714:9
	lslsmi.w	r3, r3, #8
	bpl	.LBB13_2
.Ltmp286:
@ %bb.8:                                @   in Loop: Header=BB13_4 Depth=2
	@DEBUG_VALUE: UART_Write:u32delayno <- [DW_OP_plus_uconst 6, DW_OP_plus_uconst 1, DW_OP_stack_value] $r12
	@DEBUG_VALUE: UART_Write:u32Count <- $r0
	@DEBUG_VALUE: UART_Write:uart <- $lr
	@DEBUG_VALUE: UART_Write:u32Exit <- 0
	@DEBUG_VALUE: UART_Write:u32WriteBytes <- $r2
	@DEBUG_VALUE: UART_Write:pu8TxBuf <- $r1
	@DEBUG_VALUE: UART_Write:u32delayno <- [DW_OP_plus_uconst 7, DW_OP_plus_uconst 1, DW_OP_stack_value] $r12
	.loc	5 714 22                        @ ../../../../Library/StdDriver/src/uart.c:714:22
	ldr.w	r3, [lr, #24]
	.loc	5 714 9                         @ ../../../../Library/StdDriver/src/uart.c:714:9
	lsls	r3, r3, #8
.Ltmp287:
	@DEBUG_VALUE: UART_Write:u32delayno <- [DW_OP_plus_uconst 8, DW_OP_plus_uconst 1, DW_OP_stack_value] $r12
	.loc	5 714 22                        @ ../../../../Library/StdDriver/src/uart.c:714:22
	itt	mi
	ldrmi.w	r3, [lr, #24]
	.loc	5 714 9                         @ ../../../../Library/StdDriver/src/uart.c:714:9
	lslsmi.w	r3, r3, #8
	bpl	.LBB13_2
.Ltmp288:
@ %bb.9:                                @   in Loop: Header=BB13_4 Depth=2
	@DEBUG_VALUE: UART_Write:u32delayno <- [DW_OP_plus_uconst 8, DW_OP_plus_uconst 1, DW_OP_stack_value] $r12
	@DEBUG_VALUE: UART_Write:u32Count <- $r0
	@DEBUG_VALUE: UART_Write:uart <- $lr
	@DEBUG_VALUE: UART_Write:u32Exit <- 0
	@DEBUG_VALUE: UART_Write:u32WriteBytes <- $r2
	@DEBUG_VALUE: UART_Write:pu8TxBuf <- $r1
	@DEBUG_VALUE: UART_Write:u32delayno <- [DW_OP_plus_uconst 9, DW_OP_plus_uconst 1, DW_OP_stack_value] $r12
	.loc	5 714 22                        @ ../../../../Library/StdDriver/src/uart.c:714:22
	ldr.w	r3, [lr, #24]
	.loc	5 714 9                         @ ../../../../Library/StdDriver/src/uart.c:714:9
	lsls	r3, r3, #8
.Ltmp289:
	@DEBUG_VALUE: UART_Write:u32delayno <- [DW_OP_plus_uconst 10, DW_OP_plus_uconst 1, DW_OP_stack_value] $r12
	.loc	5 714 22                        @ ../../../../Library/StdDriver/src/uart.c:714:22
	itt	mi
	ldrmi.w	r3, [lr, #24]
	.loc	5 714 9                         @ ../../../../Library/StdDriver/src/uart.c:714:9
	lslsmi.w	r3, r3, #8
	bpl	.LBB13_2
.Ltmp290:
@ %bb.10:                               @   in Loop: Header=BB13_4 Depth=2
	@DEBUG_VALUE: UART_Write:u32delayno <- [DW_OP_plus_uconst 10, DW_OP_plus_uconst 1, DW_OP_stack_value] $r12
	@DEBUG_VALUE: UART_Write:u32Count <- $r0
	@DEBUG_VALUE: UART_Write:uart <- $lr
	@DEBUG_VALUE: UART_Write:u32Exit <- 0
	@DEBUG_VALUE: UART_Write:u32WriteBytes <- $r2
	@DEBUG_VALUE: UART_Write:pu8TxBuf <- $r1
	@DEBUG_VALUE: UART_Write:u32delayno <- [DW_OP_plus_uconst 11, DW_OP_plus_uconst 1, DW_OP_stack_value] $r12
	.loc	5 714 22                        @ ../../../../Library/StdDriver/src/uart.c:714:22
	ldr.w	r3, [lr, #24]
	.loc	5 714 9                         @ ../../../../Library/StdDriver/src/uart.c:714:9
	lsls	r3, r3, #8
.Ltmp291:
	@DEBUG_VALUE: UART_Write:u32delayno <- [DW_OP_plus_uconst 12, DW_OP_plus_uconst 1, DW_OP_stack_value] $r12
	.loc	5 714 22                        @ ../../../../Library/StdDriver/src/uart.c:714:22
	itt	mi
	ldrmi.w	r3, [lr, #24]
	.loc	5 714 9                         @ ../../../../Library/StdDriver/src/uart.c:714:9
	lslsmi.w	r3, r3, #8
	bpl	.LBB13_2
.Ltmp292:
@ %bb.11:                               @   in Loop: Header=BB13_4 Depth=2
	@DEBUG_VALUE: UART_Write:u32delayno <- [DW_OP_plus_uconst 12, DW_OP_plus_uconst 1, DW_OP_stack_value] $r12
	@DEBUG_VALUE: UART_Write:u32Count <- $r0
	@DEBUG_VALUE: UART_Write:uart <- $lr
	@DEBUG_VALUE: UART_Write:u32Exit <- 0
	@DEBUG_VALUE: UART_Write:u32WriteBytes <- $r2
	@DEBUG_VALUE: UART_Write:pu8TxBuf <- $r1
	@DEBUG_VALUE: UART_Write:u32delayno <- [DW_OP_plus_uconst 13, DW_OP_plus_uconst 1, DW_OP_stack_value] $r12
	.loc	5 714 22                        @ ../../../../Library/StdDriver/src/uart.c:714:22
	ldr.w	r3, [lr, #24]
	.loc	5 714 9                         @ ../../../../Library/StdDriver/src/uart.c:714:9
	lsls	r3, r3, #8
.Ltmp293:
	@DEBUG_VALUE: UART_Write:u32delayno <- [DW_OP_plus_uconst 14, DW_OP_plus_uconst 1, DW_OP_stack_value] $r12
	.loc	5 714 22                        @ ../../../../Library/StdDriver/src/uart.c:714:22
	itt	mi
	ldrmi.w	r3, [lr, #24]
	.loc	5 714 9                         @ ../../../../Library/StdDriver/src/uart.c:714:9
	lslsmi.w	r3, r3, #8
	bpl	.LBB13_2
.Ltmp294:
@ %bb.12:                               @   in Loop: Header=BB13_4 Depth=2
	@DEBUG_VALUE: UART_Write:u32delayno <- [DW_OP_plus_uconst 14, DW_OP_plus_uconst 1, DW_OP_stack_value] $r12
	@DEBUG_VALUE: UART_Write:u32Count <- $r0
	@DEBUG_VALUE: UART_Write:uart <- $lr
	@DEBUG_VALUE: UART_Write:u32Exit <- 0
	@DEBUG_VALUE: UART_Write:u32WriteBytes <- $r2
	@DEBUG_VALUE: UART_Write:pu8TxBuf <- $r1
	@DEBUG_VALUE: UART_Write:u32delayno <- [DW_OP_consts 1073741824, DW_OP_minus, DW_OP_consts 18446744073709551600, DW_OP_div, DW_OP_consts 16, DW_OP_mul, DW_OP_consts 16, DW_OP_plus, DW_OP_stack_value] $r12
	.loc	5 718 28 is_stmt 1              @ ../../../../Library/StdDriver/src/uart.c:718:28
	subs.w	r12, r12, #16
.Ltmp295:
	.loc	5 738 5                         @ ../../../../Library/StdDriver/src/uart.c:738:5
	it	eq
	popeq	{r7, pc}
	b	.LBB13_4
.Ltmp296:
.LBB13_13:
	@DEBUG_VALUE: UART_Write:u32Count <- $r0
	@DEBUG_VALUE: UART_Write:uart <- $lr
	@DEBUG_VALUE: UART_Write:u32Exit <- 0
	@DEBUG_VALUE: UART_Write:u32WriteBytes <- $r2
	@DEBUG_VALUE: UART_Write:pu8TxBuf <- $r1
	.loc	5 0 5 is_stmt 0                 @ ../../../../Library/StdDriver/src/uart.c:0:5
	mov	r0, r2
.Ltmp297:
	.loc	5 738 5                         @ ../../../../Library/StdDriver/src/uart.c:738:5
	pop	{r7, pc}
.Ltmp298:
.Lfunc_end13:
	.size	UART_Write, .Lfunc_end13-UART_Write
	.cfi_endproc
	.cantunwind
	.fnend
                                        @ -- End function
	.section	.text.UART_SelectSingleWireMode,"ax",%progbits
	.hidden	UART_SelectSingleWireMode       @ -- Begin function UART_SelectSingleWireMode
	.globl	UART_SelectSingleWireMode
	.p2align	2
	.type	UART_SelectSingleWireMode,%function
	.code	16                              @ @UART_SelectSingleWireMode
	.thumb_func
UART_SelectSingleWireMode:
.Lfunc_begin14:
	.loc	5 750 0 is_stmt 1               @ ../../../../Library/StdDriver/src/uart.c:750:0
	.fnstart
	.cfi_startproc
@ %bb.0:
	@DEBUG_VALUE: UART_SelectSingleWireMode:uart <- $r0
	.loc	5 753 29 prologue_end           @ ../../../../Library/StdDriver/src/uart.c:753:29
	ldr	r1, [r0, #48]
	movs	r2, #4
	.loc	5 753 68 is_stmt 0              @ ../../../../Library/StdDriver/src/uart.c:753:68
	bfi	r1, r2, #0, #3
	.loc	5 753 19                        @ ../../../../Library/StdDriver/src/uart.c:753:19
	str	r1, [r0, #48]
	.loc	5 755 1 is_stmt 1               @ ../../../../Library/StdDriver/src/uart.c:755:1
	bx	lr
.Ltmp299:
.Lfunc_end14:
	.size	UART_SelectSingleWireMode, .Lfunc_end14-UART_SelectSingleWireMode
	.cfi_endproc
	.cantunwind
	.fnend
                                        @ -- End function
	.section	.text.UART_SetBaudRateFrationalDivider,"ax",%progbits
	.hidden	UART_SetBaudRateFrationalDivider @ -- Begin function UART_SetBaudRateFrationalDivider
	.globl	UART_SetBaudRateFrationalDivider
	.p2align	2
	.type	UART_SetBaudRateFrationalDivider,%function
	.code	16                              @ @UART_SetBaudRateFrationalDivider
	.thumb_func
UART_SetBaudRateFrationalDivider:
.Lfunc_begin15:
	.loc	5 767 0                         @ ../../../../Library/StdDriver/src/uart.c:767:0
	.fnstart
	.cfi_startproc
@ %bb.0:
	@DEBUG_VALUE: UART_SetBaudRateFrationalDivider:uart <- $r0
	@DEBUG_VALUE: UART_SetBaudRateFrationalDivider:u32BRFD <- $r1
	.loc	5 771 16 prologue_end           @ ../../../../Library/StdDriver/src/uart.c:771:16
	ldr	r2, [r0, #36]
	orr	r2, r2, #1879048192
	str	r2, [r0, #36]
	.loc	5 772 25                        @ ../../../../Library/StdDriver/src/uart.c:772:25
	ldr	r2, [r0, #36]
	.loc	5 772 30 is_stmt 0              @ ../../../../Library/StdDriver/src/uart.c:772:30
	bic	r2, r2, #16711680
	.loc	5 772 53                        @ ../../../../Library/StdDriver/src/uart.c:772:53
	orr.w	r1, r2, r1, lsl #16
.Ltmp300:
	@DEBUG_VALUE: UART_SetBaudRateFrationalDivider:u32BRFD <- [DW_OP_LLVM_entry_value 1] $r1
	.loc	5 772 16                        @ ../../../../Library/StdDriver/src/uart.c:772:16
	str	r1, [r0, #36]
	.loc	5 774 1 is_stmt 1               @ ../../../../Library/StdDriver/src/uart.c:774:1
	bx	lr
.Ltmp301:
.Lfunc_end15:
	.size	UART_SetBaudRateFrationalDivider, .Lfunc_end15-UART_SetBaudRateFrationalDivider
	.cfi_endproc
	.cantunwind
	.fnend
                                        @ -- End function
	.section	.text.UART_DisableBaudRateFrationalDivider,"ax",%progbits
	.hidden	UART_DisableBaudRateFrationalDivider @ -- Begin function UART_DisableBaudRateFrationalDivider
	.globl	UART_DisableBaudRateFrationalDivider
	.p2align	2
	.type	UART_DisableBaudRateFrationalDivider,%function
	.code	16                              @ @UART_DisableBaudRateFrationalDivider
	.thumb_func
UART_DisableBaudRateFrationalDivider:
.Lfunc_begin16:
	.loc	5 785 0                         @ ../../../../Library/StdDriver/src/uart.c:785:0
	.fnstart
	.cfi_startproc
@ %bb.0:
	@DEBUG_VALUE: UART_DisableBaudRateFrationalDivider:uart <- $r0
	.loc	5 788 16 prologue_end           @ ../../../../Library/StdDriver/src/uart.c:788:16
	ldr	r1, [r0, #36]
	movw	r2, #65535
	movt	r2, #48896
	ands	r1, r2
	str	r1, [r0, #36]
	.loc	5 790 1                         @ ../../../../Library/StdDriver/src/uart.c:790:1
	bx	lr
.Ltmp302:
.Lfunc_end16:
	.size	UART_DisableBaudRateFrationalDivider, .Lfunc_end16-UART_DisableBaudRateFrationalDivider
	.cfi_endproc
	.cantunwind
	.fnend
                                        @ -- End function
	.type	.L__const.UART_SelectIrDAMode.u32ClkTbl,%object @ @__const.UART_SelectIrDAMode.u32ClkTbl
	.section	.rodata..L__const.UART_SelectIrDAMode.u32ClkTbl,"a",%progbits
	.p2align	2, 0x0
.L__const.UART_SelectIrDAMode.u32ClkTbl:
	.long	24000000                        @ 0x16e3600
	.long	12000000                        @ 0xb71b00
	.long	32768                           @ 0x8000
	.long	0                               @ 0x0
	.long	48000000                        @ 0x2dc6c00
	.size	.L__const.UART_SelectIrDAMode.u32ClkTbl, 20

	.section	".note.GNU-stack","",%progbits
	.eabi_attribute	30, 1	@ Tag_ABI_optimization_goals
	.ARM_attribute	16, 1	@ Tag_AV_eba